ARM GAS  C:\Users\Xwx47\AppData\Local\Temp\cchbaicN.s 			page 1


   1              		.syntax unified
   2              		.cpu cortex-m3
   3              		.fpu softvfp
   4              		.eabi_attribute 20, 1
   5              		.eabi_attribute 21, 1
   6              		.eabi_attribute 23, 3
   7              		.eabi_attribute 24, 1
   8              		.eabi_attribute 25, 1
   9              		.eabi_attribute 26, 1
  10              		.eabi_attribute 30, 1
  11              		.eabi_attribute 34, 1
  12              		.eabi_attribute 18, 4
  13              		.thumb
  14              		.file	"CapSense_CSHL.c"
  15              		.text
  16              	.Ltext0:
  17              		.cfi_sections	.debug_frame
  18              		.section	.text.CapSense_BaseInit,"ax",%progbits
  19              		.align	2
  20              		.global	CapSense_BaseInit
  21              		.thumb
  22              		.thumb_func
  23              		.type	CapSense_BaseInit, %function
  24              	CapSense_BaseInit:
  25              	.LFB0:
  26              		.file 1 ".\\Generated_Source\\PSoC5\\CapSense_CSHL.c"
   1:.\Generated_Source\PSoC5/CapSense_CSHL.c **** /*******************************************************************************
   2:.\Generated_Source\PSoC5/CapSense_CSHL.c **** * File Name: CapSense_CSHL.c
   3:.\Generated_Source\PSoC5/CapSense_CSHL.c **** * Version 3.50
   4:.\Generated_Source\PSoC5/CapSense_CSHL.c **** *
   5:.\Generated_Source\PSoC5/CapSense_CSHL.c **** * Description:
   6:.\Generated_Source\PSoC5/CapSense_CSHL.c **** *  This file provides the source code to the High Level APIs for the CapSesne
   7:.\Generated_Source\PSoC5/CapSense_CSHL.c **** *  CSD component.
   8:.\Generated_Source\PSoC5/CapSense_CSHL.c **** *
   9:.\Generated_Source\PSoC5/CapSense_CSHL.c **** * Note:
  10:.\Generated_Source\PSoC5/CapSense_CSHL.c **** *
  11:.\Generated_Source\PSoC5/CapSense_CSHL.c **** ********************************************************************************
  12:.\Generated_Source\PSoC5/CapSense_CSHL.c **** * Copyright 2008-2013, Cypress Semiconductor Corporation.  All rights reserved.
  13:.\Generated_Source\PSoC5/CapSense_CSHL.c **** * You may use this file only in accordance with the license, terms, conditions,
  14:.\Generated_Source\PSoC5/CapSense_CSHL.c **** * disclaimers, and limitations in the end user license agreement accompanying
  15:.\Generated_Source\PSoC5/CapSense_CSHL.c **** * the software package with which this file was provided.
  16:.\Generated_Source\PSoC5/CapSense_CSHL.c **** *******************************************************************************/
  17:.\Generated_Source\PSoC5/CapSense_CSHL.c **** 
  18:.\Generated_Source\PSoC5/CapSense_CSHL.c **** #include "CapSense_CSHL.h"
  19:.\Generated_Source\PSoC5/CapSense_CSHL.c **** 
  20:.\Generated_Source\PSoC5/CapSense_CSHL.c **** /* Storage of filters data */
  21:.\Generated_Source\PSoC5/CapSense_CSHL.c **** #if ( (CapSense_RAW_FILTER_MASK & CapSense_MEDIAN_FILTER) | \
  22:.\Generated_Source\PSoC5/CapSense_CSHL.c ****       (CapSense_RAW_FILTER_MASK & CapSense_AVERAGING_FILTER) )
  23:.\Generated_Source\PSoC5/CapSense_CSHL.c **** 
  24:.\Generated_Source\PSoC5/CapSense_CSHL.c ****     uint16 CapSense_rawFilterData1[CapSense_TOTAL_SENSOR_COUNT];
  25:.\Generated_Source\PSoC5/CapSense_CSHL.c ****     uint16 CapSense_rawFilterData2[CapSense_TOTAL_SENSOR_COUNT];
  26:.\Generated_Source\PSoC5/CapSense_CSHL.c **** 
  27:.\Generated_Source\PSoC5/CapSense_CSHL.c **** #elif ( (CapSense_RAW_FILTER_MASK & CapSense_IIR2_FILTER)   | \
  28:.\Generated_Source\PSoC5/CapSense_CSHL.c ****         (CapSense_RAW_FILTER_MASK & CapSense_IIR4_FILTER)   | \
  29:.\Generated_Source\PSoC5/CapSense_CSHL.c ****         (CapSense_RAW_FILTER_MASK & CapSense_JITTER_FILTER) | \
  30:.\Generated_Source\PSoC5/CapSense_CSHL.c ****         (CapSense_RAW_FILTER_MASK & CapSense_IIR8_FILTER)   | \
  31:.\Generated_Source\PSoC5/CapSense_CSHL.c ****         (CapSense_RAW_FILTER_MASK & CapSense_IIR16_FILTER) )
ARM GAS  C:\Users\Xwx47\AppData\Local\Temp\cchbaicN.s 			page 2


  32:.\Generated_Source\PSoC5/CapSense_CSHL.c ****         
  33:.\Generated_Source\PSoC5/CapSense_CSHL.c ****     uint16 CapSense_rawFilterData1[CapSense_TOTAL_SENSOR_COUNT];
  34:.\Generated_Source\PSoC5/CapSense_CSHL.c **** 
  35:.\Generated_Source\PSoC5/CapSense_CSHL.c **** #else
  36:.\Generated_Source\PSoC5/CapSense_CSHL.c ****     /* No Raw filters */
  37:.\Generated_Source\PSoC5/CapSense_CSHL.c **** #endif  /* ( (CapSense_RAW_FILTER_MASK & CapSense_MEDIAN_FILTER) || \
  38:.\Generated_Source\PSoC5/CapSense_CSHL.c ****         *    (CapSense_RAW_FILTER_MASK & CapSense_AVERAGING_FILTER) )
  39:.\Generated_Source\PSoC5/CapSense_CSHL.c ****         */
  40:.\Generated_Source\PSoC5/CapSense_CSHL.c **** 
  41:.\Generated_Source\PSoC5/CapSense_CSHL.c **** uint16 CapSense_sensorBaseline[CapSense_TOTAL_SENSOR_COUNT];
  42:.\Generated_Source\PSoC5/CapSense_CSHL.c **** uint8 CapSense_sensorBaselineLow[CapSense_TOTAL_SENSOR_COUNT];
  43:.\Generated_Source\PSoC5/CapSense_CSHL.c **** uint8 CapSense_sensorSignal[CapSense_TOTAL_SENSOR_COUNT];
  44:.\Generated_Source\PSoC5/CapSense_CSHL.c **** uint8 CapSense_sensorOnMask[(((CapSense_TOTAL_SENSOR_COUNT - 1u) / 8u) + 1u)];
  45:.\Generated_Source\PSoC5/CapSense_CSHL.c **** 
  46:.\Generated_Source\PSoC5/CapSense_CSHL.c **** uint8 CapSense_lowBaselineResetCnt[CapSense_TOTAL_SENSOR_COUNT];
  47:.\Generated_Source\PSoC5/CapSense_CSHL.c **** 
  48:.\Generated_Source\PSoC5/CapSense_CSHL.c **** uint8 CapSense_fingerThreshold[] = {
  49:.\Generated_Source\PSoC5/CapSense_CSHL.c ****     100u, 100u, 100u, 
  50:.\Generated_Source\PSoC5/CapSense_CSHL.c **** };
  51:.\Generated_Source\PSoC5/CapSense_CSHL.c **** 
  52:.\Generated_Source\PSoC5/CapSense_CSHL.c **** uint8 CapSense_noiseThreshold[] = {
  53:.\Generated_Source\PSoC5/CapSense_CSHL.c ****     20u, 20u, 20u, 
  54:.\Generated_Source\PSoC5/CapSense_CSHL.c **** };
  55:.\Generated_Source\PSoC5/CapSense_CSHL.c **** 
  56:.\Generated_Source\PSoC5/CapSense_CSHL.c **** uint8 CapSense_hysteresis[] = {
  57:.\Generated_Source\PSoC5/CapSense_CSHL.c ****     10u, 10u, 10u, 
  58:.\Generated_Source\PSoC5/CapSense_CSHL.c **** };
  59:.\Generated_Source\PSoC5/CapSense_CSHL.c **** 
  60:.\Generated_Source\PSoC5/CapSense_CSHL.c **** uint8 CapSense_debounce[] = {
  61:.\Generated_Source\PSoC5/CapSense_CSHL.c ****     1u, 1u, 1u, 
  62:.\Generated_Source\PSoC5/CapSense_CSHL.c **** };
  63:.\Generated_Source\PSoC5/CapSense_CSHL.c **** 
  64:.\Generated_Source\PSoC5/CapSense_CSHL.c **** uint8 CapSense_debounceCounter[] = {
  65:.\Generated_Source\PSoC5/CapSense_CSHL.c ****     0u, 0u, 0u, 0u, 
  66:.\Generated_Source\PSoC5/CapSense_CSHL.c **** };
  67:.\Generated_Source\PSoC5/CapSense_CSHL.c **** 
  68:.\Generated_Source\PSoC5/CapSense_CSHL.c **** const uint8 CYCODE CapSense_rawDataIndex[] = {
  69:.\Generated_Source\PSoC5/CapSense_CSHL.c ****     0u, /* Button0__BTN */
  70:.\Generated_Source\PSoC5/CapSense_CSHL.c ****     1u, /* Button1__BTN */
  71:.\Generated_Source\PSoC5/CapSense_CSHL.c ****     2u, /* Button2__BTN */
  72:.\Generated_Source\PSoC5/CapSense_CSHL.c **** 
  73:.\Generated_Source\PSoC5/CapSense_CSHL.c **** };
  74:.\Generated_Source\PSoC5/CapSense_CSHL.c **** 
  75:.\Generated_Source\PSoC5/CapSense_CSHL.c **** const uint8 CYCODE CapSense_numberOfSensors[] = {
  76:.\Generated_Source\PSoC5/CapSense_CSHL.c ****     1u, /* Button0__BTN */
  77:.\Generated_Source\PSoC5/CapSense_CSHL.c ****     1u, /* Button1__BTN */
  78:.\Generated_Source\PSoC5/CapSense_CSHL.c ****     1u, /* Button2__BTN */
  79:.\Generated_Source\PSoC5/CapSense_CSHL.c **** 
  80:.\Generated_Source\PSoC5/CapSense_CSHL.c **** };
  81:.\Generated_Source\PSoC5/CapSense_CSHL.c **** 
  82:.\Generated_Source\PSoC5/CapSense_CSHL.c **** 
  83:.\Generated_Source\PSoC5/CapSense_CSHL.c **** 
  84:.\Generated_Source\PSoC5/CapSense_CSHL.c **** 
  85:.\Generated_Source\PSoC5/CapSense_CSHL.c **** /*******************************************************************************
  86:.\Generated_Source\PSoC5/CapSense_CSHL.c **** * Function Name: CapSense_BaseInit
  87:.\Generated_Source\PSoC5/CapSense_CSHL.c **** ********************************************************************************
  88:.\Generated_Source\PSoC5/CapSense_CSHL.c **** *
ARM GAS  C:\Users\Xwx47\AppData\Local\Temp\cchbaicN.s 			page 3


  89:.\Generated_Source\PSoC5/CapSense_CSHL.c **** * Summary:
  90:.\Generated_Source\PSoC5/CapSense_CSHL.c **** *  Loads the CapSense_sensorBaseline[sensor] array element with an 
  91:.\Generated_Source\PSoC5/CapSense_CSHL.c **** *  initial value which is equal to raw count value. 
  92:.\Generated_Source\PSoC5/CapSense_CSHL.c **** *  Resets to zero CapSense_sensorBaselineLow[sensor] and 
  93:.\Generated_Source\PSoC5/CapSense_CSHL.c **** *  CapSense_sensorSignal[sensor] array element.
  94:.\Generated_Source\PSoC5/CapSense_CSHL.c **** *  Loads CapSense_debounceCounter[sensor] array element with initial 
  95:.\Generated_Source\PSoC5/CapSense_CSHL.c **** *  value equal CapSense_debounce[].
  96:.\Generated_Source\PSoC5/CapSense_CSHL.c **** *  Loads the CapSense_rawFilterData2[sensor] and 
  97:.\Generated_Source\PSoC5/CapSense_CSHL.c **** *  CapSense_rawFilterData2[sensor] array element with an 
  98:.\Generated_Source\PSoC5/CapSense_CSHL.c **** *  initial value which is equal raw count value if raw data filter is enabled.
  99:.\Generated_Source\PSoC5/CapSense_CSHL.c **** *
 100:.\Generated_Source\PSoC5/CapSense_CSHL.c **** * Parameters:
 101:.\Generated_Source\PSoC5/CapSense_CSHL.c **** *  sensor:  Sensor number.
 102:.\Generated_Source\PSoC5/CapSense_CSHL.c **** *
 103:.\Generated_Source\PSoC5/CapSense_CSHL.c **** * Return:
 104:.\Generated_Source\PSoC5/CapSense_CSHL.c **** *  None
 105:.\Generated_Source\PSoC5/CapSense_CSHL.c **** *
 106:.\Generated_Source\PSoC5/CapSense_CSHL.c **** * Global Variables:
 107:.\Generated_Source\PSoC5/CapSense_CSHL.c **** *  CapSense_sensorBaseline[]    - used to store baseline value.
 108:.\Generated_Source\PSoC5/CapSense_CSHL.c **** *  CapSense_sensorBaselineLow[] - used to store fraction byte of 
 109:.\Generated_Source\PSoC5/CapSense_CSHL.c **** *  baseline value.
 110:.\Generated_Source\PSoC5/CapSense_CSHL.c **** *  CapSense_sensorSignal[]      - used to store diffence between 
 111:.\Generated_Source\PSoC5/CapSense_CSHL.c **** *  current value of raw data and previous value of baseline.
 112:.\Generated_Source\PSoC5/CapSense_CSHL.c **** *  CapSense_debounceCounter[]   - used to store current debounce 
 113:.\Generated_Source\PSoC5/CapSense_CSHL.c **** *  counter of sensor. Widget which has this parameter are buttons, matrix 
 114:.\Generated_Source\PSoC5/CapSense_CSHL.c **** *  buttons, proximity, guard. All other widgets haven't debounce parameter
 115:.\Generated_Source\PSoC5/CapSense_CSHL.c **** *  and use the last element of this array with value 0 (it means no debounce).
 116:.\Generated_Source\PSoC5/CapSense_CSHL.c **** *  CapSense_rawFilterData1[]    - used to store previous sample of 
 117:.\Generated_Source\PSoC5/CapSense_CSHL.c **** *  any enabled raw data filter.
 118:.\Generated_Source\PSoC5/CapSense_CSHL.c **** *  CapSense_rawFilterData2[]    - used to store before previous sample
 119:.\Generated_Source\PSoC5/CapSense_CSHL.c **** *  of enabled raw data filter. Only required for median or average filters.
 120:.\Generated_Source\PSoC5/CapSense_CSHL.c **** *
 121:.\Generated_Source\PSoC5/CapSense_CSHL.c **** * Reentrant:
 122:.\Generated_Source\PSoC5/CapSense_CSHL.c **** *  No
 123:.\Generated_Source\PSoC5/CapSense_CSHL.c **** *
 124:.\Generated_Source\PSoC5/CapSense_CSHL.c **** *******************************************************************************/
 125:.\Generated_Source\PSoC5/CapSense_CSHL.c **** void CapSense_BaseInit(uint8 sensor) 
 126:.\Generated_Source\PSoC5/CapSense_CSHL.c **** {
  27              		.loc 1 126 0
  28              		.cfi_startproc
  29              		@ args = 0, pretend = 0, frame = 0
  30              		@ frame_needed = 0, uses_anonymous_args = 0
  31              		@ link register save eliminated.
  32              	.LVL0:
  33 0000 10B4     		push	{r4}
  34              		.cfi_def_cfa_offset 4
  35              		.cfi_offset 4, -4
 127:.\Generated_Source\PSoC5/CapSense_CSHL.c ****     #if ((CapSense_TOTAL_BUTTONS_COUNT) || (CapSense_TOTAL_MATRIX_BUTTONS_COUNT) || \
 128:.\Generated_Source\PSoC5/CapSense_CSHL.c ****          (CapSense_TOTAL_GENERICS_COUNT))
 129:.\Generated_Source\PSoC5/CapSense_CSHL.c ****         uint8 widget = CapSense_widgetNumber[sensor];
  36              		.loc 1 129 0
  37 0002 0B4B     		ldr	r3, .L2
  38 0004 1A5C     		ldrb	r2, [r3, r0]	@ zero_extendqisi2
  39              	.LVL1:
 130:.\Generated_Source\PSoC5/CapSense_CSHL.c ****     #endif /* ((CapSense_TOTAL_MATRIX_BUTTONS_COUNT) || (CapSense_TOTAL_MATRIX_BUTTONS_COUNT)) */
 131:.\Generated_Source\PSoC5/CapSense_CSHL.c ****     
 132:.\Generated_Source\PSoC5/CapSense_CSHL.c ****     #if (CapSense_TOTAL_MATRIX_BUTTONS_COUNT)
ARM GAS  C:\Users\Xwx47\AppData\Local\Temp\cchbaicN.s 			page 4


 133:.\Generated_Source\PSoC5/CapSense_CSHL.c ****         uint8 debounceIndex;
 134:.\Generated_Source\PSoC5/CapSense_CSHL.c ****     #endif  /* (CapSense_TOTAL_MATRIX_BUTTONS_COUNT) */
 135:.\Generated_Source\PSoC5/CapSense_CSHL.c ****     
 136:.\Generated_Source\PSoC5/CapSense_CSHL.c ****     #if (CapSense_TOTAL_GENERICS_COUNT)
 137:.\Generated_Source\PSoC5/CapSense_CSHL.c ****         /* Exclude generic widget */
 138:.\Generated_Source\PSoC5/CapSense_CSHL.c ****         if(widget < CapSense_END_OF_WIDGETS_INDEX)
 139:.\Generated_Source\PSoC5/CapSense_CSHL.c ****         {
 140:.\Generated_Source\PSoC5/CapSense_CSHL.c ****     #endif  /* CapSense_TOTAL_GENERICS_COUNT */
 141:.\Generated_Source\PSoC5/CapSense_CSHL.c ****     
 142:.\Generated_Source\PSoC5/CapSense_CSHL.c ****     /* Initialize Baseline */
 143:.\Generated_Source\PSoC5/CapSense_CSHL.c ****     CapSense_sensorBaseline[sensor] = CapSense_sensorRaw[sensor];
  40              		.loc 1 143 0
  41 0006 0B4B     		ldr	r3, .L2+4
  42              	.LVL2:
  43 0008 33F81030 		ldrh	r3, [r3, r0, lsl #1]
  44 000c 0A49     		ldr	r1, .L2+8
  45 000e 21F81030 		strh	r3, [r1, r0, lsl #1]	@ movhi
 144:.\Generated_Source\PSoC5/CapSense_CSHL.c ****     CapSense_sensorBaselineLow[sensor] = 0u;
  46              		.loc 1 144 0
  47 0012 0021     		movs	r1, #0
  48 0014 094C     		ldr	r4, .L2+12
  49 0016 2154     		strb	r1, [r4, r0]
 145:.\Generated_Source\PSoC5/CapSense_CSHL.c ****     CapSense_sensorSignal[sensor] = 0u;
  50              		.loc 1 145 0
  51 0018 094C     		ldr	r4, .L2+16
  52 001a 2154     		strb	r1, [r4, r0]
 146:.\Generated_Source\PSoC5/CapSense_CSHL.c ****         
 147:.\Generated_Source\PSoC5/CapSense_CSHL.c ****     CapSense_debounceCounter[widget] =  CapSense_debounce[widget];
  53              		.loc 1 147 0
  54 001c 0949     		ldr	r1, .L2+20
  55 001e 8C5C     		ldrb	r4, [r1, r2]	@ zero_extendqisi2
  56 0020 0949     		ldr	r1, .L2+24
  57 0022 8C54     		strb	r4, [r1, r2]
 148:.\Generated_Source\PSoC5/CapSense_CSHL.c **** 
 149:.\Generated_Source\PSoC5/CapSense_CSHL.c ****     
 150:.\Generated_Source\PSoC5/CapSense_CSHL.c ****     #if ((CapSense_RAW_FILTER_MASK & CapSense_MEDIAN_FILTER) |\
 151:.\Generated_Source\PSoC5/CapSense_CSHL.c ****          (CapSense_RAW_FILTER_MASK & CapSense_AVERAGING_FILTER))
 152:.\Generated_Source\PSoC5/CapSense_CSHL.c **** 
 153:.\Generated_Source\PSoC5/CapSense_CSHL.c ****         CapSense_rawFilterData1[sensor] = CapSense_sensorRaw[sensor];
 154:.\Generated_Source\PSoC5/CapSense_CSHL.c ****         CapSense_rawFilterData2[sensor] = CapSense_sensorRaw[sensor];
 155:.\Generated_Source\PSoC5/CapSense_CSHL.c ****     
 156:.\Generated_Source\PSoC5/CapSense_CSHL.c ****     #elif ((CapSense_RAW_FILTER_MASK & CapSense_IIR2_FILTER) |\
 157:.\Generated_Source\PSoC5/CapSense_CSHL.c ****            (CapSense_RAW_FILTER_MASK & CapSense_IIR4_FILTER) |\
 158:.\Generated_Source\PSoC5/CapSense_CSHL.c ****            (CapSense_RAW_FILTER_MASK & CapSense_JITTER_FILTER) |\
 159:.\Generated_Source\PSoC5/CapSense_CSHL.c ****            (CapSense_RAW_FILTER_MASK & CapSense_IIR8_FILTER) |\
 160:.\Generated_Source\PSoC5/CapSense_CSHL.c ****            (CapSense_RAW_FILTER_MASK & CapSense_IIR16_FILTER))
 161:.\Generated_Source\PSoC5/CapSense_CSHL.c ****             
 162:.\Generated_Source\PSoC5/CapSense_CSHL.c ****         CapSense_rawFilterData1[sensor] = CapSense_sensorRaw[sensor];
  58              		.loc 1 162 0
  59 0024 094A     		ldr	r2, .L2+28
  60 0026 22F81030 		strh	r3, [r2, r0, lsl #1]	@ movhi
 163:.\Generated_Source\PSoC5/CapSense_CSHL.c ****     
 164:.\Generated_Source\PSoC5/CapSense_CSHL.c ****     #else
 165:.\Generated_Source\PSoC5/CapSense_CSHL.c ****         /* No Raw filters */
 166:.\Generated_Source\PSoC5/CapSense_CSHL.c ****     #endif  /* ((CapSense_RAW_FILTER_MASK & CapSense_MEDIAN_FILTER) | \
 167:.\Generated_Source\PSoC5/CapSense_CSHL.c ****             *   (CapSense_RAW_FILTER_MASK & CapSense_AVERAGING_FILTER))
 168:.\Generated_Source\PSoC5/CapSense_CSHL.c ****             */
ARM GAS  C:\Users\Xwx47\AppData\Local\Temp\cchbaicN.s 			page 5


 169:.\Generated_Source\PSoC5/CapSense_CSHL.c ****     
 170:.\Generated_Source\PSoC5/CapSense_CSHL.c ****     #if (CapSense_TOTAL_GENERICS_COUNT)
 171:.\Generated_Source\PSoC5/CapSense_CSHL.c ****         /* Exclude generic widget */
 172:.\Generated_Source\PSoC5/CapSense_CSHL.c ****         }
 173:.\Generated_Source\PSoC5/CapSense_CSHL.c ****     #endif  /* CapSense_TOTAL_GENERICS_COUNT */
 174:.\Generated_Source\PSoC5/CapSense_CSHL.c **** }
  61              		.loc 1 174 0
  62 002a 5DF8044B 		ldr	r4, [sp], #4
  63 002e 7047     		bx	lr
  64              	.L3:
  65              		.align	2
  66              	.L2:
  67 0030 00000000 		.word	CapSense_widgetNumber
  68 0034 00000000 		.word	CapSense_sensorRaw
  69 0038 00000000 		.word	CapSense_sensorBaseline
  70 003c 00000000 		.word	CapSense_sensorBaselineLow
  71 0040 00000000 		.word	CapSense_sensorSignal
  72 0044 00000000 		.word	.LANCHOR0
  73 0048 00000000 		.word	.LANCHOR1
  74 004c 00000000 		.word	CapSense_rawFilterData1
  75              		.cfi_endproc
  76              	.LFE0:
  77              		.size	CapSense_BaseInit, .-CapSense_BaseInit
  78              		.section	.text.CapSense_InitializeSensorBaseline,"ax",%progbits
  79              		.align	2
  80              		.global	CapSense_InitializeSensorBaseline
  81              		.thumb
  82              		.thumb_func
  83              		.type	CapSense_InitializeSensorBaseline, %function
  84              	CapSense_InitializeSensorBaseline:
  85              	.LFB1:
 175:.\Generated_Source\PSoC5/CapSense_CSHL.c **** 
 176:.\Generated_Source\PSoC5/CapSense_CSHL.c **** 
 177:.\Generated_Source\PSoC5/CapSense_CSHL.c **** /*******************************************************************************
 178:.\Generated_Source\PSoC5/CapSense_CSHL.c **** * Function Name: CapSense_InitializeSensorBaseline
 179:.\Generated_Source\PSoC5/CapSense_CSHL.c **** ********************************************************************************
 180:.\Generated_Source\PSoC5/CapSense_CSHL.c **** *
 181:.\Generated_Source\PSoC5/CapSense_CSHL.c **** * Summary:
 182:.\Generated_Source\PSoC5/CapSense_CSHL.c **** *  Loads the CapSense_sensorBaseline[sensor] array element with an 
 183:.\Generated_Source\PSoC5/CapSense_CSHL.c **** *  initial value by scanning the selected sensor (one channel design) or pair 
 184:.\Generated_Source\PSoC5/CapSense_CSHL.c **** *  of sensors (two channels designs). The raw count value is copied into the 
 185:.\Generated_Source\PSoC5/CapSense_CSHL.c **** *  baseline array for each sensor. The raw data filters are initialized if 
 186:.\Generated_Source\PSoC5/CapSense_CSHL.c **** *  enabled.
 187:.\Generated_Source\PSoC5/CapSense_CSHL.c **** *
 188:.\Generated_Source\PSoC5/CapSense_CSHL.c **** * Parameters:
 189:.\Generated_Source\PSoC5/CapSense_CSHL.c **** *  sensor:  Sensor number.
 190:.\Generated_Source\PSoC5/CapSense_CSHL.c **** *
 191:.\Generated_Source\PSoC5/CapSense_CSHL.c **** * Return:
 192:.\Generated_Source\PSoC5/CapSense_CSHL.c **** *  None
 193:.\Generated_Source\PSoC5/CapSense_CSHL.c **** *
 194:.\Generated_Source\PSoC5/CapSense_CSHL.c **** * Reentrant:
 195:.\Generated_Source\PSoC5/CapSense_CSHL.c **** *  No
 196:.\Generated_Source\PSoC5/CapSense_CSHL.c **** *
 197:.\Generated_Source\PSoC5/CapSense_CSHL.c **** *******************************************************************************/
 198:.\Generated_Source\PSoC5/CapSense_CSHL.c **** void CapSense_InitializeSensorBaseline(uint8 sensor)
 199:.\Generated_Source\PSoC5/CapSense_CSHL.c ****                           
 200:.\Generated_Source\PSoC5/CapSense_CSHL.c **** {
ARM GAS  C:\Users\Xwx47\AppData\Local\Temp\cchbaicN.s 			page 6


  86              		.loc 1 200 0
  87              		.cfi_startproc
  88              		@ args = 0, pretend = 0, frame = 0
  89              		@ frame_needed = 0, uses_anonymous_args = 0
  90              	.LVL3:
  91 0000 10B5     		push	{r4, lr}
  92              		.cfi_def_cfa_offset 8
  93              		.cfi_offset 4, -8
  94              		.cfi_offset 14, -4
  95 0002 0446     		mov	r4, r0
 201:.\Generated_Source\PSoC5/CapSense_CSHL.c ****     /* Scan sensor */
 202:.\Generated_Source\PSoC5/CapSense_CSHL.c ****     CapSense_ScanSensor(sensor);
  96              		.loc 1 202 0
  97 0004 FFF7FEFF 		bl	CapSense_ScanSensor
  98              	.LVL4:
  99              	.L5:
 203:.\Generated_Source\PSoC5/CapSense_CSHL.c ****     while(CapSense_IsBusy() != 0u)
 100              		.loc 1 203 0 discriminator 1
 101 0008 FFF7FEFF 		bl	CapSense_IsBusy
 102              	.LVL5:
 103 000c 0028     		cmp	r0, #0
 104 000e FBD1     		bne	.L5
 204:.\Generated_Source\PSoC5/CapSense_CSHL.c ****     {
 205:.\Generated_Source\PSoC5/CapSense_CSHL.c ****         /* Wait while busy */
 206:.\Generated_Source\PSoC5/CapSense_CSHL.c ****     }
 207:.\Generated_Source\PSoC5/CapSense_CSHL.c ****     
 208:.\Generated_Source\PSoC5/CapSense_CSHL.c ****     #if (CapSense_DESIGN_TYPE == CapSense_ONE_CHANNEL_DESIGN)
 209:.\Generated_Source\PSoC5/CapSense_CSHL.c ****         /* Initialize Baseline, Signal and debounce counters */       
 210:.\Generated_Source\PSoC5/CapSense_CSHL.c ****         CapSense_BaseInit(sensor);
 105              		.loc 1 210 0
 106 0010 2046     		mov	r0, r4
 107 0012 FFF7FEFF 		bl	CapSense_BaseInit
 108              	.LVL6:
 109 0016 10BD     		pop	{r4, pc}
 110              		.cfi_endproc
 111              	.LFE1:
 112              		.size	CapSense_InitializeSensorBaseline, .-CapSense_InitializeSensorBaseline
 113              		.section	.text.CapSense_InitializeAllBaselines,"ax",%progbits
 114              		.align	2
 115              		.global	CapSense_InitializeAllBaselines
 116              		.thumb
 117              		.thumb_func
 118              		.type	CapSense_InitializeAllBaselines, %function
 119              	CapSense_InitializeAllBaselines:
 120              	.LFB2:
 211:.\Generated_Source\PSoC5/CapSense_CSHL.c ****         
 212:.\Generated_Source\PSoC5/CapSense_CSHL.c ****     #else
 213:.\Generated_Source\PSoC5/CapSense_CSHL.c ****     
 214:.\Generated_Source\PSoC5/CapSense_CSHL.c ****         if(sensor < CapSense_TOTAL_SENSOR_COUNT__CH0)
 215:.\Generated_Source\PSoC5/CapSense_CSHL.c ****         {
 216:.\Generated_Source\PSoC5/CapSense_CSHL.c ****             /* Initialize Baseline, Signal and debounce counters */ 
 217:.\Generated_Source\PSoC5/CapSense_CSHL.c ****             CapSense_BaseInit(sensor);
 218:.\Generated_Source\PSoC5/CapSense_CSHL.c ****         }
 219:.\Generated_Source\PSoC5/CapSense_CSHL.c ****         
 220:.\Generated_Source\PSoC5/CapSense_CSHL.c ****         if(sensor < CapSense_TOTAL_SENSOR_COUNT__CH1)
 221:.\Generated_Source\PSoC5/CapSense_CSHL.c ****         {
 222:.\Generated_Source\PSoC5/CapSense_CSHL.c ****             /* Initialize Baseline, Signal and debounce counters */
ARM GAS  C:\Users\Xwx47\AppData\Local\Temp\cchbaicN.s 			page 7


 223:.\Generated_Source\PSoC5/CapSense_CSHL.c ****             CapSense_BaseInit(sensor + CapSense_TOTAL_SENSOR_COUNT__CH0);
 224:.\Generated_Source\PSoC5/CapSense_CSHL.c ****         }
 225:.\Generated_Source\PSoC5/CapSense_CSHL.c ****     
 226:.\Generated_Source\PSoC5/CapSense_CSHL.c ****     #endif  /* (CapSense_DESIGN_TYPE == CapSense_ONE_CHANNEL_DESIGN) */
 227:.\Generated_Source\PSoC5/CapSense_CSHL.c **** }
 228:.\Generated_Source\PSoC5/CapSense_CSHL.c **** 
 229:.\Generated_Source\PSoC5/CapSense_CSHL.c **** 
 230:.\Generated_Source\PSoC5/CapSense_CSHL.c **** /*******************************************************************************
 231:.\Generated_Source\PSoC5/CapSense_CSHL.c **** * Function Name: CapSense_InitializeAllBaselines
 232:.\Generated_Source\PSoC5/CapSense_CSHL.c **** ********************************************************************************
 233:.\Generated_Source\PSoC5/CapSense_CSHL.c **** *
 234:.\Generated_Source\PSoC5/CapSense_CSHL.c **** * Summary:
 235:.\Generated_Source\PSoC5/CapSense_CSHL.c **** *  Uses the CapSense_InitializeSensorBaseline function to loads the 
 236:.\Generated_Source\PSoC5/CapSense_CSHL.c **** *  CapSense_sensorBaseline[] array with an initial values by scanning 
 237:.\Generated_Source\PSoC5/CapSense_CSHL.c **** *  all sensors. The raw count values are copied into the baseline array for 
 238:.\Generated_Source\PSoC5/CapSense_CSHL.c **** *  all sensors. The raw data filters are initialized if enabled.
 239:.\Generated_Source\PSoC5/CapSense_CSHL.c **** *
 240:.\Generated_Source\PSoC5/CapSense_CSHL.c **** * Parameters:
 241:.\Generated_Source\PSoC5/CapSense_CSHL.c **** *  None
 242:.\Generated_Source\PSoC5/CapSense_CSHL.c **** *
 243:.\Generated_Source\PSoC5/CapSense_CSHL.c **** * Return:
 244:.\Generated_Source\PSoC5/CapSense_CSHL.c **** *  None
 245:.\Generated_Source\PSoC5/CapSense_CSHL.c **** *
 246:.\Generated_Source\PSoC5/CapSense_CSHL.c **** * Reentrant:
 247:.\Generated_Source\PSoC5/CapSense_CSHL.c **** *  No
 248:.\Generated_Source\PSoC5/CapSense_CSHL.c **** *
 249:.\Generated_Source\PSoC5/CapSense_CSHL.c **** *******************************************************************************/
 250:.\Generated_Source\PSoC5/CapSense_CSHL.c **** void CapSense_InitializeAllBaselines(void)
 251:.\Generated_Source\PSoC5/CapSense_CSHL.c ****                           
 252:.\Generated_Source\PSoC5/CapSense_CSHL.c **** {
 121              		.loc 1 252 0
 122              		.cfi_startproc
 123              		@ args = 0, pretend = 0, frame = 0
 124              		@ frame_needed = 0, uses_anonymous_args = 0
 125 0000 10B5     		push	{r4, lr}
 126              		.cfi_def_cfa_offset 8
 127              		.cfi_offset 4, -8
 128              		.cfi_offset 14, -4
 129              	.LVL7:
 253:.\Generated_Source\PSoC5/CapSense_CSHL.c ****     uint8 i;
 254:.\Generated_Source\PSoC5/CapSense_CSHL.c ****     
 255:.\Generated_Source\PSoC5/CapSense_CSHL.c ****     /* The baseline initialize by sensor of sensor pair */
 256:.\Generated_Source\PSoC5/CapSense_CSHL.c ****     for(i = 0u; i < CapSense_TOTAL_SCANSLOT_COUNT; i++)
 130              		.loc 1 256 0
 131 0002 0024     		movs	r4, #0
 132 0004 04E0     		b	.L8
 133              	.LVL8:
 134              	.L9:
 257:.\Generated_Source\PSoC5/CapSense_CSHL.c ****     {
 258:.\Generated_Source\PSoC5/CapSense_CSHL.c ****         CapSense_InitializeSensorBaseline(i);
 135              		.loc 1 258 0 discriminator 2
 136 0006 2046     		mov	r0, r4
 137 0008 FFF7FEFF 		bl	CapSense_InitializeSensorBaseline
 138              	.LVL9:
 256:.\Generated_Source\PSoC5/CapSense_CSHL.c ****     for(i = 0u; i < CapSense_TOTAL_SCANSLOT_COUNT; i++)
 139              		.loc 1 256 0 discriminator 2
 140 000c 0134     		adds	r4, r4, #1
ARM GAS  C:\Users\Xwx47\AppData\Local\Temp\cchbaicN.s 			page 8


 141              	.LVL10:
 142 000e E4B2     		uxtb	r4, r4
 143              	.LVL11:
 144              	.L8:
 256:.\Generated_Source\PSoC5/CapSense_CSHL.c ****     for(i = 0u; i < CapSense_TOTAL_SCANSLOT_COUNT; i++)
 145              		.loc 1 256 0 is_stmt 0 discriminator 1
 146 0010 022C     		cmp	r4, #2
 147 0012 F8D9     		bls	.L9
 259:.\Generated_Source\PSoC5/CapSense_CSHL.c ****     }
 260:.\Generated_Source\PSoC5/CapSense_CSHL.c **** }
 148              		.loc 1 260 0 is_stmt 1
 149 0014 10BD     		pop	{r4, pc}
 150              		.cfi_endproc
 151              	.LFE2:
 152              		.size	CapSense_InitializeAllBaselines, .-CapSense_InitializeAllBaselines
 153 0016 00BF     		.section	.text.CapSense_InitializeEnabledBaselines,"ax",%progbits
 154              		.align	2
 155              		.global	CapSense_InitializeEnabledBaselines
 156              		.thumb
 157              		.thumb_func
 158              		.type	CapSense_InitializeEnabledBaselines, %function
 159              	CapSense_InitializeEnabledBaselines:
 160              	.LFB3:
 261:.\Generated_Source\PSoC5/CapSense_CSHL.c **** 
 262:.\Generated_Source\PSoC5/CapSense_CSHL.c **** 
 263:.\Generated_Source\PSoC5/CapSense_CSHL.c **** /*******************************************************************************
 264:.\Generated_Source\PSoC5/CapSense_CSHL.c **** * Function Name: CapSense_InitializeEnabledBaselines
 265:.\Generated_Source\PSoC5/CapSense_CSHL.c **** ********************************************************************************
 266:.\Generated_Source\PSoC5/CapSense_CSHL.c **** *
 267:.\Generated_Source\PSoC5/CapSense_CSHL.c **** * Summary:
 268:.\Generated_Source\PSoC5/CapSense_CSHL.c **** *  Scans all enabled widgets and the raw count values are copied into the 
 269:.\Generated_Source\PSoC5/CapSense_CSHL.c **** *  baseline array for all sensors enabled in scanning process. Baselines 
 270:.\Generated_Source\PSoC5/CapSense_CSHL.c **** *  initialize with zero values for sensors disabled from scanning process. 
 271:.\Generated_Source\PSoC5/CapSense_CSHL.c **** *  The raw data filters are initialized if enabled.
 272:.\Generated_Source\PSoC5/CapSense_CSHL.c **** *
 273:.\Generated_Source\PSoC5/CapSense_CSHL.c **** * Parameters:
 274:.\Generated_Source\PSoC5/CapSense_CSHL.c **** *  None
 275:.\Generated_Source\PSoC5/CapSense_CSHL.c **** *
 276:.\Generated_Source\PSoC5/CapSense_CSHL.c **** * Return:
 277:.\Generated_Source\PSoC5/CapSense_CSHL.c **** *  None
 278:.\Generated_Source\PSoC5/CapSense_CSHL.c **** *
 279:.\Generated_Source\PSoC5/CapSense_CSHL.c **** * Reentrant:
 280:.\Generated_Source\PSoC5/CapSense_CSHL.c **** *  No
 281:.\Generated_Source\PSoC5/CapSense_CSHL.c **** *
 282:.\Generated_Source\PSoC5/CapSense_CSHL.c **** *******************************************************************************/
 283:.\Generated_Source\PSoC5/CapSense_CSHL.c **** void CapSense_InitializeEnabledBaselines(void)
 284:.\Generated_Source\PSoC5/CapSense_CSHL.c ****                              
 285:.\Generated_Source\PSoC5/CapSense_CSHL.c **** {
 161              		.loc 1 285 0
 162              		.cfi_startproc
 163              		@ args = 0, pretend = 0, frame = 0
 164              		@ frame_needed = 0, uses_anonymous_args = 0
 165 0000 F8B5     		push	{r3, r4, r5, r6, r7, lr}
 166              		.cfi_def_cfa_offset 24
 167              		.cfi_offset 3, -24
 168              		.cfi_offset 4, -20
 169              		.cfi_offset 5, -16
ARM GAS  C:\Users\Xwx47\AppData\Local\Temp\cchbaicN.s 			page 9


 170              		.cfi_offset 6, -12
 171              		.cfi_offset 7, -8
 172              		.cfi_offset 14, -4
 286:.\Generated_Source\PSoC5/CapSense_CSHL.c ****     uint8 i;
 287:.\Generated_Source\PSoC5/CapSense_CSHL.c ****     uint8 pos;
 288:.\Generated_Source\PSoC5/CapSense_CSHL.c ****     uint8 enMask;
 289:.\Generated_Source\PSoC5/CapSense_CSHL.c ****     
 290:.\Generated_Source\PSoC5/CapSense_CSHL.c ****     CapSense_ScanEnabledWidgets();
 173              		.loc 1 290 0
 174 0002 FFF7FEFF 		bl	CapSense_ScanEnabledWidgets
 175              	.LVL12:
 176              	.L11:
 291:.\Generated_Source\PSoC5/CapSense_CSHL.c ****     while(CapSense_IsBusy() != 0u)
 177              		.loc 1 291 0 discriminator 1
 178 0006 FFF7FEFF 		bl	CapSense_IsBusy
 179              	.LVL13:
 180 000a 0028     		cmp	r0, #0
 181 000c FBD1     		bne	.L11
 182 000e 0024     		movs	r4, #0
 292:.\Generated_Source\PSoC5/CapSense_CSHL.c ****     {
 293:.\Generated_Source\PSoC5/CapSense_CSHL.c ****         /* Wait while busy */
 294:.\Generated_Source\PSoC5/CapSense_CSHL.c ****     }
 295:.\Generated_Source\PSoC5/CapSense_CSHL.c ****     
 296:.\Generated_Source\PSoC5/CapSense_CSHL.c ****     for(i = 0u; i < CapSense_TOTAL_SENSOR_COUNT; i++)
 297:.\Generated_Source\PSoC5/CapSense_CSHL.c ****     {
 298:.\Generated_Source\PSoC5/CapSense_CSHL.c ****         pos = (i >> 3u);
 299:.\Generated_Source\PSoC5/CapSense_CSHL.c ****         enMask = 0x01u << (i & 0x07u);
 183              		.loc 1 299 0
 184 0010 0126     		movs	r6, #1
 300:.\Generated_Source\PSoC5/CapSense_CSHL.c ****         
 301:.\Generated_Source\PSoC5/CapSense_CSHL.c ****         /* Clear raw data if sensor is disabled from scanning process */
 302:.\Generated_Source\PSoC5/CapSense_CSHL.c ****         if((CapSense_sensorEnableMask[pos] & enMask) == 0u)
 185              		.loc 1 302 0
 186 0012 0B4D     		ldr	r5, .L16
 303:.\Generated_Source\PSoC5/CapSense_CSHL.c ****         {
 304:.\Generated_Source\PSoC5/CapSense_CSHL.c ****             CapSense_sensorRaw[i] = 0u;
 187              		.loc 1 304 0
 188 0014 0B4F     		ldr	r7, .L16+4
 189 0016 0FE0     		b	.L12
 190              	.LVL14:
 191              	.L14:
 298:.\Generated_Source\PSoC5/CapSense_CSHL.c ****         pos = (i >> 3u);
 192              		.loc 1 298 0
 193 0018 E308     		lsrs	r3, r4, #3
 299:.\Generated_Source\PSoC5/CapSense_CSHL.c ****         enMask = 0x01u << (i & 0x07u);
 194              		.loc 1 299 0
 195 001a 04F00702 		and	r2, r4, #7
 196 001e 06FA02F2 		lsl	r2, r6, r2
 197              	.LVL15:
 302:.\Generated_Source\PSoC5/CapSense_CSHL.c ****         if((CapSense_sensorEnableMask[pos] & enMask) == 0u)
 198              		.loc 1 302 0
 199 0022 EB5C     		ldrb	r3, [r5, r3]	@ zero_extendqisi2
 200 0024 1A42     		tst	r2, r3
 201 0026 02D1     		bne	.L13
 202              		.loc 1 304 0
 203 0028 0023     		movs	r3, #0
 204 002a 27F81430 		strh	r3, [r7, r4, lsl #1]	@ movhi
ARM GAS  C:\Users\Xwx47\AppData\Local\Temp\cchbaicN.s 			page 10


 205              	.L13:
 305:.\Generated_Source\PSoC5/CapSense_CSHL.c ****         }
 306:.\Generated_Source\PSoC5/CapSense_CSHL.c ****         
 307:.\Generated_Source\PSoC5/CapSense_CSHL.c ****         /* Initialize baselines */
 308:.\Generated_Source\PSoC5/CapSense_CSHL.c ****         CapSense_BaseInit(i);
 206              		.loc 1 308 0
 207 002e 2046     		mov	r0, r4
 208 0030 FFF7FEFF 		bl	CapSense_BaseInit
 209              	.LVL16:
 296:.\Generated_Source\PSoC5/CapSense_CSHL.c ****     for(i = 0u; i < CapSense_TOTAL_SENSOR_COUNT; i++)
 210              		.loc 1 296 0
 211 0034 0134     		adds	r4, r4, #1
 212              	.LVL17:
 213 0036 E4B2     		uxtb	r4, r4
 214              	.LVL18:
 215              	.L12:
 296:.\Generated_Source\PSoC5/CapSense_CSHL.c ****     for(i = 0u; i < CapSense_TOTAL_SENSOR_COUNT; i++)
 216              		.loc 1 296 0 is_stmt 0 discriminator 1
 217 0038 022C     		cmp	r4, #2
 218 003a EDD9     		bls	.L14
 309:.\Generated_Source\PSoC5/CapSense_CSHL.c ****     }
 310:.\Generated_Source\PSoC5/CapSense_CSHL.c **** }  
 219              		.loc 1 310 0 is_stmt 1
 220 003c F8BD     		pop	{r3, r4, r5, r6, r7, pc}
 221              	.LVL19:
 222              	.L17:
 223 003e 00BF     		.align	2
 224              	.L16:
 225 0040 00000000 		.word	CapSense_sensorEnableMask
 226 0044 00000000 		.word	CapSense_sensorRaw
 227              		.cfi_endproc
 228              	.LFE3:
 229              		.size	CapSense_InitializeEnabledBaselines, .-CapSense_InitializeEnabledBaselines
 230              		.section	.text.CapSense_CheckIsSensorActive,"ax",%progbits
 231              		.align	2
 232              		.global	CapSense_CheckIsSensorActive
 233              		.thumb
 234              		.thumb_func
 235              		.type	CapSense_CheckIsSensorActive, %function
 236              	CapSense_CheckIsSensorActive:
 237              	.LFB6:
 311:.\Generated_Source\PSoC5/CapSense_CSHL.c **** 
 312:.\Generated_Source\PSoC5/CapSense_CSHL.c **** 
 313:.\Generated_Source\PSoC5/CapSense_CSHL.c **** /*******************************************************************************
 314:.\Generated_Source\PSoC5/CapSense_CSHL.c **** * Function Name: CapSense_UpdateSensorBaseline
 315:.\Generated_Source\PSoC5/CapSense_CSHL.c **** ********************************************************************************
 316:.\Generated_Source\PSoC5/CapSense_CSHL.c **** *
 317:.\Generated_Source\PSoC5/CapSense_CSHL.c **** * Summary:
 318:.\Generated_Source\PSoC5/CapSense_CSHL.c **** *  Updates the CapSense_sensorBaseline[sensor] array element using the 
 319:.\Generated_Source\PSoC5/CapSense_CSHL.c **** *  LP filter with k = 256. The signal calculates the difference of count by 
 320:.\Generated_Source\PSoC5/CapSense_CSHL.c **** *  subtracting the previous baseline from the current raw count value and stores
 321:.\Generated_Source\PSoC5/CapSense_CSHL.c **** *  it in CapSense_SensorSignal[sensor]. 
 322:.\Generated_Source\PSoC5/CapSense_CSHL.c **** *  If auto reset option is enabled the baseline updated regards noise threshold. 
 323:.\Generated_Source\PSoC5/CapSense_CSHL.c **** *  If auto reset option is disabled the baseline stops updating if signal is 
 324:.\Generated_Source\PSoC5/CapSense_CSHL.c **** *  greater that zero and baseline loads with raw count value if signal is less 
 325:.\Generated_Source\PSoC5/CapSense_CSHL.c **** *  that noise threshold.
 326:.\Generated_Source\PSoC5/CapSense_CSHL.c **** *  Raw data filters are applied to the values if enabled before baseline 
ARM GAS  C:\Users\Xwx47\AppData\Local\Temp\cchbaicN.s 			page 11


 327:.\Generated_Source\PSoC5/CapSense_CSHL.c **** *  calculation.
 328:.\Generated_Source\PSoC5/CapSense_CSHL.c **** *
 329:.\Generated_Source\PSoC5/CapSense_CSHL.c **** * Parameters:
 330:.\Generated_Source\PSoC5/CapSense_CSHL.c **** *  sensor:  Sensor number.
 331:.\Generated_Source\PSoC5/CapSense_CSHL.c **** *
 332:.\Generated_Source\PSoC5/CapSense_CSHL.c **** * Return:
 333:.\Generated_Source\PSoC5/CapSense_CSHL.c **** *  None
 334:.\Generated_Source\PSoC5/CapSense_CSHL.c **** *
 335:.\Generated_Source\PSoC5/CapSense_CSHL.c **** * Global Variables:
 336:.\Generated_Source\PSoC5/CapSense_CSHL.c **** *  CapSense_sensorBaseline[]    - used to store baseline value.
 337:.\Generated_Source\PSoC5/CapSense_CSHL.c **** *  CapSense_sensorBaselineLow[] - used to store fraction byte of 
 338:.\Generated_Source\PSoC5/CapSense_CSHL.c **** *  baseline value.
 339:.\Generated_Source\PSoC5/CapSense_CSHL.c **** *  CapSense_sensorSignal[]      - used to store diffence between 
 340:.\Generated_Source\PSoC5/CapSense_CSHL.c **** *  current value of raw data and previous value of baseline.
 341:.\Generated_Source\PSoC5/CapSense_CSHL.c **** *  CapSense_rawFilterData1[]    - used to store previous sample of 
 342:.\Generated_Source\PSoC5/CapSense_CSHL.c **** *  any enabled raw data filter.
 343:.\Generated_Source\PSoC5/CapSense_CSHL.c **** *  CapSense_rawFilterData2[]    - used to store before previous sample
 344:.\Generated_Source\PSoC5/CapSense_CSHL.c **** *  of enabled raw data filter. Only required for median or average filters.
 345:.\Generated_Source\PSoC5/CapSense_CSHL.c **** *
 346:.\Generated_Source\PSoC5/CapSense_CSHL.c **** * Reentrant:
 347:.\Generated_Source\PSoC5/CapSense_CSHL.c **** *  No
 348:.\Generated_Source\PSoC5/CapSense_CSHL.c **** *
 349:.\Generated_Source\PSoC5/CapSense_CSHL.c **** *******************************************************************************/
 350:.\Generated_Source\PSoC5/CapSense_CSHL.c ****  void CapSense_UpdateSensorBaseline(uint8 sensor)
 351:.\Generated_Source\PSoC5/CapSense_CSHL.c ****                                  
 352:.\Generated_Source\PSoC5/CapSense_CSHL.c **** {
 353:.\Generated_Source\PSoC5/CapSense_CSHL.c ****     uint32 calc;
 354:.\Generated_Source\PSoC5/CapSense_CSHL.c ****     uint16 tempRaw;
 355:.\Generated_Source\PSoC5/CapSense_CSHL.c ****     uint16 filteredRawData;
 356:.\Generated_Source\PSoC5/CapSense_CSHL.c ****     uint8 widget = CapSense_widgetNumber[sensor];
 357:.\Generated_Source\PSoC5/CapSense_CSHL.c ****     uint8 noiseThreshold = CapSense_noiseThreshold[widget];
 358:.\Generated_Source\PSoC5/CapSense_CSHL.c ****     
 359:.\Generated_Source\PSoC5/CapSense_CSHL.c ****     #if (CapSense_TOTAL_GENERICS_COUNT)
 360:.\Generated_Source\PSoC5/CapSense_CSHL.c ****         /* Exclude generic widget */
 361:.\Generated_Source\PSoC5/CapSense_CSHL.c ****         if(widget < CapSense_END_OF_WIDGETS_INDEX)
 362:.\Generated_Source\PSoC5/CapSense_CSHL.c ****         {
 363:.\Generated_Source\PSoC5/CapSense_CSHL.c ****     #endif  /* CapSense_TOTAL_GENERICS_COUNT */
 364:.\Generated_Source\PSoC5/CapSense_CSHL.c ****     
 365:.\Generated_Source\PSoC5/CapSense_CSHL.c ****     filteredRawData = CapSense_sensorRaw[sensor];
 366:.\Generated_Source\PSoC5/CapSense_CSHL.c ****     
 367:.\Generated_Source\PSoC5/CapSense_CSHL.c ****     #if (CapSense_RAW_FILTER_MASK & CapSense_MEDIAN_FILTER)
 368:.\Generated_Source\PSoC5/CapSense_CSHL.c ****         tempRaw = filteredRawData;
 369:.\Generated_Source\PSoC5/CapSense_CSHL.c ****         filteredRawData = CapSense_MedianFilter(filteredRawData, CapSense_rawFilterData1[sensor], 
 370:.\Generated_Source\PSoC5/CapSense_CSHL.c ****                                                         CapSense_rawFilterData2[sensor]);
 371:.\Generated_Source\PSoC5/CapSense_CSHL.c ****         CapSense_rawFilterData2[sensor] = CapSense_rawFilterData1[sensor];
 372:.\Generated_Source\PSoC5/CapSense_CSHL.c ****         CapSense_rawFilterData1[sensor] = tempRaw;
 373:.\Generated_Source\PSoC5/CapSense_CSHL.c ****         
 374:.\Generated_Source\PSoC5/CapSense_CSHL.c ****     #elif (CapSense_RAW_FILTER_MASK & CapSense_AVERAGING_FILTER)
 375:.\Generated_Source\PSoC5/CapSense_CSHL.c ****         tempRaw = filteredRawData;
 376:.\Generated_Source\PSoC5/CapSense_CSHL.c ****         filteredRawData = CapSense_AveragingFilter(filteredRawData, CapSense_rawFilterData1[sensor]
 377:.\Generated_Source\PSoC5/CapSense_CSHL.c ****                                                            CapSense_rawFilterData2[sensor]);
 378:.\Generated_Source\PSoC5/CapSense_CSHL.c ****         CapSense_rawFilterData2[sensor] = CapSense_rawFilterData1[sensor];
 379:.\Generated_Source\PSoC5/CapSense_CSHL.c ****         CapSense_rawFilterData1[sensor] = tempRaw;
 380:.\Generated_Source\PSoC5/CapSense_CSHL.c ****         
 381:.\Generated_Source\PSoC5/CapSense_CSHL.c ****     #elif (CapSense_RAW_FILTER_MASK & CapSense_IIR2_FILTER)
 382:.\Generated_Source\PSoC5/CapSense_CSHL.c ****         filteredRawData = CapSense_IIR2Filter(filteredRawData, CapSense_rawFilterData1[sensor]);
 383:.\Generated_Source\PSoC5/CapSense_CSHL.c ****         CapSense_rawFilterData1[sensor] = filteredRawData;
ARM GAS  C:\Users\Xwx47\AppData\Local\Temp\cchbaicN.s 			page 12


 384:.\Generated_Source\PSoC5/CapSense_CSHL.c ****         
 385:.\Generated_Source\PSoC5/CapSense_CSHL.c ****     #elif (CapSense_RAW_FILTER_MASK & CapSense_IIR4_FILTER)
 386:.\Generated_Source\PSoC5/CapSense_CSHL.c ****         filteredRawData = CapSense_IIR4Filter(filteredRawData, CapSense_rawFilterData1[sensor]);
 387:.\Generated_Source\PSoC5/CapSense_CSHL.c ****         CapSense_rawFilterData1[sensor] = filteredRawData;
 388:.\Generated_Source\PSoC5/CapSense_CSHL.c ****             
 389:.\Generated_Source\PSoC5/CapSense_CSHL.c ****     #elif (CapSense_RAW_FILTER_MASK & CapSense_JITTER_FILTER)
 390:.\Generated_Source\PSoC5/CapSense_CSHL.c ****         filteredRawData = CapSense_JitterFilter(filteredRawData, CapSense_rawFilterData1[sensor]);
 391:.\Generated_Source\PSoC5/CapSense_CSHL.c ****         CapSense_rawFilterData1[sensor] = filteredRawData;
 392:.\Generated_Source\PSoC5/CapSense_CSHL.c ****         
 393:.\Generated_Source\PSoC5/CapSense_CSHL.c ****     #elif (CapSense_RAW_FILTER_MASK & CapSense_IIR8_FILTER)
 394:.\Generated_Source\PSoC5/CapSense_CSHL.c ****         filteredRawData = CapSense_IIR8Filter(filteredRawData, CapSense_rawFilterData1[sensor]);
 395:.\Generated_Source\PSoC5/CapSense_CSHL.c ****         CapSense_rawFilterData1[sensor] = filteredRawData;
 396:.\Generated_Source\PSoC5/CapSense_CSHL.c ****         
 397:.\Generated_Source\PSoC5/CapSense_CSHL.c ****     #elif (CapSense_RAW_FILTER_MASK & CapSense_IIR16_FILTER)
 398:.\Generated_Source\PSoC5/CapSense_CSHL.c ****         filteredRawData = CapSense_IIR16Filter(filteredRawData, CapSense_rawFilterData1[sensor]);
 399:.\Generated_Source\PSoC5/CapSense_CSHL.c ****         CapSense_rawFilterData1[sensor] = filteredRawData;
 400:.\Generated_Source\PSoC5/CapSense_CSHL.c ****         
 401:.\Generated_Source\PSoC5/CapSense_CSHL.c ****     #else
 402:.\Generated_Source\PSoC5/CapSense_CSHL.c ****         /* No Raw filters */
 403:.\Generated_Source\PSoC5/CapSense_CSHL.c ****     #endif  /* (CapSense_RAW_FILTER_MASK & CapSense_MEDIAN_FILTER) */
 404:.\Generated_Source\PSoC5/CapSense_CSHL.c ****     
 405:.\Generated_Source\PSoC5/CapSense_CSHL.c ****     #if (CapSense_TUNING_METHOD == CapSense_AUTO_TUNING)
 406:.\Generated_Source\PSoC5/CapSense_CSHL.c ****         CapSense_CalculateThresholds(sensor);
 407:.\Generated_Source\PSoC5/CapSense_CSHL.c ****     #endif /* (CapSense_TUNING_METHOD == CapSense_AUTO_TUNING) */
 408:.\Generated_Source\PSoC5/CapSense_CSHL.c **** 
 409:.\Generated_Source\PSoC5/CapSense_CSHL.c **** 
 410:.\Generated_Source\PSoC5/CapSense_CSHL.c ****     /* Baseline calculation */
 411:.\Generated_Source\PSoC5/CapSense_CSHL.c ****     /* Calculate difference RawData[cur] - Baseline[prev] */
 412:.\Generated_Source\PSoC5/CapSense_CSHL.c ****     if(filteredRawData >= CapSense_sensorBaseline[sensor])
 413:.\Generated_Source\PSoC5/CapSense_CSHL.c ****     {
 414:.\Generated_Source\PSoC5/CapSense_CSHL.c ****         tempRaw = filteredRawData - CapSense_sensorBaseline[sensor];
 415:.\Generated_Source\PSoC5/CapSense_CSHL.c ****         widget = 1u;    /* Positive difference - Calculate the Signal */
 416:.\Generated_Source\PSoC5/CapSense_CSHL.c ****     }
 417:.\Generated_Source\PSoC5/CapSense_CSHL.c ****     else
 418:.\Generated_Source\PSoC5/CapSense_CSHL.c ****     {
 419:.\Generated_Source\PSoC5/CapSense_CSHL.c ****         tempRaw = CapSense_sensorBaseline[sensor] - filteredRawData;
 420:.\Generated_Source\PSoC5/CapSense_CSHL.c ****         widget = 0u;    /* Negative difference - Do NOT calculate the Signal */
 421:.\Generated_Source\PSoC5/CapSense_CSHL.c ****     }
 422:.\Generated_Source\PSoC5/CapSense_CSHL.c **** 
 423:.\Generated_Source\PSoC5/CapSense_CSHL.c ****     if((widget == 0u) && (tempRaw > (uint16) CapSense_NEGATIVE_NOISE_THRESHOLD))
 424:.\Generated_Source\PSoC5/CapSense_CSHL.c ****     {
 425:.\Generated_Source\PSoC5/CapSense_CSHL.c ****         if(CapSense_lowBaselineResetCnt[sensor] >= CapSense_LOW_BASELINE_RESET)
 426:.\Generated_Source\PSoC5/CapSense_CSHL.c ****         {
 427:.\Generated_Source\PSoC5/CapSense_CSHL.c ****             CapSense_BaseInit(sensor);
 428:.\Generated_Source\PSoC5/CapSense_CSHL.c ****             CapSense_lowBaselineResetCnt[sensor] = 0u;
 429:.\Generated_Source\PSoC5/CapSense_CSHL.c ****         }
 430:.\Generated_Source\PSoC5/CapSense_CSHL.c ****         else
 431:.\Generated_Source\PSoC5/CapSense_CSHL.c ****         {
 432:.\Generated_Source\PSoC5/CapSense_CSHL.c ****             CapSense_lowBaselineResetCnt[sensor]++;
 433:.\Generated_Source\PSoC5/CapSense_CSHL.c ****         }
 434:.\Generated_Source\PSoC5/CapSense_CSHL.c ****     }
 435:.\Generated_Source\PSoC5/CapSense_CSHL.c ****     else
 436:.\Generated_Source\PSoC5/CapSense_CSHL.c ****     {
 437:.\Generated_Source\PSoC5/CapSense_CSHL.c ****         #if (CapSense_AUTO_RESET == CapSense_AUTO_RESET_DISABLE)
 438:.\Generated_Source\PSoC5/CapSense_CSHL.c ****             /* Update Baseline if lower that noiseThreshold */
 439:.\Generated_Source\PSoC5/CapSense_CSHL.c ****             if ( (tempRaw <= (uint16) noiseThreshold) || 
 440:.\Generated_Source\PSoC5/CapSense_CSHL.c ****                  ((tempRaw < (uint16) CapSense_NEGATIVE_NOISE_THRESHOLD)
ARM GAS  C:\Users\Xwx47\AppData\Local\Temp\cchbaicN.s 			page 13


 441:.\Generated_Source\PSoC5/CapSense_CSHL.c ****                    && (widget == 0u)))
 442:.\Generated_Source\PSoC5/CapSense_CSHL.c ****             {
 443:.\Generated_Source\PSoC5/CapSense_CSHL.c ****         #endif /* (CapSense_AUTO_RESET == CapSense_AUTO_RESET_DISABLE) */
 444:.\Generated_Source\PSoC5/CapSense_CSHL.c ****                 /* Make full Baseline 23 bits */
 445:.\Generated_Source\PSoC5/CapSense_CSHL.c ****                 calc = (uint32) CapSense_sensorBaseline[sensor] << 8u;
 446:.\Generated_Source\PSoC5/CapSense_CSHL.c ****                 calc |= (uint32) CapSense_sensorBaselineLow[sensor];
 447:.\Generated_Source\PSoC5/CapSense_CSHL.c **** 
 448:.\Generated_Source\PSoC5/CapSense_CSHL.c ****                 /* Add Raw Data to Baseline */
 449:.\Generated_Source\PSoC5/CapSense_CSHL.c ****                 calc += filteredRawData;
 450:.\Generated_Source\PSoC5/CapSense_CSHL.c **** 
 451:.\Generated_Source\PSoC5/CapSense_CSHL.c ****                 /* Sub the high Baseline */
 452:.\Generated_Source\PSoC5/CapSense_CSHL.c ****                 calc -= CapSense_sensorBaseline[sensor];
 453:.\Generated_Source\PSoC5/CapSense_CSHL.c **** 
 454:.\Generated_Source\PSoC5/CapSense_CSHL.c ****                 /* Put Baseline and BaselineLow */
 455:.\Generated_Source\PSoC5/CapSense_CSHL.c ****                 CapSense_sensorBaseline[sensor] = ((uint16) (calc >> 8u));
 456:.\Generated_Source\PSoC5/CapSense_CSHL.c ****                 CapSense_sensorBaselineLow[sensor] = ((uint8) calc);
 457:.\Generated_Source\PSoC5/CapSense_CSHL.c **** 
 458:.\Generated_Source\PSoC5/CapSense_CSHL.c ****                 CapSense_lowBaselineResetCnt[sensor] = 0u;
 459:.\Generated_Source\PSoC5/CapSense_CSHL.c ****         #if (CapSense_AUTO_RESET == CapSense_AUTO_RESET_DISABLE)
 460:.\Generated_Source\PSoC5/CapSense_CSHL.c ****             }
 461:.\Generated_Source\PSoC5/CapSense_CSHL.c ****         #endif /* (CapSense_AUTO_RESET == CapSense_AUTO_RESET_DISABLE) */
 462:.\Generated_Source\PSoC5/CapSense_CSHL.c ****     }
 463:.\Generated_Source\PSoC5/CapSense_CSHL.c **** 
 464:.\Generated_Source\PSoC5/CapSense_CSHL.c ****     /* Calculate Signal if possitive difference > noiseThreshold */
 465:.\Generated_Source\PSoC5/CapSense_CSHL.c ****     if((tempRaw > (uint16) noiseThreshold) && (widget != 0u))
 466:.\Generated_Source\PSoC5/CapSense_CSHL.c ****     {
 467:.\Generated_Source\PSoC5/CapSense_CSHL.c ****         #if (CapSense_SIGNAL_SIZE == CapSense_SIGNAL_SIZE_UINT8)
 468:.\Generated_Source\PSoC5/CapSense_CSHL.c ****             /* Over flow defence for uint8 */
 469:.\Generated_Source\PSoC5/CapSense_CSHL.c ****             if (tempRaw > 0xFFu)
 470:.\Generated_Source\PSoC5/CapSense_CSHL.c ****             {
 471:.\Generated_Source\PSoC5/CapSense_CSHL.c ****                 CapSense_sensorSignal[sensor] = 0xFFu;
 472:.\Generated_Source\PSoC5/CapSense_CSHL.c ****             }    
 473:.\Generated_Source\PSoC5/CapSense_CSHL.c ****             else 
 474:.\Generated_Source\PSoC5/CapSense_CSHL.c ****             {
 475:.\Generated_Source\PSoC5/CapSense_CSHL.c ****                 CapSense_sensorSignal[sensor] = ((uint8) tempRaw);
 476:.\Generated_Source\PSoC5/CapSense_CSHL.c ****             }
 477:.\Generated_Source\PSoC5/CapSense_CSHL.c ****         #else
 478:.\Generated_Source\PSoC5/CapSense_CSHL.c ****             CapSense_sensorSignal[sensor] = ((uint16) tempRaw);
 479:.\Generated_Source\PSoC5/CapSense_CSHL.c ****         #endif  /* (CapSense_SIGNAL_SIZE == CapSense_SIGNAL_SIZE_UINT8) */
 480:.\Generated_Source\PSoC5/CapSense_CSHL.c ****     }
 481:.\Generated_Source\PSoC5/CapSense_CSHL.c ****     else
 482:.\Generated_Source\PSoC5/CapSense_CSHL.c ****     {
 483:.\Generated_Source\PSoC5/CapSense_CSHL.c ****         /* Signal is zero */
 484:.\Generated_Source\PSoC5/CapSense_CSHL.c ****         CapSense_sensorSignal[sensor] = 0u;
 485:.\Generated_Source\PSoC5/CapSense_CSHL.c ****     }
 486:.\Generated_Source\PSoC5/CapSense_CSHL.c **** 
 487:.\Generated_Source\PSoC5/CapSense_CSHL.c ****     #if (CapSense_TOTAL_GENERICS_COUNT)
 488:.\Generated_Source\PSoC5/CapSense_CSHL.c ****         /* Exclude generic widget */
 489:.\Generated_Source\PSoC5/CapSense_CSHL.c ****         }
 490:.\Generated_Source\PSoC5/CapSense_CSHL.c ****     #endif  /* CapSense_TOTAL_GENERICS_COUNT */
 491:.\Generated_Source\PSoC5/CapSense_CSHL.c **** }
 492:.\Generated_Source\PSoC5/CapSense_CSHL.c **** 
 493:.\Generated_Source\PSoC5/CapSense_CSHL.c **** 
 494:.\Generated_Source\PSoC5/CapSense_CSHL.c **** /*******************************************************************************
 495:.\Generated_Source\PSoC5/CapSense_CSHL.c **** * Function Name: CapSense_UpdateEnabledBaselines
 496:.\Generated_Source\PSoC5/CapSense_CSHL.c **** ********************************************************************************
 497:.\Generated_Source\PSoC5/CapSense_CSHL.c **** *
ARM GAS  C:\Users\Xwx47\AppData\Local\Temp\cchbaicN.s 			page 14


 498:.\Generated_Source\PSoC5/CapSense_CSHL.c **** * Summary:
 499:.\Generated_Source\PSoC5/CapSense_CSHL.c **** *  Checks CapSense_sensorEnableMask[] array and calls the 
 500:.\Generated_Source\PSoC5/CapSense_CSHL.c **** *  CapSense_UpdateSensorBaseline function to update the baselines 
 501:.\Generated_Source\PSoC5/CapSense_CSHL.c **** *  for enabled sensors.
 502:.\Generated_Source\PSoC5/CapSense_CSHL.c **** *
 503:.\Generated_Source\PSoC5/CapSense_CSHL.c **** * Parameters:
 504:.\Generated_Source\PSoC5/CapSense_CSHL.c **** *  None
 505:.\Generated_Source\PSoC5/CapSense_CSHL.c **** *
 506:.\Generated_Source\PSoC5/CapSense_CSHL.c **** * Return:
 507:.\Generated_Source\PSoC5/CapSense_CSHL.c **** *  None
 508:.\Generated_Source\PSoC5/CapSense_CSHL.c **** *
 509:.\Generated_Source\PSoC5/CapSense_CSHL.c **** * Global Variables:
 510:.\Generated_Source\PSoC5/CapSense_CSHL.c **** *  CapSense_sensorEnableMask[] - used to store the sensor scanning 
 511:.\Generated_Source\PSoC5/CapSense_CSHL.c **** *  state.
 512:.\Generated_Source\PSoC5/CapSense_CSHL.c **** *  CapSense_sensorEnableMask[0] contains the masked bits for sensors 
 513:.\Generated_Source\PSoC5/CapSense_CSHL.c **** *   0 through 7 (sensor 0 is bit 0, sensor 1 is bit 1).
 514:.\Generated_Source\PSoC5/CapSense_CSHL.c **** *  CapSense_sensorEnableMask[1] contains the masked bits for 
 515:.\Generated_Source\PSoC5/CapSense_CSHL.c **** *  sensors 8 through 15 (if needed), and so on.
 516:.\Generated_Source\PSoC5/CapSense_CSHL.c **** *  0 - sensor doesn't scan by CapSense_ScanEnabledWidgets().
 517:.\Generated_Source\PSoC5/CapSense_CSHL.c **** *  1 - sensor scans by CapSense_ScanEnabledWidgets().
 518:.\Generated_Source\PSoC5/CapSense_CSHL.c **** *
 519:.\Generated_Source\PSoC5/CapSense_CSHL.c **** * Reentrant:
 520:.\Generated_Source\PSoC5/CapSense_CSHL.c **** *  No
 521:.\Generated_Source\PSoC5/CapSense_CSHL.c **** *
 522:.\Generated_Source\PSoC5/CapSense_CSHL.c **** *******************************************************************************/
 523:.\Generated_Source\PSoC5/CapSense_CSHL.c ****  void CapSense_UpdateEnabledBaselines(void)
 524:.\Generated_Source\PSoC5/CapSense_CSHL.c ****                                  
 525:.\Generated_Source\PSoC5/CapSense_CSHL.c **** {
 526:.\Generated_Source\PSoC5/CapSense_CSHL.c ****     uint8 i;
 527:.\Generated_Source\PSoC5/CapSense_CSHL.c ****     uint8 pos;
 528:.\Generated_Source\PSoC5/CapSense_CSHL.c ****     uint8 enMask;
 529:.\Generated_Source\PSoC5/CapSense_CSHL.c ****     
 530:.\Generated_Source\PSoC5/CapSense_CSHL.c ****     for(i = 0u; i < CapSense_TOTAL_SENSOR_COUNT; i++)
 531:.\Generated_Source\PSoC5/CapSense_CSHL.c ****     {
 532:.\Generated_Source\PSoC5/CapSense_CSHL.c ****         pos = (i >> 3u);
 533:.\Generated_Source\PSoC5/CapSense_CSHL.c ****         enMask = (uint8)(0x01u << (i & 0x07u));
 534:.\Generated_Source\PSoC5/CapSense_CSHL.c ****         if((CapSense_sensorEnableMask[pos] & enMask) != 0u)
 535:.\Generated_Source\PSoC5/CapSense_CSHL.c ****         {
 536:.\Generated_Source\PSoC5/CapSense_CSHL.c ****             CapSense_UpdateSensorBaseline(i);
 537:.\Generated_Source\PSoC5/CapSense_CSHL.c ****         }
 538:.\Generated_Source\PSoC5/CapSense_CSHL.c ****     }
 539:.\Generated_Source\PSoC5/CapSense_CSHL.c **** }
 540:.\Generated_Source\PSoC5/CapSense_CSHL.c **** 
 541:.\Generated_Source\PSoC5/CapSense_CSHL.c **** 
 542:.\Generated_Source\PSoC5/CapSense_CSHL.c **** /*******************************************************************************
 543:.\Generated_Source\PSoC5/CapSense_CSHL.c **** * Function Name: CapSense_CheckIsSensorActive
 544:.\Generated_Source\PSoC5/CapSense_CSHL.c **** ********************************************************************************
 545:.\Generated_Source\PSoC5/CapSense_CSHL.c **** *
 546:.\Generated_Source\PSoC5/CapSense_CSHL.c **** * Summary:
 547:.\Generated_Source\PSoC5/CapSense_CSHL.c **** *  Compares the CapSense_SensorSignal[sensor] array element to finger
 548:.\Generated_Source\PSoC5/CapSense_CSHL.c **** *  threshold of widget it belongs to. The hysteresis and debounce are taken into 
 549:.\Generated_Source\PSoC5/CapSense_CSHL.c **** *  account. The hysteresis is added or subtracted from the finger threshold 
 550:.\Generated_Source\PSoC5/CapSense_CSHL.c **** *  based on whether the sensor is currently active. 
 551:.\Generated_Source\PSoC5/CapSense_CSHL.c **** *  If the sensor is active, the threshold is lowered by the hysteresis amount.
 552:.\Generated_Source\PSoC5/CapSense_CSHL.c **** *  If the sensor is inactive, the threshold is raised by the hysteresis amount.
 553:.\Generated_Source\PSoC5/CapSense_CSHL.c **** *  The debounce counter added to the sensor active transition.
 554:.\Generated_Source\PSoC5/CapSense_CSHL.c **** *  This function updates CapSense_SensorOnMask[] array element.
ARM GAS  C:\Users\Xwx47\AppData\Local\Temp\cchbaicN.s 			page 15


 555:.\Generated_Source\PSoC5/CapSense_CSHL.c **** *
 556:.\Generated_Source\PSoC5/CapSense_CSHL.c **** * Parameters:
 557:.\Generated_Source\PSoC5/CapSense_CSHL.c **** *  sensor:  Sensor number.
 558:.\Generated_Source\PSoC5/CapSense_CSHL.c **** *
 559:.\Generated_Source\PSoC5/CapSense_CSHL.c **** * Return:
 560:.\Generated_Source\PSoC5/CapSense_CSHL.c **** *  Returns sensor state 1 if active, 0 if not active.
 561:.\Generated_Source\PSoC5/CapSense_CSHL.c **** *
 562:.\Generated_Source\PSoC5/CapSense_CSHL.c **** * Global Variables:
 563:.\Generated_Source\PSoC5/CapSense_CSHL.c **** *  CapSense_sensorSignal[]      - used to store diffence between 
 564:.\Generated_Source\PSoC5/CapSense_CSHL.c **** *  current value of raw data and previous value of baseline.
 565:.\Generated_Source\PSoC5/CapSense_CSHL.c **** *  CapSense_debounceCounter[]   - used to store current debounce 
 566:.\Generated_Source\PSoC5/CapSense_CSHL.c **** *  counter of sensor. Widget which has this parameter are buttons, matrix 
 567:.\Generated_Source\PSoC5/CapSense_CSHL.c **** *  buttons, proximity, guard. All other widgets haven't debounce parameter
 568:.\Generated_Source\PSoC5/CapSense_CSHL.c **** *  and use the last element of this array with value 0 (it means no debounce).
 569:.\Generated_Source\PSoC5/CapSense_CSHL.c **** *  CapSense_sensorOnMask[] - used to store sensors on/off state.
 570:.\Generated_Source\PSoC5/CapSense_CSHL.c **** *  CapSense_sensorOnMask[0] contains the masked bits for sensors 
 571:.\Generated_Source\PSoC5/CapSense_CSHL.c **** *   0 through 7 (sensor 0 is bit 0, sensor 1 is bit 1).
 572:.\Generated_Source\PSoC5/CapSense_CSHL.c **** *  CapSense_sensorEnableMask[1] contains the masked bits for 
 573:.\Generated_Source\PSoC5/CapSense_CSHL.c **** *  sensors 8 through 15 (if needed), and so on.
 574:.\Generated_Source\PSoC5/CapSense_CSHL.c **** *  0 - sensor is inactive.
 575:.\Generated_Source\PSoC5/CapSense_CSHL.c **** *  1 - sensor is active.
 576:.\Generated_Source\PSoC5/CapSense_CSHL.c **** *
 577:.\Generated_Source\PSoC5/CapSense_CSHL.c **** * Reentrant:
 578:.\Generated_Source\PSoC5/CapSense_CSHL.c **** *  No
 579:.\Generated_Source\PSoC5/CapSense_CSHL.c **** *
 580:.\Generated_Source\PSoC5/CapSense_CSHL.c **** *******************************************************************************/
 581:.\Generated_Source\PSoC5/CapSense_CSHL.c **** uint8 CapSense_CheckIsSensorActive(uint8 sensor)
 582:.\Generated_Source\PSoC5/CapSense_CSHL.c ****                                   
 583:.\Generated_Source\PSoC5/CapSense_CSHL.c **** {
 238              		.loc 1 583 0
 239              		.cfi_startproc
 240              		@ args = 0, pretend = 0, frame = 0
 241              		@ frame_needed = 0, uses_anonymous_args = 0
 242              		@ link register save eliminated.
 243              	.LVL20:
 244 0000 F0B4     		push	{r4, r5, r6, r7}
 245              		.cfi_def_cfa_offset 16
 246              		.cfi_offset 4, -16
 247              		.cfi_offset 5, -12
 248              		.cfi_offset 6, -8
 249              		.cfi_offset 7, -4
 584:.\Generated_Source\PSoC5/CapSense_CSHL.c ****     uint8 debounceIndex;
 585:.\Generated_Source\PSoC5/CapSense_CSHL.c ****     /* Get On/Off mask */
 586:.\Generated_Source\PSoC5/CapSense_CSHL.c ****     uint8 pos = (sensor >> 3u);
 250              		.loc 1 586 0
 251 0002 C108     		lsrs	r1, r0, #3
 252              	.LVL21:
 587:.\Generated_Source\PSoC5/CapSense_CSHL.c ****     uint8 onMask = 0x01u << (sensor & 0x07u);
 253              		.loc 1 587 0
 254 0004 00F00703 		and	r3, r0, #7
 255 0008 0122     		movs	r2, #1
 256 000a 9A40     		lsls	r2, r2, r3
 257 000c D2B2     		uxtb	r2, r2
 258              	.LVL22:
 588:.\Generated_Source\PSoC5/CapSense_CSHL.c ****     /* Prepare to find debounce counter index */
 589:.\Generated_Source\PSoC5/CapSense_CSHL.c ****     uint8 widget = CapSense_widgetNumber[sensor];
 259              		.loc 1 589 0
ARM GAS  C:\Users\Xwx47\AppData\Local\Temp\cchbaicN.s 			page 16


 260 000e 1B4B     		ldr	r3, .L25
 261 0010 1B5C     		ldrb	r3, [r3, r0]	@ zero_extendqisi2
 590:.\Generated_Source\PSoC5/CapSense_CSHL.c ****     uint8 fingerThreshold = CapSense_fingerThreshold[widget];
 262              		.loc 1 590 0
 263 0012 1B4C     		ldr	r4, .L25+4
 264 0014 E518     		adds	r5, r4, r3
 265 0016 2E79     		ldrb	r6, [r5, #4]	@ zero_extendqisi2
 266              	.LVL23:
 591:.\Generated_Source\PSoC5/CapSense_CSHL.c ****     uint8 hysteresis = CapSense_hysteresis[widget];
 267              		.loc 1 591 0
 268 0018 2D7A     		ldrb	r5, [r5, #8]	@ zero_extendqisi2
 269              	.LVL24:
 592:.\Generated_Source\PSoC5/CapSense_CSHL.c ****     uint8 debounce = CapSense_debounce[widget];
 270              		.loc 1 592 0
 271 001a E75C     		ldrb	r7, [r4, r3]	@ zero_extendqisi2
 272              	.LVL25:
 593:.\Generated_Source\PSoC5/CapSense_CSHL.c ****     
 594:.\Generated_Source\PSoC5/CapSense_CSHL.c ****     debounceIndex = widget;
 595:.\Generated_Source\PSoC5/CapSense_CSHL.c **** 
 596:.\Generated_Source\PSoC5/CapSense_CSHL.c ****     
 597:.\Generated_Source\PSoC5/CapSense_CSHL.c ****     /* Was on */
 598:.\Generated_Source\PSoC5/CapSense_CSHL.c ****     if (0u != (CapSense_sensorOnMask[pos] & onMask))
 273              		.loc 1 598 0
 274 001c 194C     		ldr	r4, .L25+8
 275              	.LVL26:
 276 001e 645C     		ldrb	r4, [r4, r1]	@ zero_extendqisi2
 277 0020 1442     		tst	r4, r2
 278 0022 0DD0     		beq	.L19
 599:.\Generated_Source\PSoC5/CapSense_CSHL.c ****     {
 600:.\Generated_Source\PSoC5/CapSense_CSHL.c ****         /* Hysteresis minus */
 601:.\Generated_Source\PSoC5/CapSense_CSHL.c ****         if (CapSense_sensorSignal[sensor] < (fingerThreshold - hysteresis))
 279              		.loc 1 601 0
 280 0024 DFF864C0 		ldr	ip, .L25+16
 281 0028 1CF80000 		ldrb	r0, [ip, r0]	@ zero_extendqisi2
 282              	.LVL27:
 283 002c 751B     		subs	r5, r6, r5
 284 002e A842     		cmp	r0, r5
 285 0030 1ADA     		bge	.L20
 602:.\Generated_Source\PSoC5/CapSense_CSHL.c ****         {
 603:.\Generated_Source\PSoC5/CapSense_CSHL.c ****             CapSense_sensorOnMask[pos] &= (uint8)~onMask;
 286              		.loc 1 603 0
 287 0032 24EA0204 		bic	r4, r4, r2
 288 0036 1348     		ldr	r0, .L25+8
 289 0038 4454     		strb	r4, [r0, r1]
 604:.\Generated_Source\PSoC5/CapSense_CSHL.c ****             CapSense_debounceCounter[debounceIndex] = debounce; 
 290              		.loc 1 604 0
 291 003a 1348     		ldr	r0, .L25+12
 292 003c C754     		strb	r7, [r0, r3]
 293 003e 13E0     		b	.L20
 294              	.LVL28:
 295              	.L19:
 605:.\Generated_Source\PSoC5/CapSense_CSHL.c ****         }
 606:.\Generated_Source\PSoC5/CapSense_CSHL.c ****     }
 607:.\Generated_Source\PSoC5/CapSense_CSHL.c ****     else    /* Was off */
 608:.\Generated_Source\PSoC5/CapSense_CSHL.c ****     {
 609:.\Generated_Source\PSoC5/CapSense_CSHL.c ****         /* Hysteresis plus */
 610:.\Generated_Source\PSoC5/CapSense_CSHL.c ****         if (CapSense_sensorSignal[sensor] > (fingerThreshold + hysteresis))
ARM GAS  C:\Users\Xwx47\AppData\Local\Temp\cchbaicN.s 			page 17


 296              		.loc 1 610 0
 297 0040 DFF848C0 		ldr	ip, .L25+16
 298 0044 1CF80000 		ldrb	r0, [ip, r0]	@ zero_extendqisi2
 299              	.LVL29:
 300 0048 3544     		add	r5, r5, r6
 301 004a A842     		cmp	r0, r5
 302 004c 0ADD     		ble	.L21
 611:.\Generated_Source\PSoC5/CapSense_CSHL.c ****         {
 612:.\Generated_Source\PSoC5/CapSense_CSHL.c ****             /* Sensor active, decrement debounce counter */
 613:.\Generated_Source\PSoC5/CapSense_CSHL.c ****             if (CapSense_debounceCounter[debounceIndex] <= 1u)
 303              		.loc 1 613 0
 304 004e 0E48     		ldr	r0, .L25+12
 305 0050 C05C     		ldrb	r0, [r0, r3]	@ zero_extendqisi2
 306 0052 0128     		cmp	r0, #1
 307 0054 02D8     		bhi	.L22
 614:.\Generated_Source\PSoC5/CapSense_CSHL.c ****             {
 615:.\Generated_Source\PSoC5/CapSense_CSHL.c ****                 CapSense_sensorOnMask[pos] |= onMask; 
 308              		.loc 1 615 0
 309 0056 1443     		orrs	r4, r4, r2
 310 0058 0A4D     		ldr	r5, .L25+8
 311 005a 6C54     		strb	r4, [r5, r1]
 312              	.L22:
 616:.\Generated_Source\PSoC5/CapSense_CSHL.c ****             }
 617:.\Generated_Source\PSoC5/CapSense_CSHL.c ****             CapSense_debounceCounter[debounceIndex]--;
 313              		.loc 1 617 0
 314 005c 0138     		subs	r0, r0, #1
 315 005e 0A4C     		ldr	r4, .L25+12
 316 0060 E054     		strb	r0, [r4, r3]
 317 0062 01E0     		b	.L20
 318              	.L21:
 618:.\Generated_Source\PSoC5/CapSense_CSHL.c ****         }
 619:.\Generated_Source\PSoC5/CapSense_CSHL.c ****         else
 620:.\Generated_Source\PSoC5/CapSense_CSHL.c ****         {
 621:.\Generated_Source\PSoC5/CapSense_CSHL.c ****             /* Sensor inactive - reset Debounce counter */
 622:.\Generated_Source\PSoC5/CapSense_CSHL.c ****             CapSense_debounceCounter[debounceIndex] = debounce;
 319              		.loc 1 622 0
 320 0064 0848     		ldr	r0, .L25+12
 321 0066 C754     		strb	r7, [r0, r3]
 322              	.L20:
 623:.\Generated_Source\PSoC5/CapSense_CSHL.c ****         }
 624:.\Generated_Source\PSoC5/CapSense_CSHL.c ****     }
 625:.\Generated_Source\PSoC5/CapSense_CSHL.c ****     
 626:.\Generated_Source\PSoC5/CapSense_CSHL.c ****     return (((CapSense_sensorOnMask[pos] & onMask) != 0u) ? 1u : 0u);
 323              		.loc 1 626 0
 324 0068 064B     		ldr	r3, .L25+8
 325              	.LVL30:
 326 006a 5B5C     		ldrb	r3, [r3, r1]	@ zero_extendqisi2
 327 006c 1342     		tst	r3, r2
 328 006e 01D0     		beq	.L24
 329 0070 0120     		movs	r0, #1
 330 0072 00E0     		b	.L23
 331              	.L24:
 332 0074 0020     		movs	r0, #0
 333              	.L23:
 627:.\Generated_Source\PSoC5/CapSense_CSHL.c **** }
 334              		.loc 1 627 0 discriminator 3
 335 0076 F0BC     		pop	{r4, r5, r6, r7}
ARM GAS  C:\Users\Xwx47\AppData\Local\Temp\cchbaicN.s 			page 18


 336              	.LVL31:
 337 0078 7047     		bx	lr
 338              	.L26:
 339 007a 00BF     		.align	2
 340              	.L25:
 341 007c 00000000 		.word	CapSense_widgetNumber
 342 0080 00000000 		.word	.LANCHOR0
 343 0084 00000000 		.word	CapSense_sensorOnMask
 344 0088 00000000 		.word	.LANCHOR1
 345 008c 00000000 		.word	CapSense_sensorSignal
 346              		.cfi_endproc
 347              	.LFE6:
 348              		.size	CapSense_CheckIsSensorActive, .-CapSense_CheckIsSensorActive
 349              		.section	.text.CapSense_CheckIsWidgetActive,"ax",%progbits
 350              		.align	2
 351              		.global	CapSense_CheckIsWidgetActive
 352              		.thumb
 353              		.thumb_func
 354              		.type	CapSense_CheckIsWidgetActive, %function
 355              	CapSense_CheckIsWidgetActive:
 356              	.LFB7:
 628:.\Generated_Source\PSoC5/CapSense_CSHL.c **** 
 629:.\Generated_Source\PSoC5/CapSense_CSHL.c **** 
 630:.\Generated_Source\PSoC5/CapSense_CSHL.c **** /*******************************************************************************
 631:.\Generated_Source\PSoC5/CapSense_CSHL.c **** * Function Name: CapSense_CheckIsWidgetActive
 632:.\Generated_Source\PSoC5/CapSense_CSHL.c **** ********************************************************************************
 633:.\Generated_Source\PSoC5/CapSense_CSHL.c **** *
 634:.\Generated_Source\PSoC5/CapSense_CSHL.c **** * Summary:
 635:.\Generated_Source\PSoC5/CapSense_CSHL.c **** *  Use function CapSense_CheckIsSensorActive() to update 
 636:.\Generated_Source\PSoC5/CapSense_CSHL.c **** *  CapSense_sensorOnMask[] for all sensors within the widget.
 637:.\Generated_Source\PSoC5/CapSense_CSHL.c **** *  If one of sensors within widget is active the function return that widget is 
 638:.\Generated_Source\PSoC5/CapSense_CSHL.c **** *  active.
 639:.\Generated_Source\PSoC5/CapSense_CSHL.c **** *  The touch pad and matrix buttons widgets need to have active sensor within 
 640:.\Generated_Source\PSoC5/CapSense_CSHL.c **** *  col and row to return widget active status.
 641:.\Generated_Source\PSoC5/CapSense_CSHL.c **** *
 642:.\Generated_Source\PSoC5/CapSense_CSHL.c **** * Parameters:
 643:.\Generated_Source\PSoC5/CapSense_CSHL.c **** *  widget:  widget number.
 644:.\Generated_Source\PSoC5/CapSense_CSHL.c **** *
 645:.\Generated_Source\PSoC5/CapSense_CSHL.c **** * Return:
 646:.\Generated_Source\PSoC5/CapSense_CSHL.c **** *  Returns widget sensor state 1 if one or more sensors within widget is/are 
 647:.\Generated_Source\PSoC5/CapSense_CSHL.c **** *  active, 0 if all sensors within widget are inactive.
 648:.\Generated_Source\PSoC5/CapSense_CSHL.c **** *
 649:.\Generated_Source\PSoC5/CapSense_CSHL.c **** * Reentrant:
 650:.\Generated_Source\PSoC5/CapSense_CSHL.c **** *  No
 651:.\Generated_Source\PSoC5/CapSense_CSHL.c **** *
 652:.\Generated_Source\PSoC5/CapSense_CSHL.c **** *******************************************************************************/
 653:.\Generated_Source\PSoC5/CapSense_CSHL.c **** uint8 CapSense_CheckIsWidgetActive(uint8 widget)
 654:.\Generated_Source\PSoC5/CapSense_CSHL.c ****                                  
 655:.\Generated_Source\PSoC5/CapSense_CSHL.c **** {
 357              		.loc 1 655 0
 358              		.cfi_startproc
 359              		@ args = 0, pretend = 0, frame = 0
 360              		@ frame_needed = 0, uses_anonymous_args = 0
 361              	.LVL32:
 362 0000 F8B5     		push	{r3, r4, r5, r6, r7, lr}
 363              		.cfi_def_cfa_offset 24
 364              		.cfi_offset 3, -24
ARM GAS  C:\Users\Xwx47\AppData\Local\Temp\cchbaicN.s 			page 19


 365              		.cfi_offset 4, -20
 366              		.cfi_offset 5, -16
 367              		.cfi_offset 6, -12
 368              		.cfi_offset 7, -8
 369              		.cfi_offset 14, -4
 656:.\Generated_Source\PSoC5/CapSense_CSHL.c ****     uint8 rawIndex = CapSense_rawDataIndex[widget];
 370              		.loc 1 656 0
 371 0002 094B     		ldr	r3, .L32
 372 0004 1C5C     		ldrb	r4, [r3, r0]	@ zero_extendqisi2
 373              	.LVL33:
 657:.\Generated_Source\PSoC5/CapSense_CSHL.c ****     uint8 numberOfSensors = CapSense_numberOfSensors[widget] + rawIndex;
 374              		.loc 1 657 0
 375 0006 1844     		add	r0, r0, r3
 376              	.LVL34:
 377 0008 0579     		ldrb	r5, [r0, #4]	@ zero_extendqisi2
 378 000a 2544     		add	r5, r5, r4
 379 000c EDB2     		uxtb	r5, r5
 380              	.LVL35:
 658:.\Generated_Source\PSoC5/CapSense_CSHL.c ****     uint8 state = 0u;
 381              		.loc 1 658 0
 382 000e 0026     		movs	r6, #0
 659:.\Generated_Source\PSoC5/CapSense_CSHL.c **** 
 660:.\Generated_Source\PSoC5/CapSense_CSHL.c ****     /* Check all sensors of the widget */
 661:.\Generated_Source\PSoC5/CapSense_CSHL.c ****     do
 662:.\Generated_Source\PSoC5/CapSense_CSHL.c ****     {
 663:.\Generated_Source\PSoC5/CapSense_CSHL.c ****         if(CapSense_CheckIsSensorActive(rawIndex) != 0u)
 664:.\Generated_Source\PSoC5/CapSense_CSHL.c ****         {
 665:.\Generated_Source\PSoC5/CapSense_CSHL.c ****             state = CapSense_SENSOR_1_IS_ACTIVE;
 383              		.loc 1 665 0
 384 0010 0127     		movs	r7, #1
 385              	.LVL36:
 386              	.L29:
 663:.\Generated_Source\PSoC5/CapSense_CSHL.c ****         if(CapSense_CheckIsSensorActive(rawIndex) != 0u)
 387              		.loc 1 663 0
 388 0012 2046     		mov	r0, r4
 389 0014 FFF7FEFF 		bl	CapSense_CheckIsSensorActive
 390              	.LVL37:
 391 0018 00B1     		cbz	r0, .L28
 392              		.loc 1 665 0
 393 001a 3E46     		mov	r6, r7
 394              	.L28:
 666:.\Generated_Source\PSoC5/CapSense_CSHL.c ****         }
 667:.\Generated_Source\PSoC5/CapSense_CSHL.c ****         rawIndex++;
 395              		.loc 1 667 0
 396 001c 0134     		adds	r4, r4, #1
 397              	.LVL38:
 398 001e E4B2     		uxtb	r4, r4
 399              	.LVL39:
 668:.\Generated_Source\PSoC5/CapSense_CSHL.c ****     }
 669:.\Generated_Source\PSoC5/CapSense_CSHL.c ****     while(rawIndex < numberOfSensors);
 400              		.loc 1 669 0
 401 0020 AC42     		cmp	r4, r5
 402 0022 F6D3     		bcc	.L29
 670:.\Generated_Source\PSoC5/CapSense_CSHL.c ****     
 671:.\Generated_Source\PSoC5/CapSense_CSHL.c **** 
 672:.\Generated_Source\PSoC5/CapSense_CSHL.c ****     
 673:.\Generated_Source\PSoC5/CapSense_CSHL.c ****     return (state);
ARM GAS  C:\Users\Xwx47\AppData\Local\Temp\cchbaicN.s 			page 20


 674:.\Generated_Source\PSoC5/CapSense_CSHL.c **** }
 403              		.loc 1 674 0
 404 0024 3046     		mov	r0, r6
 405 0026 F8BD     		pop	{r3, r4, r5, r6, r7, pc}
 406              	.LVL40:
 407              	.L33:
 408              		.align	2
 409              	.L32:
 410 0028 00000000 		.word	.LANCHOR2
 411              		.cfi_endproc
 412              	.LFE7:
 413              		.size	CapSense_CheckIsWidgetActive, .-CapSense_CheckIsWidgetActive
 414              		.section	.text.CapSense_CheckIsAnyWidgetActive,"ax",%progbits
 415              		.align	2
 416              		.global	CapSense_CheckIsAnyWidgetActive
 417              		.thumb
 418              		.thumb_func
 419              		.type	CapSense_CheckIsAnyWidgetActive, %function
 420              	CapSense_CheckIsAnyWidgetActive:
 421              	.LFB8:
 675:.\Generated_Source\PSoC5/CapSense_CSHL.c **** 
 676:.\Generated_Source\PSoC5/CapSense_CSHL.c **** 
 677:.\Generated_Source\PSoC5/CapSense_CSHL.c **** /*******************************************************************************
 678:.\Generated_Source\PSoC5/CapSense_CSHL.c **** * Function Name: CapSense_CheckIsAnyWidgetActive
 679:.\Generated_Source\PSoC5/CapSense_CSHL.c **** ********************************************************************************
 680:.\Generated_Source\PSoC5/CapSense_CSHL.c **** *
 681:.\Generated_Source\PSoC5/CapSense_CSHL.c **** * Summary:
 682:.\Generated_Source\PSoC5/CapSense_CSHL.c **** *  Compares all sensors of the CapSense_signal[] array to their finger 
 683:.\Generated_Source\PSoC5/CapSense_CSHL.c **** *  threshold. Calls CapSense_CheckIsWidgetActive() for each widget so 
 684:.\Generated_Source\PSoC5/CapSense_CSHL.c **** *  the CapSense_SensorOnMask[] array is up to date after calling this 
 685:.\Generated_Source\PSoC5/CapSense_CSHL.c **** *  function.
 686:.\Generated_Source\PSoC5/CapSense_CSHL.c **** *
 687:.\Generated_Source\PSoC5/CapSense_CSHL.c **** * Parameters:
 688:.\Generated_Source\PSoC5/CapSense_CSHL.c **** *  widget:  widget number.
 689:.\Generated_Source\PSoC5/CapSense_CSHL.c **** *
 690:.\Generated_Source\PSoC5/CapSense_CSHL.c **** * Return:
 691:.\Generated_Source\PSoC5/CapSense_CSHL.c **** *  Returns 1 if any widget is active, 0 none of widgets are active.
 692:.\Generated_Source\PSoC5/CapSense_CSHL.c **** *
 693:.\Generated_Source\PSoC5/CapSense_CSHL.c **** * Reentrant:
 694:.\Generated_Source\PSoC5/CapSense_CSHL.c **** *  No
 695:.\Generated_Source\PSoC5/CapSense_CSHL.c **** *
 696:.\Generated_Source\PSoC5/CapSense_CSHL.c **** *******************************************************************************/
 697:.\Generated_Source\PSoC5/CapSense_CSHL.c **** uint8 CapSense_CheckIsAnyWidgetActive(void)
 698:.\Generated_Source\PSoC5/CapSense_CSHL.c ****                                  
 699:.\Generated_Source\PSoC5/CapSense_CSHL.c **** {
 422              		.loc 1 699 0
 423              		.cfi_startproc
 424              		@ args = 0, pretend = 0, frame = 0
 425              		@ frame_needed = 0, uses_anonymous_args = 0
 426 0000 70B5     		push	{r4, r5, r6, lr}
 427              		.cfi_def_cfa_offset 16
 428              		.cfi_offset 4, -16
 429              		.cfi_offset 5, -12
 430              		.cfi_offset 6, -8
 431              		.cfi_offset 14, -4
 432              	.LVL41:
 700:.\Generated_Source\PSoC5/CapSense_CSHL.c ****     uint8 i;
ARM GAS  C:\Users\Xwx47\AppData\Local\Temp\cchbaicN.s 			page 21


 701:.\Generated_Source\PSoC5/CapSense_CSHL.c ****     uint8 state = 0u;
 433              		.loc 1 701 0
 434 0002 0025     		movs	r5, #0
 702:.\Generated_Source\PSoC5/CapSense_CSHL.c ****     
 703:.\Generated_Source\PSoC5/CapSense_CSHL.c ****     for(i = 0u; i < CapSense_TOTAL_WIDGET_COUNT; i++)
 435              		.loc 1 703 0
 436 0004 2C46     		mov	r4, r5
 704:.\Generated_Source\PSoC5/CapSense_CSHL.c ****     {
 705:.\Generated_Source\PSoC5/CapSense_CSHL.c ****         if (CapSense_CheckIsWidgetActive(i) != 0u)
 706:.\Generated_Source\PSoC5/CapSense_CSHL.c ****         {
 707:.\Generated_Source\PSoC5/CapSense_CSHL.c ****             state = CapSense_WIDGET_IS_ACTIVE;
 437              		.loc 1 707 0
 438 0006 0126     		movs	r6, #1
 703:.\Generated_Source\PSoC5/CapSense_CSHL.c ****     for(i = 0u; i < CapSense_TOTAL_WIDGET_COUNT; i++)
 439              		.loc 1 703 0
 440 0008 06E0     		b	.L35
 441              	.LVL42:
 442              	.L37:
 705:.\Generated_Source\PSoC5/CapSense_CSHL.c ****         if (CapSense_CheckIsWidgetActive(i) != 0u)
 443              		.loc 1 705 0
 444 000a 2046     		mov	r0, r4
 445 000c FFF7FEFF 		bl	CapSense_CheckIsWidgetActive
 446              	.LVL43:
 447 0010 00B1     		cbz	r0, .L36
 448              		.loc 1 707 0
 449 0012 3546     		mov	r5, r6
 450              	.L36:
 703:.\Generated_Source\PSoC5/CapSense_CSHL.c ****     for(i = 0u; i < CapSense_TOTAL_WIDGET_COUNT; i++)
 451              		.loc 1 703 0
 452 0014 0134     		adds	r4, r4, #1
 453              	.LVL44:
 454 0016 E4B2     		uxtb	r4, r4
 455              	.LVL45:
 456              	.L35:
 703:.\Generated_Source\PSoC5/CapSense_CSHL.c ****     for(i = 0u; i < CapSense_TOTAL_WIDGET_COUNT; i++)
 457              		.loc 1 703 0 is_stmt 0 discriminator 1
 458 0018 022C     		cmp	r4, #2
 459 001a F6D9     		bls	.L37
 708:.\Generated_Source\PSoC5/CapSense_CSHL.c ****         }
 709:.\Generated_Source\PSoC5/CapSense_CSHL.c ****     }
 710:.\Generated_Source\PSoC5/CapSense_CSHL.c ****     
 711:.\Generated_Source\PSoC5/CapSense_CSHL.c **** 
 712:.\Generated_Source\PSoC5/CapSense_CSHL.c ****     return (state);
 713:.\Generated_Source\PSoC5/CapSense_CSHL.c **** }
 460              		.loc 1 713 0 is_stmt 1
 461 001c 2846     		mov	r0, r5
 462 001e 70BD     		pop	{r4, r5, r6, pc}
 463              		.cfi_endproc
 464              	.LFE8:
 465              		.size	CapSense_CheckIsAnyWidgetActive, .-CapSense_CheckIsAnyWidgetActive
 466              		.section	.text.CapSense_EnableWidget,"ax",%progbits
 467              		.align	2
 468              		.global	CapSense_EnableWidget
 469              		.thumb
 470              		.thumb_func
 471              		.type	CapSense_EnableWidget, %function
 472              	CapSense_EnableWidget:
ARM GAS  C:\Users\Xwx47\AppData\Local\Temp\cchbaicN.s 			page 22


 473              	.LFB9:
 714:.\Generated_Source\PSoC5/CapSense_CSHL.c **** 
 715:.\Generated_Source\PSoC5/CapSense_CSHL.c **** 
 716:.\Generated_Source\PSoC5/CapSense_CSHL.c **** /*******************************************************************************
 717:.\Generated_Source\PSoC5/CapSense_CSHL.c **** * Function Name: CapSense_EnableWidget
 718:.\Generated_Source\PSoC5/CapSense_CSHL.c **** ********************************************************************************
 719:.\Generated_Source\PSoC5/CapSense_CSHL.c **** *
 720:.\Generated_Source\PSoC5/CapSense_CSHL.c **** * Summary:
 721:.\Generated_Source\PSoC5/CapSense_CSHL.c **** *  Enable all widget elements (sensors) to scanning process.
 722:.\Generated_Source\PSoC5/CapSense_CSHL.c **** *
 723:.\Generated_Source\PSoC5/CapSense_CSHL.c **** * Parameters:
 724:.\Generated_Source\PSoC5/CapSense_CSHL.c **** *  widget:  widget number.
 725:.\Generated_Source\PSoC5/CapSense_CSHL.c **** *
 726:.\Generated_Source\PSoC5/CapSense_CSHL.c **** * Return:
 727:.\Generated_Source\PSoC5/CapSense_CSHL.c **** *  None
 728:.\Generated_Source\PSoC5/CapSense_CSHL.c **** *
 729:.\Generated_Source\PSoC5/CapSense_CSHL.c **** * Global Variables:
 730:.\Generated_Source\PSoC5/CapSense_CSHL.c **** *  CapSense_sensorEnableMask[] - used to store the sensor scanning 
 731:.\Generated_Source\PSoC5/CapSense_CSHL.c **** *  state.
 732:.\Generated_Source\PSoC5/CapSense_CSHL.c **** *  CapSense_sensorEnableMask[0] contains the masked bits for sensors 
 733:.\Generated_Source\PSoC5/CapSense_CSHL.c **** *  0 through 7 (sensor 0 is bit 0, sensor 1 is bit 1).
 734:.\Generated_Source\PSoC5/CapSense_CSHL.c **** *  CapSense_sensorEnableMask[1] contains the masked bits for 
 735:.\Generated_Source\PSoC5/CapSense_CSHL.c **** *  sensors 8 through 15 (if needed), and so on.
 736:.\Generated_Source\PSoC5/CapSense_CSHL.c **** *  0 - sensor doesn't scan by CapSense_ScanEnabledWidgets().
 737:.\Generated_Source\PSoC5/CapSense_CSHL.c **** *  1 - sensor scans by CapSense_ScanEnabledWidgets().
 738:.\Generated_Source\PSoC5/CapSense_CSHL.c **** *
 739:.\Generated_Source\PSoC5/CapSense_CSHL.c **** * Reentrant:
 740:.\Generated_Source\PSoC5/CapSense_CSHL.c **** *  No
 741:.\Generated_Source\PSoC5/CapSense_CSHL.c **** *
 742:.\Generated_Source\PSoC5/CapSense_CSHL.c **** *******************************************************************************/
 743:.\Generated_Source\PSoC5/CapSense_CSHL.c **** void CapSense_EnableWidget(uint8 widget)
 744:.\Generated_Source\PSoC5/CapSense_CSHL.c ****                                    
 745:.\Generated_Source\PSoC5/CapSense_CSHL.c **** {
 474              		.loc 1 745 0
 475              		.cfi_startproc
 476              		@ args = 0, pretend = 0, frame = 0
 477              		@ frame_needed = 0, uses_anonymous_args = 0
 478              		@ link register save eliminated.
 479              	.LVL46:
 480 0000 70B4     		push	{r4, r5, r6}
 481              		.cfi_def_cfa_offset 12
 482              		.cfi_offset 4, -12
 483              		.cfi_offset 5, -8
 484              		.cfi_offset 6, -4
 746:.\Generated_Source\PSoC5/CapSense_CSHL.c ****     uint8 pos;
 747:.\Generated_Source\PSoC5/CapSense_CSHL.c ****     uint8 enMask;
 748:.\Generated_Source\PSoC5/CapSense_CSHL.c ****     uint8 rawIndex = CapSense_rawDataIndex[widget];
 485              		.loc 1 748 0
 486 0002 0B4A     		ldr	r2, .L42
 487 0004 135C     		ldrb	r3, [r2, r0]	@ zero_extendqisi2
 488              	.LVL47:
 749:.\Generated_Source\PSoC5/CapSense_CSHL.c ****     uint8 numberOfSensors = CapSense_numberOfSensors[widget] + rawIndex;
 489              		.loc 1 749 0
 490 0006 1044     		add	r0, r0, r2
 491              	.LVL48:
 492 0008 0679     		ldrb	r6, [r0, #4]	@ zero_extendqisi2
 493 000a 1E44     		add	r6, r6, r3
ARM GAS  C:\Users\Xwx47\AppData\Local\Temp\cchbaicN.s 			page 23


 494 000c F6B2     		uxtb	r6, r6
 495              	.LVL49:
 750:.\Generated_Source\PSoC5/CapSense_CSHL.c ****     
 751:.\Generated_Source\PSoC5/CapSense_CSHL.c ****     /* Enable all sensors of the widget */
 752:.\Generated_Source\PSoC5/CapSense_CSHL.c ****     do
 753:.\Generated_Source\PSoC5/CapSense_CSHL.c ****     {
 754:.\Generated_Source\PSoC5/CapSense_CSHL.c ****         pos = (rawIndex >> 3u);
 755:.\Generated_Source\PSoC5/CapSense_CSHL.c ****         enMask = 0x01u << (rawIndex & 0x07u);
 496              		.loc 1 755 0
 497 000e 0125     		movs	r5, #1
 756:.\Generated_Source\PSoC5/CapSense_CSHL.c ****         
 757:.\Generated_Source\PSoC5/CapSense_CSHL.c ****         CapSense_sensorEnableMask[pos] |= enMask;
 498              		.loc 1 757 0
 499 0010 0849     		ldr	r1, .L42+4
 500              	.LVL50:
 501              	.L40:
 754:.\Generated_Source\PSoC5/CapSense_CSHL.c ****         pos = (rawIndex >> 3u);
 502              		.loc 1 754 0 discriminator 1
 503 0012 DA08     		lsrs	r2, r3, #3
 504              	.LVL51:
 755:.\Generated_Source\PSoC5/CapSense_CSHL.c ****         enMask = 0x01u << (rawIndex & 0x07u);
 505              		.loc 1 755 0 discriminator 1
 506 0014 03F00700 		and	r0, r3, #7
 507 0018 05FA00F0 		lsl	r0, r5, r0
 508              	.LVL52:
 509              		.loc 1 757 0 discriminator 1
 510 001c 8C5C     		ldrb	r4, [r1, r2]	@ zero_extendqisi2
 511 001e 2043     		orrs	r0, r0, r4
 512              	.LVL53:
 513 0020 8854     		strb	r0, [r1, r2]
 758:.\Generated_Source\PSoC5/CapSense_CSHL.c ****         rawIndex++;
 514              		.loc 1 758 0 discriminator 1
 515 0022 0133     		adds	r3, r3, #1
 516              	.LVL54:
 517 0024 DBB2     		uxtb	r3, r3
 518              	.LVL55:
 759:.\Generated_Source\PSoC5/CapSense_CSHL.c ****     }
 760:.\Generated_Source\PSoC5/CapSense_CSHL.c ****     while(rawIndex < numberOfSensors);
 519              		.loc 1 760 0 discriminator 1
 520 0026 B342     		cmp	r3, r6
 521 0028 F3D3     		bcc	.L40
 761:.\Generated_Source\PSoC5/CapSense_CSHL.c ****     
 762:.\Generated_Source\PSoC5/CapSense_CSHL.c **** 
 763:.\Generated_Source\PSoC5/CapSense_CSHL.c **** }
 522              		.loc 1 763 0
 523 002a 70BC     		pop	{r4, r5, r6}
 524              	.LVL56:
 525 002c 7047     		bx	lr
 526              	.L43:
 527 002e 00BF     		.align	2
 528              	.L42:
 529 0030 00000000 		.word	.LANCHOR2
 530 0034 00000000 		.word	CapSense_sensorEnableMask
 531              		.cfi_endproc
 532              	.LFE9:
 533              		.size	CapSense_EnableWidget, .-CapSense_EnableWidget
 534              		.section	.text.CapSense_DisableWidget,"ax",%progbits
ARM GAS  C:\Users\Xwx47\AppData\Local\Temp\cchbaicN.s 			page 24


 535              		.align	2
 536              		.global	CapSense_DisableWidget
 537              		.thumb
 538              		.thumb_func
 539              		.type	CapSense_DisableWidget, %function
 540              	CapSense_DisableWidget:
 541              	.LFB10:
 764:.\Generated_Source\PSoC5/CapSense_CSHL.c **** 
 765:.\Generated_Source\PSoC5/CapSense_CSHL.c **** 
 766:.\Generated_Source\PSoC5/CapSense_CSHL.c **** /*******************************************************************************
 767:.\Generated_Source\PSoC5/CapSense_CSHL.c **** * Function Name: CapSense_DisableWidget
 768:.\Generated_Source\PSoC5/CapSense_CSHL.c **** ********************************************************************************
 769:.\Generated_Source\PSoC5/CapSense_CSHL.c **** *
 770:.\Generated_Source\PSoC5/CapSense_CSHL.c **** * Summary:
 771:.\Generated_Source\PSoC5/CapSense_CSHL.c **** *  Disable all widget elements (sensors) from scanning process.
 772:.\Generated_Source\PSoC5/CapSense_CSHL.c **** *
 773:.\Generated_Source\PSoC5/CapSense_CSHL.c **** * Parameters:
 774:.\Generated_Source\PSoC5/CapSense_CSHL.c **** *  widget:  widget number.
 775:.\Generated_Source\PSoC5/CapSense_CSHL.c **** *
 776:.\Generated_Source\PSoC5/CapSense_CSHL.c **** * Return:
 777:.\Generated_Source\PSoC5/CapSense_CSHL.c **** *  None
 778:.\Generated_Source\PSoC5/CapSense_CSHL.c **** *
 779:.\Generated_Source\PSoC5/CapSense_CSHL.c **** * Global Variables:
 780:.\Generated_Source\PSoC5/CapSense_CSHL.c **** *  CapSense_sensorEnableMask[] - used to store the sensor scanning 
 781:.\Generated_Source\PSoC5/CapSense_CSHL.c **** *  state.
 782:.\Generated_Source\PSoC5/CapSense_CSHL.c **** *  CapSense_sensorEnableMask[0] contains the masked bits for sensors 
 783:.\Generated_Source\PSoC5/CapSense_CSHL.c **** *  0 through 7 (sensor 0 is bit 0, sensor 1 is bit 1).
 784:.\Generated_Source\PSoC5/CapSense_CSHL.c **** *  CapSense_sensorEnableMask[1] contains the masked bits for 
 785:.\Generated_Source\PSoC5/CapSense_CSHL.c **** *  sensors 8 through 15 (if needed), and so on.
 786:.\Generated_Source\PSoC5/CapSense_CSHL.c **** *  0 - sensor doesn't scan by CapSense_ScanEnabledWidgets().
 787:.\Generated_Source\PSoC5/CapSense_CSHL.c **** *  1 - sensor scans by CapSense_ScanEnabledWidgets().
 788:.\Generated_Source\PSoC5/CapSense_CSHL.c **** *
 789:.\Generated_Source\PSoC5/CapSense_CSHL.c **** * Reentrant:
 790:.\Generated_Source\PSoC5/CapSense_CSHL.c **** *  No
 791:.\Generated_Source\PSoC5/CapSense_CSHL.c **** *
 792:.\Generated_Source\PSoC5/CapSense_CSHL.c **** *******************************************************************************/
 793:.\Generated_Source\PSoC5/CapSense_CSHL.c **** void CapSense_DisableWidget(uint8 widget)
 794:.\Generated_Source\PSoC5/CapSense_CSHL.c ****                                     
 795:.\Generated_Source\PSoC5/CapSense_CSHL.c **** {
 542              		.loc 1 795 0
 543              		.cfi_startproc
 544              		@ args = 0, pretend = 0, frame = 0
 545              		@ frame_needed = 0, uses_anonymous_args = 0
 546              		@ link register save eliminated.
 547              	.LVL57:
 548 0000 70B4     		push	{r4, r5, r6}
 549              		.cfi_def_cfa_offset 12
 550              		.cfi_offset 4, -12
 551              		.cfi_offset 5, -8
 552              		.cfi_offset 6, -4
 796:.\Generated_Source\PSoC5/CapSense_CSHL.c ****     uint8 pos;
 797:.\Generated_Source\PSoC5/CapSense_CSHL.c ****     uint8 enMask;
 798:.\Generated_Source\PSoC5/CapSense_CSHL.c ****     uint8 rawIndex = CapSense_rawDataIndex[widget];
 553              		.loc 1 798 0
 554 0002 0B4A     		ldr	r2, .L47
 555 0004 135C     		ldrb	r3, [r2, r0]	@ zero_extendqisi2
 556              	.LVL58:
ARM GAS  C:\Users\Xwx47\AppData\Local\Temp\cchbaicN.s 			page 25


 799:.\Generated_Source\PSoC5/CapSense_CSHL.c ****     uint8 numberOfSensors = CapSense_numberOfSensors[widget] + rawIndex;
 557              		.loc 1 799 0
 558 0006 1044     		add	r0, r0, r2
 559              	.LVL59:
 560 0008 0679     		ldrb	r6, [r0, #4]	@ zero_extendqisi2
 561 000a 1E44     		add	r6, r6, r3
 562 000c F6B2     		uxtb	r6, r6
 563              	.LVL60:
 800:.\Generated_Source\PSoC5/CapSense_CSHL.c ****    
 801:.\Generated_Source\PSoC5/CapSense_CSHL.c ****     /* Disable all sensors of the widget */
 802:.\Generated_Source\PSoC5/CapSense_CSHL.c ****     do
 803:.\Generated_Source\PSoC5/CapSense_CSHL.c ****     {
 804:.\Generated_Source\PSoC5/CapSense_CSHL.c ****         pos = (rawIndex >> 3u);
 805:.\Generated_Source\PSoC5/CapSense_CSHL.c ****         enMask = 0x01u << (rawIndex & 0x07u);
 564              		.loc 1 805 0
 565 000e 0125     		movs	r5, #1
 806:.\Generated_Source\PSoC5/CapSense_CSHL.c ****         
 807:.\Generated_Source\PSoC5/CapSense_CSHL.c ****         CapSense_sensorEnableMask[pos] &= (uint8)~enMask;
 566              		.loc 1 807 0
 567 0010 0849     		ldr	r1, .L47+4
 568              	.LVL61:
 569              	.L45:
 804:.\Generated_Source\PSoC5/CapSense_CSHL.c ****         pos = (rawIndex >> 3u);
 570              		.loc 1 804 0 discriminator 1
 571 0012 DA08     		lsrs	r2, r3, #3
 572              	.LVL62:
 805:.\Generated_Source\PSoC5/CapSense_CSHL.c ****         enMask = 0x01u << (rawIndex & 0x07u);
 573              		.loc 1 805 0 discriminator 1
 574 0014 03F00700 		and	r0, r3, #7
 575 0018 05FA00F0 		lsl	r0, r5, r0
 576              	.LVL63:
 577              		.loc 1 807 0 discriminator 1
 578 001c 8C5C     		ldrb	r4, [r1, r2]	@ zero_extendqisi2
 579 001e 24EA0000 		bic	r0, r4, r0
 580              	.LVL64:
 581 0022 8854     		strb	r0, [r1, r2]
 808:.\Generated_Source\PSoC5/CapSense_CSHL.c ****         rawIndex++;
 582              		.loc 1 808 0 discriminator 1
 583 0024 0133     		adds	r3, r3, #1
 584              	.LVL65:
 585 0026 DBB2     		uxtb	r3, r3
 586              	.LVL66:
 809:.\Generated_Source\PSoC5/CapSense_CSHL.c ****     }
 810:.\Generated_Source\PSoC5/CapSense_CSHL.c ****     while(rawIndex < numberOfSensors);
 587              		.loc 1 810 0 discriminator 1
 588 0028 B342     		cmp	r3, r6
 589 002a F2D3     		bcc	.L45
 811:.\Generated_Source\PSoC5/CapSense_CSHL.c ****     
 812:.\Generated_Source\PSoC5/CapSense_CSHL.c **** 
 813:.\Generated_Source\PSoC5/CapSense_CSHL.c **** }
 590              		.loc 1 813 0
 591 002c 70BC     		pop	{r4, r5, r6}
 592              	.LVL67:
 593 002e 7047     		bx	lr
 594              	.L48:
 595              		.align	2
 596              	.L47:
ARM GAS  C:\Users\Xwx47\AppData\Local\Temp\cchbaicN.s 			page 26


 597 0030 00000000 		.word	.LANCHOR2
 598 0034 00000000 		.word	CapSense_sensorEnableMask
 599              		.cfi_endproc
 600              	.LFE10:
 601              		.size	CapSense_DisableWidget, .-CapSense_DisableWidget
 602              		.section	.text.CapSense_IIR4Filter,"ax",%progbits
 603              		.align	2
 604              		.global	CapSense_IIR4Filter
 605              		.thumb
 606              		.thumb_func
 607              		.type	CapSense_IIR4Filter, %function
 608              	CapSense_IIR4Filter:
 609              	.LFB11:
 814:.\Generated_Source\PSoC5/CapSense_CSHL.c **** #if(CapSense_TOTAL_CENTROIDS_COUNT)
 815:.\Generated_Source\PSoC5/CapSense_CSHL.c ****     /*******************************************************************************
 816:.\Generated_Source\PSoC5/CapSense_CSHL.c ****     * Function Name: CapSense_FindMaximum
 817:.\Generated_Source\PSoC5/CapSense_CSHL.c ****     ********************************************************************************
 818:.\Generated_Source\PSoC5/CapSense_CSHL.c ****     *
 819:.\Generated_Source\PSoC5/CapSense_CSHL.c ****     * Summary:
 820:.\Generated_Source\PSoC5/CapSense_CSHL.c ****     *  Finds index of maximum element within defined centroid. Checks 
 821:.\Generated_Source\PSoC5/CapSense_CSHL.c ****     *  CapSense_SensorSignal[] within defined cenrtoid and 
 822:.\Generated_Source\PSoC5/CapSense_CSHL.c ****     *  returns index of maximum element. The values below finger threshold are 
 823:.\Generated_Source\PSoC5/CapSense_CSHL.c ****     *  ignored.
 824:.\Generated_Source\PSoC5/CapSense_CSHL.c ****     *  The centrod defines by offset of first element and number of elements - count.
 825:.\Generated_Source\PSoC5/CapSense_CSHL.c ****     *  The diplexed centroid requires at least consecutive two elements above
 826:.\Generated_Source\PSoC5/CapSense_CSHL.c ****     *  FingerThreshold to find index of maximum element.
 827:.\Generated_Source\PSoC5/CapSense_CSHL.c ****     * 
 828:.\Generated_Source\PSoC5/CapSense_CSHL.c ****     * Parameters:
 829:.\Generated_Source\PSoC5/CapSense_CSHL.c ****     *  offset:  Start index of cetroid in CapSense_sensorSignal[] array.
 830:.\Generated_Source\PSoC5/CapSense_CSHL.c ****     *  count:   number of elements within centroid.
 831:.\Generated_Source\PSoC5/CapSense_CSHL.c ****     *  fingerThreshold:  Finger threshould.
 832:.\Generated_Source\PSoC5/CapSense_CSHL.c ****     *  diplex:   pointer to diplex table.
 833:.\Generated_Source\PSoC5/CapSense_CSHL.c ****     * 
 834:.\Generated_Source\PSoC5/CapSense_CSHL.c ****     * Return:
 835:.\Generated_Source\PSoC5/CapSense_CSHL.c ****     *  Returns index of maximum element within defined centroid.
 836:.\Generated_Source\PSoC5/CapSense_CSHL.c ****     *  If index of maximum element doesn't find the 0xFF returns.
 837:.\Generated_Source\PSoC5/CapSense_CSHL.c ****     * 
 838:.\Generated_Source\PSoC5/CapSense_CSHL.c ****     *******************************************************************************/
 839:.\Generated_Source\PSoC5/CapSense_CSHL.c ****     #if (CapSense_IS_DIPLEX_SLIDER)
 840:.\Generated_Source\PSoC5/CapSense_CSHL.c ****         uint8 CapSense_FindMaximum(uint8 offset, uint8 count, uint8 fingerThreshold, const uint8 CY
 841:.\Generated_Source\PSoC5/CapSense_CSHL.c **** 	                                       
 842:.\Generated_Source\PSoC5/CapSense_CSHL.c ****     #else 
 843:.\Generated_Source\PSoC5/CapSense_CSHL.c ****         uint8 CapSense_FindMaximum(uint8 offset, uint8 count, uint8 fingerThreshold)
 844:.\Generated_Source\PSoC5/CapSense_CSHL.c **** 	                                       
 845:.\Generated_Source\PSoC5/CapSense_CSHL.c ****     #endif /* (CapSense_IS_DIPLEX_SLIDER) */
 846:.\Generated_Source\PSoC5/CapSense_CSHL.c ****     {
 847:.\Generated_Source\PSoC5/CapSense_CSHL.c ****         uint8 i;
 848:.\Generated_Source\PSoC5/CapSense_CSHL.c ****         #if (CapSense_IS_DIPLEX_SLIDER)        
 849:.\Generated_Source\PSoC5/CapSense_CSHL.c ****             uint8 curPos = 0u;
 850:.\Generated_Source\PSoC5/CapSense_CSHL.c ****             /* No centroid at the Start */
 851:.\Generated_Source\PSoC5/CapSense_CSHL.c ****             uint8 curCntrdSize = 0u;
 852:.\Generated_Source\PSoC5/CapSense_CSHL.c ****             uint8 curCtrdStartPos = 0xFFu;
 853:.\Generated_Source\PSoC5/CapSense_CSHL.c ****             /* The biggset centroid is zero */
 854:.\Generated_Source\PSoC5/CapSense_CSHL.c ****             uint8 biggestCtrdSize = 0u;
 855:.\Generated_Source\PSoC5/CapSense_CSHL.c ****             uint8 biggestCtrdStartPos = 0u;
 856:.\Generated_Source\PSoC5/CapSense_CSHL.c ****         #endif /* (CapSense_IS_DIPLEX_SLIDER) */
 857:.\Generated_Source\PSoC5/CapSense_CSHL.c ****         uint8 maximum = 0xFFu;
ARM GAS  C:\Users\Xwx47\AppData\Local\Temp\cchbaicN.s 			page 27


 858:.\Generated_Source\PSoC5/CapSense_CSHL.c ****         uint8 temp = 0u;
 859:.\Generated_Source\PSoC5/CapSense_CSHL.c ****         uint8 *startOfSlider = &CapSense_sensorSignal[offset]; 
 860:.\Generated_Source\PSoC5/CapSense_CSHL.c **** 
 861:.\Generated_Source\PSoC5/CapSense_CSHL.c ****         #if (CapSense_IS_DIPLEX_SLIDER)        
 862:.\Generated_Source\PSoC5/CapSense_CSHL.c ****             if(diplex != 0u)
 863:.\Generated_Source\PSoC5/CapSense_CSHL.c ****             {
 864:.\Generated_Source\PSoC5/CapSense_CSHL.c ****                 /* Initialize */
 865:.\Generated_Source\PSoC5/CapSense_CSHL.c ****                 i = 0u;
 866:.\Generated_Source\PSoC5/CapSense_CSHL.c ****                 
 867:.\Generated_Source\PSoC5/CapSense_CSHL.c ****                 /* Make slider x2 as Diplexed */
 868:.\Generated_Source\PSoC5/CapSense_CSHL.c ****                 count <<= 1u;
 869:.\Generated_Source\PSoC5/CapSense_CSHL.c ****                 while(1u)
 870:.\Generated_Source\PSoC5/CapSense_CSHL.c ****                 { 
 871:.\Generated_Source\PSoC5/CapSense_CSHL.c ****                     if (startOfSlider[curPos] > 0u)    /* Looking for centroids */
 872:.\Generated_Source\PSoC5/CapSense_CSHL.c ****                     {
 873:.\Generated_Source\PSoC5/CapSense_CSHL.c ****                         if (curCtrdStartPos == 0xFFu)
 874:.\Generated_Source\PSoC5/CapSense_CSHL.c ****                         {
 875:.\Generated_Source\PSoC5/CapSense_CSHL.c ****                             /* Start of centroid */
 876:.\Generated_Source\PSoC5/CapSense_CSHL.c ****                             curCtrdStartPos = i;
 877:.\Generated_Source\PSoC5/CapSense_CSHL.c ****                             curCntrdSize++;
 878:.\Generated_Source\PSoC5/CapSense_CSHL.c ****                         }
 879:.\Generated_Source\PSoC5/CapSense_CSHL.c ****                         else
 880:.\Generated_Source\PSoC5/CapSense_CSHL.c ****                         {
 881:.\Generated_Source\PSoC5/CapSense_CSHL.c ****                             curCntrdSize++;
 882:.\Generated_Source\PSoC5/CapSense_CSHL.c ****                         }
 883:.\Generated_Source\PSoC5/CapSense_CSHL.c ****                     }
 884:.\Generated_Source\PSoC5/CapSense_CSHL.c ****                     else   /* Select the bigest and indicate zero start */
 885:.\Generated_Source\PSoC5/CapSense_CSHL.c ****                     {          
 886:.\Generated_Source\PSoC5/CapSense_CSHL.c ****                         if(curCntrdSize > 0u)
 887:.\Generated_Source\PSoC5/CapSense_CSHL.c ****                         {
 888:.\Generated_Source\PSoC5/CapSense_CSHL.c ****                             /* We are in the end of current */
 889:.\Generated_Source\PSoC5/CapSense_CSHL.c ****                             if(curCntrdSize > biggestCtrdSize)
 890:.\Generated_Source\PSoC5/CapSense_CSHL.c ****                             {
 891:.\Generated_Source\PSoC5/CapSense_CSHL.c ****                                 biggestCtrdSize = curCntrdSize;
 892:.\Generated_Source\PSoC5/CapSense_CSHL.c ****                                 biggestCtrdStartPos = curCtrdStartPos;
 893:.\Generated_Source\PSoC5/CapSense_CSHL.c ****                             }
 894:.\Generated_Source\PSoC5/CapSense_CSHL.c ****                             
 895:.\Generated_Source\PSoC5/CapSense_CSHL.c ****                             curCntrdSize = 0u;
 896:.\Generated_Source\PSoC5/CapSense_CSHL.c ****                             curCtrdStartPos = 0xFFu;
 897:.\Generated_Source\PSoC5/CapSense_CSHL.c ****                         }
 898:.\Generated_Source\PSoC5/CapSense_CSHL.c ****                     }
 899:.\Generated_Source\PSoC5/CapSense_CSHL.c ****                     
 900:.\Generated_Source\PSoC5/CapSense_CSHL.c ****                     i++; 
 901:.\Generated_Source\PSoC5/CapSense_CSHL.c ****                     curPos = diplex[i];
 902:.\Generated_Source\PSoC5/CapSense_CSHL.c ****                     if(i == count)
 903:.\Generated_Source\PSoC5/CapSense_CSHL.c ****                     {
 904:.\Generated_Source\PSoC5/CapSense_CSHL.c ****                         break;
 905:.\Generated_Source\PSoC5/CapSense_CSHL.c ****                     }            
 906:.\Generated_Source\PSoC5/CapSense_CSHL.c ****                 }
 907:.\Generated_Source\PSoC5/CapSense_CSHL.c ****                     
 908:.\Generated_Source\PSoC5/CapSense_CSHL.c ****                     /* Find the biggest centroid if two are the same size, last one wins
 909:.\Generated_Source\PSoC5/CapSense_CSHL.c ****                        We are in the end of current */
 910:.\Generated_Source\PSoC5/CapSense_CSHL.c ****                 if (curCntrdSize >= biggestCtrdSize) 
 911:.\Generated_Source\PSoC5/CapSense_CSHL.c ****                 {
 912:.\Generated_Source\PSoC5/CapSense_CSHL.c ****                     biggestCtrdSize = curCntrdSize;
 913:.\Generated_Source\PSoC5/CapSense_CSHL.c ****                     biggestCtrdStartPos = curCtrdStartPos;
 914:.\Generated_Source\PSoC5/CapSense_CSHL.c ****                 }
ARM GAS  C:\Users\Xwx47\AppData\Local\Temp\cchbaicN.s 			page 28


 915:.\Generated_Source\PSoC5/CapSense_CSHL.c ****             }
 916:.\Generated_Source\PSoC5/CapSense_CSHL.c ****             else
 917:.\Generated_Source\PSoC5/CapSense_CSHL.c ****             {
 918:.\Generated_Source\PSoC5/CapSense_CSHL.c ****                 /* Without diplexing */ 
 919:.\Generated_Source\PSoC5/CapSense_CSHL.c ****                 biggestCtrdSize = count;
 920:.\Generated_Source\PSoC5/CapSense_CSHL.c ****             }
 921:.\Generated_Source\PSoC5/CapSense_CSHL.c ****                         
 922:.\Generated_Source\PSoC5/CapSense_CSHL.c **** 
 923:.\Generated_Source\PSoC5/CapSense_CSHL.c ****             /* Check centroid size */
 924:.\Generated_Source\PSoC5/CapSense_CSHL.c ****             #if (CapSense_IS_NON_DIPLEX_SLIDER)
 925:.\Generated_Source\PSoC5/CapSense_CSHL.c ****                 if((biggestCtrdSize >= 2u) || ((biggestCtrdSize == 1u) && (diplex == 0u)))
 926:.\Generated_Source\PSoC5/CapSense_CSHL.c ****             #else                    
 927:.\Generated_Source\PSoC5/CapSense_CSHL.c ****                 if(biggestCtrdSize >= 2u)
 928:.\Generated_Source\PSoC5/CapSense_CSHL.c ****             #endif /* (CapSense_IS_NON_DIPLEX_SLIDER) */
 929:.\Generated_Source\PSoC5/CapSense_CSHL.c ****                 {
 930:.\Generated_Source\PSoC5/CapSense_CSHL.c ****                     for (i = biggestCtrdStartPos; i < (biggestCtrdStartPos + biggestCtrdSize); i++)
 931:.\Generated_Source\PSoC5/CapSense_CSHL.c ****                     {
 932:.\Generated_Source\PSoC5/CapSense_CSHL.c ****                         #if (CapSense_IS_DIPLEX_SLIDER && CapSense_IS_NON_DIPLEX_SLIDER)
 933:.\Generated_Source\PSoC5/CapSense_CSHL.c ****                             if (diplex == 0u)
 934:.\Generated_Source\PSoC5/CapSense_CSHL.c ****                             {
 935:.\Generated_Source\PSoC5/CapSense_CSHL.c ****                                 curPos = i;
 936:.\Generated_Source\PSoC5/CapSense_CSHL.c ****                             }
 937:.\Generated_Source\PSoC5/CapSense_CSHL.c ****                             else
 938:.\Generated_Source\PSoC5/CapSense_CSHL.c ****                             {
 939:.\Generated_Source\PSoC5/CapSense_CSHL.c ****                                 curPos = diplex[i];
 940:.\Generated_Source\PSoC5/CapSense_CSHL.c ****                             }                    
 941:.\Generated_Source\PSoC5/CapSense_CSHL.c ****                         #elif (CapSense_IS_DIPLEX_SLIDER)                    
 942:.\Generated_Source\PSoC5/CapSense_CSHL.c ****                             curPos = diplex[i];                    
 943:.\Generated_Source\PSoC5/CapSense_CSHL.c ****                         #endif /* (CapSense_IS_DIPLEX_SLIDER && CapSense_IS_NON_DIPLEX_SLIDER) */
 944:.\Generated_Source\PSoC5/CapSense_CSHL.c ****                         /* Looking for the grater element within centroid */
 945:.\Generated_Source\PSoC5/CapSense_CSHL.c ****                         if(startOfSlider[curPos] > fingerThreshold)
 946:.\Generated_Source\PSoC5/CapSense_CSHL.c ****                         {
 947:.\Generated_Source\PSoC5/CapSense_CSHL.c ****                             if(startOfSlider[curPos] > temp)
 948:.\Generated_Source\PSoC5/CapSense_CSHL.c ****                             {
 949:.\Generated_Source\PSoC5/CapSense_CSHL.c ****                                 maximum = i;
 950:.\Generated_Source\PSoC5/CapSense_CSHL.c ****                                 temp = startOfSlider[curPos];
 951:.\Generated_Source\PSoC5/CapSense_CSHL.c ****                             }
 952:.\Generated_Source\PSoC5/CapSense_CSHL.c ****                         }
 953:.\Generated_Source\PSoC5/CapSense_CSHL.c ****                     }
 954:.\Generated_Source\PSoC5/CapSense_CSHL.c ****                 } 
 955:.\Generated_Source\PSoC5/CapSense_CSHL.c ****         #else
 956:.\Generated_Source\PSoC5/CapSense_CSHL.c ****             for (i = 0u; i < count; i++)
 957:.\Generated_Source\PSoC5/CapSense_CSHL.c ****             {                      
 958:.\Generated_Source\PSoC5/CapSense_CSHL.c ****                 /* Looking for the grater element within centroid */
 959:.\Generated_Source\PSoC5/CapSense_CSHL.c ****                 if(startOfSlider[i] > fingerThreshold)
 960:.\Generated_Source\PSoC5/CapSense_CSHL.c ****                 {
 961:.\Generated_Source\PSoC5/CapSense_CSHL.c ****                     if(startOfSlider[i] > temp)
 962:.\Generated_Source\PSoC5/CapSense_CSHL.c ****                     {
 963:.\Generated_Source\PSoC5/CapSense_CSHL.c ****                         maximum = i;
 964:.\Generated_Source\PSoC5/CapSense_CSHL.c ****                         temp = startOfSlider[i];
 965:.\Generated_Source\PSoC5/CapSense_CSHL.c ****                     }
 966:.\Generated_Source\PSoC5/CapSense_CSHL.c ****                 }
 967:.\Generated_Source\PSoC5/CapSense_CSHL.c ****             }    
 968:.\Generated_Source\PSoC5/CapSense_CSHL.c ****         #endif /* (CapSense_IS_DIPLEX_SLIDER) */
 969:.\Generated_Source\PSoC5/CapSense_CSHL.c ****         return (maximum);
 970:.\Generated_Source\PSoC5/CapSense_CSHL.c ****     }
 971:.\Generated_Source\PSoC5/CapSense_CSHL.c ****     
ARM GAS  C:\Users\Xwx47\AppData\Local\Temp\cchbaicN.s 			page 29


 972:.\Generated_Source\PSoC5/CapSense_CSHL.c ****     
 973:.\Generated_Source\PSoC5/CapSense_CSHL.c ****     /*******************************************************************************
 974:.\Generated_Source\PSoC5/CapSense_CSHL.c ****     * Function Name: CapSense_CalcCentroid
 975:.\Generated_Source\PSoC5/CapSense_CSHL.c ****     ********************************************************************************
 976:.\Generated_Source\PSoC5/CapSense_CSHL.c ****     *
 977:.\Generated_Source\PSoC5/CapSense_CSHL.c ****     * Summary:
 978:.\Generated_Source\PSoC5/CapSense_CSHL.c ****     *  Returns position value calculated accoring index of maximum element and API
 979:.\Generated_Source\PSoC5/CapSense_CSHL.c ****     *  resolution.
 980:.\Generated_Source\PSoC5/CapSense_CSHL.c ****     *
 981:.\Generated_Source\PSoC5/CapSense_CSHL.c ****     * Parameters:
 982:.\Generated_Source\PSoC5/CapSense_CSHL.c ****     *  type:  widget type.
 983:.\Generated_Source\PSoC5/CapSense_CSHL.c ****     *  diplex:  pointer to diplex table.
 984:.\Generated_Source\PSoC5/CapSense_CSHL.c ****     *  maximum:  Index of maximum element within centroid.
 985:.\Generated_Source\PSoC5/CapSense_CSHL.c ****     *  offset:   Start index of cetroid in CapSense_SensorSignal[] array.
 986:.\Generated_Source\PSoC5/CapSense_CSHL.c ****     *  count:    Number of elements within centroid.
 987:.\Generated_Source\PSoC5/CapSense_CSHL.c ****     *  resolution:  multiplicator calculated according to centroid type and
 988:.\Generated_Source\PSoC5/CapSense_CSHL.c ****     *  API resolution.
 989:.\Generated_Source\PSoC5/CapSense_CSHL.c ****     *  noiseThreshold:  Noise threshould.
 990:.\Generated_Source\PSoC5/CapSense_CSHL.c ****     * 
 991:.\Generated_Source\PSoC5/CapSense_CSHL.c ****     * Return:
 992:.\Generated_Source\PSoC5/CapSense_CSHL.c ****     *  Returns position value of the slider.
 993:.\Generated_Source\PSoC5/CapSense_CSHL.c ****     * 
 994:.\Generated_Source\PSoC5/CapSense_CSHL.c ****     *
 995:.\Generated_Source\PSoC5/CapSense_CSHL.c ****     * Reentrant:
 996:.\Generated_Source\PSoC5/CapSense_CSHL.c ****     *  No.
 997:.\Generated_Source\PSoC5/CapSense_CSHL.c ****     *
 998:.\Generated_Source\PSoC5/CapSense_CSHL.c ****     *******************************************************************************/
 999:.\Generated_Source\PSoC5/CapSense_CSHL.c ****     uint8 CapSense_CalcCentroid(uint8 maximum, uint8 offset, 
1000:.\Generated_Source\PSoC5/CapSense_CSHL.c ****                                         uint8 count, uint16 resolution, uint8 noiseThreshold)
1001:.\Generated_Source\PSoC5/CapSense_CSHL.c **** 	                                    
1002:.\Generated_Source\PSoC5/CapSense_CSHL.c ****     {
1003:.\Generated_Source\PSoC5/CapSense_CSHL.c ****         #if ((CapSense_TOTAL_LINEAR_SLIDERS_COUNT > 0u) || (CapSense_TOTAL_TOUCH_PADS_COUNT > 0u))
1004:.\Generated_Source\PSoC5/CapSense_CSHL.c ****             uint8 posPrev = 0u;
1005:.\Generated_Source\PSoC5/CapSense_CSHL.c ****             uint8 posNext = 0u;
1006:.\Generated_Source\PSoC5/CapSense_CSHL.c ****         #endif /* ((CapSense_TOTAL_LINEAR_SLIDERS_COUNT>0u) || (CapSense_TOTAL_TOUCH_PADS_COUNT>0u)
1007:.\Generated_Source\PSoC5/CapSense_CSHL.c ****                
1008:.\Generated_Source\PSoC5/CapSense_CSHL.c ****         #if (CapSense_IS_DIPLEX_SLIDER)                
1009:.\Generated_Source\PSoC5/CapSense_CSHL.c ****             uint8 pos;
1010:.\Generated_Source\PSoC5/CapSense_CSHL.c ****         #endif /* (CapSense_IS_DIPLEX_SLIDER) */
1011:.\Generated_Source\PSoC5/CapSense_CSHL.c ****         
1012:.\Generated_Source\PSoC5/CapSense_CSHL.c ****         /* Helps while centroid calulation */
1013:.\Generated_Source\PSoC5/CapSense_CSHL.c ****         static uint8 CapSense_centroid[3u];
1014:.\Generated_Source\PSoC5/CapSense_CSHL.c **** 
1015:.\Generated_Source\PSoC5/CapSense_CSHL.c ****         uint8 position;
1016:.\Generated_Source\PSoC5/CapSense_CSHL.c ****         uint32 numerator;
1017:.\Generated_Source\PSoC5/CapSense_CSHL.c ****         int32 denominator;
1018:.\Generated_Source\PSoC5/CapSense_CSHL.c ****         uint8 *startOfSlider = &CapSense_sensorSignal[offset];
1019:.\Generated_Source\PSoC5/CapSense_CSHL.c ****                     
1020:.\Generated_Source\PSoC5/CapSense_CSHL.c ****         #if (CapSense_ADD_SLIDER_TYPE)
1021:.\Generated_Source\PSoC5/CapSense_CSHL.c ****             if(type == CapSense_TYPE_RADIAL_SLIDER)
1022:.\Generated_Source\PSoC5/CapSense_CSHL.c ****             {
1023:.\Generated_Source\PSoC5/CapSense_CSHL.c ****         #endif /* (CapSense_ADD_SLIDER_TYPE) */
1024:.\Generated_Source\PSoC5/CapSense_CSHL.c **** 
1025:.\Generated_Source\PSoC5/CapSense_CSHL.c ****             #if (CapSense_TOTAL_RADIAL_SLIDERS_COUNT > 0u)                
1026:.\Generated_Source\PSoC5/CapSense_CSHL.c ****                 /* Copy Signal for found centriod */
1027:.\Generated_Source\PSoC5/CapSense_CSHL.c ****                 CapSense_centroid[CapSense_POS] = startOfSlider[maximum];
1028:.\Generated_Source\PSoC5/CapSense_CSHL.c ****                  
ARM GAS  C:\Users\Xwx47\AppData\Local\Temp\cchbaicN.s 			page 30


1029:.\Generated_Source\PSoC5/CapSense_CSHL.c ****                 /* Check borders for ROTARY Slider */
1030:.\Generated_Source\PSoC5/CapSense_CSHL.c ****                 if (maximum == 0u)                   /* Start of centroid */
1031:.\Generated_Source\PSoC5/CapSense_CSHL.c ****                 { 
1032:.\Generated_Source\PSoC5/CapSense_CSHL.c ****                     CapSense_centroid[CapSense_POS_PREV] = startOfSlider[count - 1u];
1033:.\Generated_Source\PSoC5/CapSense_CSHL.c ****                     CapSense_centroid[CapSense_POS_NEXT] = startOfSlider[1u];
1034:.\Generated_Source\PSoC5/CapSense_CSHL.c ****                 }
1035:.\Generated_Source\PSoC5/CapSense_CSHL.c ****                 else if (maximum == (count - 1u))    /* End of centroid */
1036:.\Generated_Source\PSoC5/CapSense_CSHL.c ****                 {
1037:.\Generated_Source\PSoC5/CapSense_CSHL.c ****                     CapSense_centroid[CapSense_POS_PREV] = startOfSlider[maximum - 1u];
1038:.\Generated_Source\PSoC5/CapSense_CSHL.c ****                     CapSense_centroid[CapSense_POS_NEXT] = startOfSlider[0u];
1039:.\Generated_Source\PSoC5/CapSense_CSHL.c ****                 }
1040:.\Generated_Source\PSoC5/CapSense_CSHL.c ****                 else                                /* Not first Not last */
1041:.\Generated_Source\PSoC5/CapSense_CSHL.c ****                 {
1042:.\Generated_Source\PSoC5/CapSense_CSHL.c ****                     CapSense_centroid[CapSense_POS_PREV] = startOfSlider[maximum - 1u];
1043:.\Generated_Source\PSoC5/CapSense_CSHL.c ****                     CapSense_centroid[CapSense_POS_NEXT] = startOfSlider[maximum + 1u];
1044:.\Generated_Source\PSoC5/CapSense_CSHL.c ****                 }
1045:.\Generated_Source\PSoC5/CapSense_CSHL.c ****             #endif /* (CapSense_TOTAL_RADIAL_SLIDERS_COUNT > 0u) */
1046:.\Generated_Source\PSoC5/CapSense_CSHL.c **** 
1047:.\Generated_Source\PSoC5/CapSense_CSHL.c ****         #if (CapSense_ADD_SLIDER_TYPE)
1048:.\Generated_Source\PSoC5/CapSense_CSHL.c ****             }
1049:.\Generated_Source\PSoC5/CapSense_CSHL.c ****             else
1050:.\Generated_Source\PSoC5/CapSense_CSHL.c ****             {
1051:.\Generated_Source\PSoC5/CapSense_CSHL.c ****         #endif /* (CapSense_ADD_SLIDER_TYPE) */
1052:.\Generated_Source\PSoC5/CapSense_CSHL.c **** 
1053:.\Generated_Source\PSoC5/CapSense_CSHL.c ****             #if ((CapSense_TOTAL_LINEAR_SLIDERS_COUNT > 0u) || (CapSense_TOTAL_TOUCH_PADS_COUNT > 0
1054:.\Generated_Source\PSoC5/CapSense_CSHL.c ****                 #if (CapSense_IS_DIPLEX_SLIDER && CapSense_IS_NON_DIPLEX_SLIDER)                   
1055:.\Generated_Source\PSoC5/CapSense_CSHL.c ****                     /* Calculate next and previous near to maximum */
1056:.\Generated_Source\PSoC5/CapSense_CSHL.c ****                     if(diplex == 0u)
1057:.\Generated_Source\PSoC5/CapSense_CSHL.c ****                     {
1058:.\Generated_Source\PSoC5/CapSense_CSHL.c ****                         pos     = maximum;
1059:.\Generated_Source\PSoC5/CapSense_CSHL.c ****                         posPrev = maximum - 1u;
1060:.\Generated_Source\PSoC5/CapSense_CSHL.c ****                         posNext = maximum + 1u; 
1061:.\Generated_Source\PSoC5/CapSense_CSHL.c ****                     }
1062:.\Generated_Source\PSoC5/CapSense_CSHL.c ****                     else
1063:.\Generated_Source\PSoC5/CapSense_CSHL.c ****                     {
1064:.\Generated_Source\PSoC5/CapSense_CSHL.c ****                         pos     = diplex[maximum];
1065:.\Generated_Source\PSoC5/CapSense_CSHL.c ****                         posPrev = diplex[maximum - 1u];
1066:.\Generated_Source\PSoC5/CapSense_CSHL.c ****                         posNext = diplex[maximum + 1u];
1067:.\Generated_Source\PSoC5/CapSense_CSHL.c ****                         count <<= 1u;
1068:.\Generated_Source\PSoC5/CapSense_CSHL.c ****                     }                    
1069:.\Generated_Source\PSoC5/CapSense_CSHL.c ****                 #elif (CapSense_IS_DIPLEX_SLIDER)
1070:.\Generated_Source\PSoC5/CapSense_CSHL.c ****                     /* Calculate next and previous near to maximum */
1071:.\Generated_Source\PSoC5/CapSense_CSHL.c ****                     pos     = diplex[maximum];
1072:.\Generated_Source\PSoC5/CapSense_CSHL.c ****                     posPrev = diplex[maximum - 1u];
1073:.\Generated_Source\PSoC5/CapSense_CSHL.c ****                     posNext = diplex[maximum + 1u];
1074:.\Generated_Source\PSoC5/CapSense_CSHL.c ****                     count <<= 1u;                    
1075:.\Generated_Source\PSoC5/CapSense_CSHL.c ****                 #else                    
1076:.\Generated_Source\PSoC5/CapSense_CSHL.c ****                     /* Calculate next and previous near to maximum */
1077:.\Generated_Source\PSoC5/CapSense_CSHL.c ****                     if (maximum >= 1u)
1078:.\Generated_Source\PSoC5/CapSense_CSHL.c ****                     {
1079:.\Generated_Source\PSoC5/CapSense_CSHL.c ****                         posPrev = maximum - 1u;
1080:.\Generated_Source\PSoC5/CapSense_CSHL.c ****                     }
1081:.\Generated_Source\PSoC5/CapSense_CSHL.c ****                     posNext = maximum + 1u; 
1082:.\Generated_Source\PSoC5/CapSense_CSHL.c ****                 #endif /* (CapSense_IS_DIPLEX_SLIDER && CapSense_IS_NON_DIPLEX_SLIDER) */
1083:.\Generated_Source\PSoC5/CapSense_CSHL.c ****                         
1084:.\Generated_Source\PSoC5/CapSense_CSHL.c ****                 /* Copy Signal for found centriod */
1085:.\Generated_Source\PSoC5/CapSense_CSHL.c ****                 #if (CapSense_IS_DIPLEX_SLIDER)
ARM GAS  C:\Users\Xwx47\AppData\Local\Temp\cchbaicN.s 			page 31


1086:.\Generated_Source\PSoC5/CapSense_CSHL.c ****                     CapSense_centroid[CapSense_POS] = startOfSlider[pos];
1087:.\Generated_Source\PSoC5/CapSense_CSHL.c ****                 #else
1088:.\Generated_Source\PSoC5/CapSense_CSHL.c ****                     CapSense_centroid[CapSense_POS] = startOfSlider[maximum];
1089:.\Generated_Source\PSoC5/CapSense_CSHL.c ****                 #endif /* (CapSense_IS_DIPLEX_SLIDER) */
1090:.\Generated_Source\PSoC5/CapSense_CSHL.c ****                     
1091:.\Generated_Source\PSoC5/CapSense_CSHL.c ****                 /* Check borders for LINEAR Slider */
1092:.\Generated_Source\PSoC5/CapSense_CSHL.c ****                 if (maximum == 0u)                   /* Start of centroid */
1093:.\Generated_Source\PSoC5/CapSense_CSHL.c ****                 { 
1094:.\Generated_Source\PSoC5/CapSense_CSHL.c ****                     CapSense_centroid[CapSense_POS_PREV] = 0u;
1095:.\Generated_Source\PSoC5/CapSense_CSHL.c ****                     CapSense_centroid[CapSense_POS_NEXT] = startOfSlider[posNext];
1096:.\Generated_Source\PSoC5/CapSense_CSHL.c ****                 }
1097:.\Generated_Source\PSoC5/CapSense_CSHL.c ****                 else if (maximum == ((count) - 1u)) /* End of centroid */
1098:.\Generated_Source\PSoC5/CapSense_CSHL.c ****                 {
1099:.\Generated_Source\PSoC5/CapSense_CSHL.c ****                     CapSense_centroid[CapSense_POS_PREV] = startOfSlider[posPrev];
1100:.\Generated_Source\PSoC5/CapSense_CSHL.c ****                     CapSense_centroid[CapSense_POS_NEXT] = 0u;
1101:.\Generated_Source\PSoC5/CapSense_CSHL.c ****                 }
1102:.\Generated_Source\PSoC5/CapSense_CSHL.c ****                 else                                /* Not first Not last */
1103:.\Generated_Source\PSoC5/CapSense_CSHL.c ****                 {
1104:.\Generated_Source\PSoC5/CapSense_CSHL.c ****                     CapSense_centroid[CapSense_POS_PREV] = startOfSlider[posPrev];
1105:.\Generated_Source\PSoC5/CapSense_CSHL.c ****                     CapSense_centroid[CapSense_POS_NEXT] = startOfSlider[posNext];
1106:.\Generated_Source\PSoC5/CapSense_CSHL.c ****                 }
1107:.\Generated_Source\PSoC5/CapSense_CSHL.c ****             #endif /* ((CapSense_TOTAL_LINEAR_SLIDERS_COUNT>0u)||(CapSense_TOTAL_TOUCH_PADS_COUNT>0
1108:.\Generated_Source\PSoC5/CapSense_CSHL.c **** 
1109:.\Generated_Source\PSoC5/CapSense_CSHL.c ****         #if (CapSense_ADD_SLIDER_TYPE)
1110:.\Generated_Source\PSoC5/CapSense_CSHL.c ****             }
1111:.\Generated_Source\PSoC5/CapSense_CSHL.c ****         #endif /* (CapSense_ADD_SLIDER_TYPE) */
1112:.\Generated_Source\PSoC5/CapSense_CSHL.c ****     
1113:.\Generated_Source\PSoC5/CapSense_CSHL.c ****         /* Subtract noiseThreshold */
1114:.\Generated_Source\PSoC5/CapSense_CSHL.c ****         if(CapSense_centroid[CapSense_POS_PREV] > noiseThreshold)
1115:.\Generated_Source\PSoC5/CapSense_CSHL.c ****         {
1116:.\Generated_Source\PSoC5/CapSense_CSHL.c ****             CapSense_centroid[CapSense_POS_PREV] -= noiseThreshold;
1117:.\Generated_Source\PSoC5/CapSense_CSHL.c ****         }
1118:.\Generated_Source\PSoC5/CapSense_CSHL.c ****         else
1119:.\Generated_Source\PSoC5/CapSense_CSHL.c ****         {
1120:.\Generated_Source\PSoC5/CapSense_CSHL.c ****             CapSense_centroid[CapSense_POS_PREV] = 0u;
1121:.\Generated_Source\PSoC5/CapSense_CSHL.c ****         }
1122:.\Generated_Source\PSoC5/CapSense_CSHL.c ****         
1123:.\Generated_Source\PSoC5/CapSense_CSHL.c ****         /* Maximum always grater than fingerThreshold, so grate than noiseThreshold */
1124:.\Generated_Source\PSoC5/CapSense_CSHL.c ****         CapSense_centroid[CapSense_POS] -= noiseThreshold;
1125:.\Generated_Source\PSoC5/CapSense_CSHL.c ****         
1126:.\Generated_Source\PSoC5/CapSense_CSHL.c ****         /* Subtract noiseThreshold */
1127:.\Generated_Source\PSoC5/CapSense_CSHL.c ****         if(CapSense_centroid[CapSense_POS_NEXT] > noiseThreshold)
1128:.\Generated_Source\PSoC5/CapSense_CSHL.c ****         {
1129:.\Generated_Source\PSoC5/CapSense_CSHL.c ****             CapSense_centroid[CapSense_POS_NEXT] -= noiseThreshold;
1130:.\Generated_Source\PSoC5/CapSense_CSHL.c ****         }
1131:.\Generated_Source\PSoC5/CapSense_CSHL.c ****         else
1132:.\Generated_Source\PSoC5/CapSense_CSHL.c ****         {
1133:.\Generated_Source\PSoC5/CapSense_CSHL.c ****             CapSense_centroid[CapSense_POS_NEXT] = 0u;
1134:.\Generated_Source\PSoC5/CapSense_CSHL.c ****         }
1135:.\Generated_Source\PSoC5/CapSense_CSHL.c ****         
1136:.\Generated_Source\PSoC5/CapSense_CSHL.c ****         
1137:.\Generated_Source\PSoC5/CapSense_CSHL.c ****         /* Si+1 - Si-1 */
1138:.\Generated_Source\PSoC5/CapSense_CSHL.c ****         numerator = (uint32) CapSense_centroid[CapSense_POS_NEXT] -
1139:.\Generated_Source\PSoC5/CapSense_CSHL.c ****                     (uint32) CapSense_centroid[CapSense_POS_PREV];
1140:.\Generated_Source\PSoC5/CapSense_CSHL.c **** 
1141:.\Generated_Source\PSoC5/CapSense_CSHL.c ****         /* Si+1 + Si + Si-1 */
1142:.\Generated_Source\PSoC5/CapSense_CSHL.c ****         denominator = (int32) CapSense_centroid[CapSense_POS_PREV] + 
ARM GAS  C:\Users\Xwx47\AppData\Local\Temp\cchbaicN.s 			page 32


1143:.\Generated_Source\PSoC5/CapSense_CSHL.c ****                       (int32) CapSense_centroid[CapSense_POS] + 
1144:.\Generated_Source\PSoC5/CapSense_CSHL.c ****                       (int32) CapSense_centroid[CapSense_POS_NEXT];
1145:.\Generated_Source\PSoC5/CapSense_CSHL.c ****         
1146:.\Generated_Source\PSoC5/CapSense_CSHL.c ****         /* (numerator/denominator) + maximum */
1147:.\Generated_Source\PSoC5/CapSense_CSHL.c ****         denominator = (((int32)(uint32)((uint32)numerator << 8u)/denominator) + (int32)(uint32)((ui
1148:.\Generated_Source\PSoC5/CapSense_CSHL.c **** 
1149:.\Generated_Source\PSoC5/CapSense_CSHL.c ****         #if(CapSense_TOTAL_RADIAL_SLIDERS_COUNT > 0u)
1150:.\Generated_Source\PSoC5/CapSense_CSHL.c ****             /* Only required for RADIAL Slider */
1151:.\Generated_Source\PSoC5/CapSense_CSHL.c ****             if(denominator < 0)
1152:.\Generated_Source\PSoC5/CapSense_CSHL.c ****             {
1153:.\Generated_Source\PSoC5/CapSense_CSHL.c ****                 denominator += (int32)((uint16)((uint16) count << 8u));
1154:.\Generated_Source\PSoC5/CapSense_CSHL.c ****             }
1155:.\Generated_Source\PSoC5/CapSense_CSHL.c ****         #endif /* (CapSense_TOTAL_RADIAL_SLIDERS_COUNT > 0u) */
1156:.\Generated_Source\PSoC5/CapSense_CSHL.c **** 
1157:.\Generated_Source\PSoC5/CapSense_CSHL.c ****         denominator *= (int16)resolution;
1158:.\Generated_Source\PSoC5/CapSense_CSHL.c **** 
1159:.\Generated_Source\PSoC5/CapSense_CSHL.c ****         /* Round the relust and put it to uint8 */
1160:.\Generated_Source\PSoC5/CapSense_CSHL.c ****         position = ((uint8) HI16((uint32)denominator + CapSense_CENTROID_ROUND_VALUE));
1161:.\Generated_Source\PSoC5/CapSense_CSHL.c **** 
1162:.\Generated_Source\PSoC5/CapSense_CSHL.c ****         return (position);
1163:.\Generated_Source\PSoC5/CapSense_CSHL.c ****     }    
1164:.\Generated_Source\PSoC5/CapSense_CSHL.c **** #endif /* (CapSense_TOTAL_CENTROIDS_COUNT) */
1165:.\Generated_Source\PSoC5/CapSense_CSHL.c **** 
1166:.\Generated_Source\PSoC5/CapSense_CSHL.c **** 
1167:.\Generated_Source\PSoC5/CapSense_CSHL.c **** #if(CapSense_TOTAL_LINEAR_SLIDERS_COUNT > 0u)
1168:.\Generated_Source\PSoC5/CapSense_CSHL.c ****     /*******************************************************************************
1169:.\Generated_Source\PSoC5/CapSense_CSHL.c ****     * Function Name: CapSense_GetCentroidPos
1170:.\Generated_Source\PSoC5/CapSense_CSHL.c ****     ********************************************************************************
1171:.\Generated_Source\PSoC5/CapSense_CSHL.c ****     *
1172:.\Generated_Source\PSoC5/CapSense_CSHL.c ****     * Summary:
1173:.\Generated_Source\PSoC5/CapSense_CSHL.c ****     *  Checks the CapSense_Signal[ ] array for a centroid within
1174:.\Generated_Source\PSoC5/CapSense_CSHL.c ****     *  slider specified range. The centroid position is calculated to the resolution
1175:.\Generated_Source\PSoC5/CapSense_CSHL.c ****     *  specified in the CapSense customizer. The position filters are applied to the
1176:.\Generated_Source\PSoC5/CapSense_CSHL.c ****     *  result if enabled.
1177:.\Generated_Source\PSoC5/CapSense_CSHL.c ****     *
1178:.\Generated_Source\PSoC5/CapSense_CSHL.c ****     * Parameters:
1179:.\Generated_Source\PSoC5/CapSense_CSHL.c ****     *  widget:  Widget number.
1180:.\Generated_Source\PSoC5/CapSense_CSHL.c ****     *  For every linear slider widget there are defines in this format:
1181:.\Generated_Source\PSoC5/CapSense_CSHL.c ****     *  #define CapSense_LS__"widget_name"            5
1182:.\Generated_Source\PSoC5/CapSense_CSHL.c ****     * 
1183:.\Generated_Source\PSoC5/CapSense_CSHL.c ****     * Return:
1184:.\Generated_Source\PSoC5/CapSense_CSHL.c ****     *  Returns position value of the linear slider.
1185:.\Generated_Source\PSoC5/CapSense_CSHL.c ****     *
1186:.\Generated_Source\PSoC5/CapSense_CSHL.c ****     * Side Effects:
1187:.\Generated_Source\PSoC5/CapSense_CSHL.c ****     *  If any sensor within the slider widget is active, the function returns values
1188:.\Generated_Source\PSoC5/CapSense_CSHL.c ****     *  from zero to the API resolution value set in the CapSense customizer. If no
1189:.\Generated_Source\PSoC5/CapSense_CSHL.c ****     *  sensors are active, the function returns 0xFFFF. If an error occurs during
1190:.\Generated_Source\PSoC5/CapSense_CSHL.c ****     *  execution of the centroid/diplexing algorithm, the function returns 0xFFFF.
1191:.\Generated_Source\PSoC5/CapSense_CSHL.c ****     *  There are no checks of widget type argument provided to this function.
1192:.\Generated_Source\PSoC5/CapSense_CSHL.c ****     *  The unproper widget type provided will cause unexpected position calculations.
1193:.\Generated_Source\PSoC5/CapSense_CSHL.c ****     *
1194:.\Generated_Source\PSoC5/CapSense_CSHL.c ****     * Note:
1195:.\Generated_Source\PSoC5/CapSense_CSHL.c ****     *  If noise counts on the slider segments are greater than the noise
1196:.\Generated_Source\PSoC5/CapSense_CSHL.c ****     *  threshold, this subroutine may generate a false centroid result. The noise
1197:.\Generated_Source\PSoC5/CapSense_CSHL.c ****     *  threshold should be set carefully (high enough above the noise level) so
1198:.\Generated_Source\PSoC5/CapSense_CSHL.c ****     *  that noise will not generate a false centroid.
1199:.\Generated_Source\PSoC5/CapSense_CSHL.c ****     *
ARM GAS  C:\Users\Xwx47\AppData\Local\Temp\cchbaicN.s 			page 33


1200:.\Generated_Source\PSoC5/CapSense_CSHL.c ****     * Reentrant:
1201:.\Generated_Source\PSoC5/CapSense_CSHL.c ****     *  No.
1202:.\Generated_Source\PSoC5/CapSense_CSHL.c ****     *
1203:.\Generated_Source\PSoC5/CapSense_CSHL.c ****     *******************************************************************************/
1204:.\Generated_Source\PSoC5/CapSense_CSHL.c ****     uint16 CapSense_GetCentroidPos(uint8 widget) 
1205:.\Generated_Source\PSoC5/CapSense_CSHL.c ****     {
1206:.\Generated_Source\PSoC5/CapSense_CSHL.c ****         #if (CapSense_IS_DIPLEX_SLIDER)
1207:.\Generated_Source\PSoC5/CapSense_CSHL.c ****             const uint8 CYCODE *diplex;
1208:.\Generated_Source\PSoC5/CapSense_CSHL.c ****         #endif /* (CapSense_IS_DIPLEX_SLIDER) */
1209:.\Generated_Source\PSoC5/CapSense_CSHL.c ****                 
1210:.\Generated_Source\PSoC5/CapSense_CSHL.c ****         #if (0u != CapSense_LINEAR_SLIDERS_POS_FILTERS_MASK)
1211:.\Generated_Source\PSoC5/CapSense_CSHL.c ****             uint8 posIndex;
1212:.\Generated_Source\PSoC5/CapSense_CSHL.c ****             uint8 firstTimeIndex = CapSense_posFiltersData[widget];
1213:.\Generated_Source\PSoC5/CapSense_CSHL.c ****             uint8 posFiltersMask = CapSense_posFiltersMask[widget];  
1214:.\Generated_Source\PSoC5/CapSense_CSHL.c ****         #endif /* (0u != CapSense_LINEAR_SLIDERS_POS_FILTERS_MASK) */
1215:.\Generated_Source\PSoC5/CapSense_CSHL.c **** 
1216:.\Generated_Source\PSoC5/CapSense_CSHL.c ****         #if ((0u != (CapSense_MEDIAN_FILTER & CapSense_LINEAR_SLIDERS_POS_FILTERS_MASK)) || \
1217:.\Generated_Source\PSoC5/CapSense_CSHL.c ****              (0u != (CapSense_AVERAGING_FILTER & CapSense_LINEAR_SLIDERS_POS_FILTERS_MASK)))
1218:.\Generated_Source\PSoC5/CapSense_CSHL.c ****             uint8 tempPos;
1219:.\Generated_Source\PSoC5/CapSense_CSHL.c ****         #endif /* ((0u != (CapSense_MEDIAN_FILTER & CapSense_LINEAR_SLIDERS_POS_FILTERS_MASK)) || \
1220:.\Generated_Source\PSoC5/CapSense_CSHL.c ****                *   (0u != (CapSense_AVERAGING_FILTER & CapSense_LINEAR_SLIDERS_POS_FILTERS_MASK)))
1221:.\Generated_Source\PSoC5/CapSense_CSHL.c ****                */
1222:.\Generated_Source\PSoC5/CapSense_CSHL.c **** 
1223:.\Generated_Source\PSoC5/CapSense_CSHL.c ****         uint8 maximum;
1224:.\Generated_Source\PSoC5/CapSense_CSHL.c ****         uint16 position;
1225:.\Generated_Source\PSoC5/CapSense_CSHL.c ****         uint8 offset = CapSense_rawDataIndex[widget];
1226:.\Generated_Source\PSoC5/CapSense_CSHL.c ****         uint8 count = CapSense_numberOfSensors[widget];
1227:.\Generated_Source\PSoC5/CapSense_CSHL.c ****                         
1228:.\Generated_Source\PSoC5/CapSense_CSHL.c ****         #if (CapSense_IS_DIPLEX_SLIDER)
1229:.\Generated_Source\PSoC5/CapSense_CSHL.c ****             if(widget < CapSense_TOTAL_DIPLEXED_SLIDERS_COUNT)
1230:.\Generated_Source\PSoC5/CapSense_CSHL.c ****             {
1231:.\Generated_Source\PSoC5/CapSense_CSHL.c ****                 maximum = CapSense_diplexTable[widget];
1232:.\Generated_Source\PSoC5/CapSense_CSHL.c ****                 diplex = &CapSense_diplexTable[maximum];
1233:.\Generated_Source\PSoC5/CapSense_CSHL.c ****             }
1234:.\Generated_Source\PSoC5/CapSense_CSHL.c ****             else
1235:.\Generated_Source\PSoC5/CapSense_CSHL.c ****             {
1236:.\Generated_Source\PSoC5/CapSense_CSHL.c ****                 diplex = 0u;
1237:.\Generated_Source\PSoC5/CapSense_CSHL.c ****             }
1238:.\Generated_Source\PSoC5/CapSense_CSHL.c ****         #endif /* (CapSense_IS_DIPLEX_SLIDER) */
1239:.\Generated_Source\PSoC5/CapSense_CSHL.c **** 
1240:.\Generated_Source\PSoC5/CapSense_CSHL.c ****         /* Find Maximum within centroid */      
1241:.\Generated_Source\PSoC5/CapSense_CSHL.c ****         #if (CapSense_IS_DIPLEX_SLIDER)        
1242:.\Generated_Source\PSoC5/CapSense_CSHL.c ****             maximum = CapSense_FindMaximum(offset, count, CapSense_fingerThreshold[widget], diplex)
1243:.\Generated_Source\PSoC5/CapSense_CSHL.c ****         #else
1244:.\Generated_Source\PSoC5/CapSense_CSHL.c ****             maximum = CapSense_FindMaximum(offset, count, CapSense_fingerThreshold[widget]);
1245:.\Generated_Source\PSoC5/CapSense_CSHL.c ****         #endif /* (CapSense_IS_DIPLEX_SLIDER) */
1246:.\Generated_Source\PSoC5/CapSense_CSHL.c **** 
1247:.\Generated_Source\PSoC5/CapSense_CSHL.c ****         if (maximum != 0xFFu)
1248:.\Generated_Source\PSoC5/CapSense_CSHL.c ****         {
1249:.\Generated_Source\PSoC5/CapSense_CSHL.c ****             /* Calculate centroid */
1250:.\Generated_Source\PSoC5/CapSense_CSHL.c ****             position = (uint16) CapSense_CalcCentroid(maximum, 
1251:.\Generated_Source\PSoC5/CapSense_CSHL.c ****                          offset, count, CapSense_centroidMult[widget], CapSense_noiseThreshold[widg
1252:.\Generated_Source\PSoC5/CapSense_CSHL.c **** 
1253:.\Generated_Source\PSoC5/CapSense_CSHL.c ****             #if (0u != CapSense_LINEAR_SLIDERS_POS_FILTERS_MASK)
1254:.\Generated_Source\PSoC5/CapSense_CSHL.c ****                 /* Check if this linear slider has enabled filters */
1255:.\Generated_Source\PSoC5/CapSense_CSHL.c ****                 if (0u != (posFiltersMask & CapSense_ANY_POS_FILTER))
1256:.\Generated_Source\PSoC5/CapSense_CSHL.c ****                 {
ARM GAS  C:\Users\Xwx47\AppData\Local\Temp\cchbaicN.s 			page 34


1257:.\Generated_Source\PSoC5/CapSense_CSHL.c ****                     /* Caluclate position to store filters data */
1258:.\Generated_Source\PSoC5/CapSense_CSHL.c ****                     posIndex  = firstTimeIndex + 1u;
1259:.\Generated_Source\PSoC5/CapSense_CSHL.c ****                     
1260:.\Generated_Source\PSoC5/CapSense_CSHL.c ****                     if (0u == CapSense_posFiltersData[firstTimeIndex])
1261:.\Generated_Source\PSoC5/CapSense_CSHL.c ****                     {
1262:.\Generated_Source\PSoC5/CapSense_CSHL.c ****                         /* Init filters */
1263:.\Generated_Source\PSoC5/CapSense_CSHL.c ****                         CapSense_posFiltersData[posIndex] = (uint8) position;
1264:.\Generated_Source\PSoC5/CapSense_CSHL.c ****                         #if ((0u != (CapSense_MEDIAN_FILTER & \
1265:.\Generated_Source\PSoC5/CapSense_CSHL.c ****                                      CapSense_LINEAR_SLIDERS_POS_FILTERS_MASK)) || \
1266:.\Generated_Source\PSoC5/CapSense_CSHL.c ****                              (0u != (CapSense_AVERAGING_FILTER & \
1267:.\Generated_Source\PSoC5/CapSense_CSHL.c ****                                      CapSense_LINEAR_SLIDERS_POS_FILTERS_MASK)))
1268:.\Generated_Source\PSoC5/CapSense_CSHL.c **** 
1269:.\Generated_Source\PSoC5/CapSense_CSHL.c ****                             if ( (0u != (posFiltersMask & CapSense_MEDIAN_FILTER)) || 
1270:.\Generated_Source\PSoC5/CapSense_CSHL.c ****                                  (0u != (posFiltersMask & CapSense_AVERAGING_FILTER)) )
1271:.\Generated_Source\PSoC5/CapSense_CSHL.c ****                             {
1272:.\Generated_Source\PSoC5/CapSense_CSHL.c ****                                 CapSense_posFiltersData[posIndex + 1u] = (uint8) position;
1273:.\Generated_Source\PSoC5/CapSense_CSHL.c ****                             }
1274:.\Generated_Source\PSoC5/CapSense_CSHL.c ****                         #endif /* ((0u != (CapSense_MEDIAN_FILTER & \
1275:.\Generated_Source\PSoC5/CapSense_CSHL.c ****                                *           CapSense_LINEAR_SLIDERS_POS_FILTERS_MASK)) || \
1276:.\Generated_Source\PSoC5/CapSense_CSHL.c ****                                *   (0u != (CapSense_AVERAGING_FILTER & \
1277:.\Generated_Source\PSoC5/CapSense_CSHL.c ****                                *           CapSense_LINEAR_SLIDERS_POS_FILTERS_MASK)))
1278:.\Generated_Source\PSoC5/CapSense_CSHL.c ****                                */
1279:.\Generated_Source\PSoC5/CapSense_CSHL.c ****                         
1280:.\Generated_Source\PSoC5/CapSense_CSHL.c ****                         CapSense_posFiltersData[firstTimeIndex] = 1u;
1281:.\Generated_Source\PSoC5/CapSense_CSHL.c ****                     }
1282:.\Generated_Source\PSoC5/CapSense_CSHL.c ****                     else
1283:.\Generated_Source\PSoC5/CapSense_CSHL.c ****                     {
1284:.\Generated_Source\PSoC5/CapSense_CSHL.c ****                         /* Do filtering */
1285:.\Generated_Source\PSoC5/CapSense_CSHL.c ****                         #if (0u != (CapSense_MEDIAN_FILTER & CapSense_LINEAR_SLIDERS_POS_FILTERS_MA
1286:.\Generated_Source\PSoC5/CapSense_CSHL.c ****                             if (0u != (posFiltersMask & CapSense_MEDIAN_FILTER))
1287:.\Generated_Source\PSoC5/CapSense_CSHL.c ****                             {
1288:.\Generated_Source\PSoC5/CapSense_CSHL.c ****                                 tempPos = (uint8) position;
1289:.\Generated_Source\PSoC5/CapSense_CSHL.c ****                                 position = CapSense_MedianFilter(position,
1290:.\Generated_Source\PSoC5/CapSense_CSHL.c ****                                                                 (uint16)CapSense_posFiltersData[pos
1291:.\Generated_Source\PSoC5/CapSense_CSHL.c ****                                                                 (uint16)CapSense_posFiltersData[pos
1292:.\Generated_Source\PSoC5/CapSense_CSHL.c ****                                 CapSense_posFiltersData[posIndex + 1u] =
1293:.\Generated_Source\PSoC5/CapSense_CSHL.c ****                                                                              CapSense_posFiltersDat
1294:.\Generated_Source\PSoC5/CapSense_CSHL.c ****                                 CapSense_posFiltersData[posIndex] = tempPos;
1295:.\Generated_Source\PSoC5/CapSense_CSHL.c ****                             }
1296:.\Generated_Source\PSoC5/CapSense_CSHL.c ****                         #endif /*(0u != (CapSense_MEDIAN_FILTER &
1297:.\Generated_Source\PSoC5/CapSense_CSHL.c ****                                *         CapSense_LINEAR_SLIDERS_POS_FILTERS_MASK))
1298:.\Generated_Source\PSoC5/CapSense_CSHL.c ****                                */
1299:.\Generated_Source\PSoC5/CapSense_CSHL.c **** 
1300:.\Generated_Source\PSoC5/CapSense_CSHL.c ****                         #if(0u!=(CapSense_AVERAGING_FILTER & CapSense_LINEAR_SLIDERS_POS_FILTERS_MA
1301:.\Generated_Source\PSoC5/CapSense_CSHL.c ****                             if (0u != (posFiltersMask & CapSense_AVERAGING_FILTER)) 
1302:.\Generated_Source\PSoC5/CapSense_CSHL.c ****                             {
1303:.\Generated_Source\PSoC5/CapSense_CSHL.c ****                                 tempPos = (uint8) position;
1304:.\Generated_Source\PSoC5/CapSense_CSHL.c ****                                 position = CapSense_AveragingFilter(position,
1305:.\Generated_Source\PSoC5/CapSense_CSHL.c ****                                                                 (uint16)CapSense_posFiltersData[pos
1306:.\Generated_Source\PSoC5/CapSense_CSHL.c ****                                                                 (uint16)CapSense_posFiltersData[pos
1307:.\Generated_Source\PSoC5/CapSense_CSHL.c ****                                 CapSense_posFiltersData[posIndex+1u]=CapSense_posFiltersData[posInd
1308:.\Generated_Source\PSoC5/CapSense_CSHL.c ****                                 CapSense_posFiltersData[posIndex] = tempPos;
1309:.\Generated_Source\PSoC5/CapSense_CSHL.c ****                             }
1310:.\Generated_Source\PSoC5/CapSense_CSHL.c ****                         #endif /* (0u != (CapSense_AVERAGING_FILTER & \
1311:.\Generated_Source\PSoC5/CapSense_CSHL.c ****                                *           CapSense_LINEAR_SLIDERS_POS_FILTERS_MASK))
1312:.\Generated_Source\PSoC5/CapSense_CSHL.c ****                                */
1313:.\Generated_Source\PSoC5/CapSense_CSHL.c **** 
ARM GAS  C:\Users\Xwx47\AppData\Local\Temp\cchbaicN.s 			page 35


1314:.\Generated_Source\PSoC5/CapSense_CSHL.c ****                         #if (0u != (CapSense_IIR2_FILTER & CapSense_LINEAR_SLIDERS_POS_FILTERS_MASK
1315:.\Generated_Source\PSoC5/CapSense_CSHL.c ****                             if (0u != (posFiltersMask & CapSense_IIR2_FILTER)) 
1316:.\Generated_Source\PSoC5/CapSense_CSHL.c ****                             {
1317:.\Generated_Source\PSoC5/CapSense_CSHL.c ****                                 position = CapSense_IIR2Filter(position,
1318:.\Generated_Source\PSoC5/CapSense_CSHL.c ****                                                                     (uint16)CapSense_posFiltersData
1319:.\Generated_Source\PSoC5/CapSense_CSHL.c ****                                 CapSense_posFiltersData[posIndex] = (uint8) position;
1320:.\Generated_Source\PSoC5/CapSense_CSHL.c ****                             }
1321:.\Generated_Source\PSoC5/CapSense_CSHL.c ****                         #endif /* (0u != (CapSense_IIR2_FILTER & \
1322:.\Generated_Source\PSoC5/CapSense_CSHL.c ****                                *          CapSense_LINEAR_SLIDERS_POS_FILTERS_MASK))
1323:.\Generated_Source\PSoC5/CapSense_CSHL.c ****                                */
1324:.\Generated_Source\PSoC5/CapSense_CSHL.c **** 
1325:.\Generated_Source\PSoC5/CapSense_CSHL.c ****                         #if (0u != (CapSense_IIR4_FILTER & CapSense_LINEAR_SLIDERS_POS_FILTERS_MASK
1326:.\Generated_Source\PSoC5/CapSense_CSHL.c ****                             if (0u != (posFiltersMask & CapSense_IIR4_FILTER))
1327:.\Generated_Source\PSoC5/CapSense_CSHL.c ****                             {
1328:.\Generated_Source\PSoC5/CapSense_CSHL.c ****                                 position = CapSense_IIR4Filter(position,
1329:.\Generated_Source\PSoC5/CapSense_CSHL.c ****                                                                     (uint16)CapSense_posFiltersData
1330:.\Generated_Source\PSoC5/CapSense_CSHL.c ****                                 CapSense_posFiltersData[posIndex] = (uint8) position;
1331:.\Generated_Source\PSoC5/CapSense_CSHL.c ****                             }                                
1332:.\Generated_Source\PSoC5/CapSense_CSHL.c ****                         #endif /* (0u != (CapSense_IIR4_FILTER & \
1333:.\Generated_Source\PSoC5/CapSense_CSHL.c ****                                *          CapSense_LINEAR_SLIDERS_POS_FILTERS_MASK))
1334:.\Generated_Source\PSoC5/CapSense_CSHL.c ****                                */
1335:.\Generated_Source\PSoC5/CapSense_CSHL.c **** 
1336:.\Generated_Source\PSoC5/CapSense_CSHL.c ****                         #if (0u != (CapSense_JITTER_FILTER & CapSense_LINEAR_SLIDERS_POS_FILTERS_MA
1337:.\Generated_Source\PSoC5/CapSense_CSHL.c ****                             if (0u != (posFiltersMask & CapSense_JITTER_FILTER))
1338:.\Generated_Source\PSoC5/CapSense_CSHL.c ****                             {
1339:.\Generated_Source\PSoC5/CapSense_CSHL.c ****                                 position = CapSense_JitterFilter(position,
1340:.\Generated_Source\PSoC5/CapSense_CSHL.c ****                                                                     (uint16)CapSense_posFiltersData
1341:.\Generated_Source\PSoC5/CapSense_CSHL.c ****                                 CapSense_posFiltersData[posIndex] = (uint8) position;
1342:.\Generated_Source\PSoC5/CapSense_CSHL.c ****                             }
1343:.\Generated_Source\PSoC5/CapSense_CSHL.c ****                         #endif /* (0u != (CapSense_JITTER_FILTER & \
1344:.\Generated_Source\PSoC5/CapSense_CSHL.c ****                                *           CapSense_LINEAR_SLIDERS_POS_FILTERS_MASK))
1345:.\Generated_Source\PSoC5/CapSense_CSHL.c ****                                */
1346:.\Generated_Source\PSoC5/CapSense_CSHL.c ****                     }
1347:.\Generated_Source\PSoC5/CapSense_CSHL.c ****                 }
1348:.\Generated_Source\PSoC5/CapSense_CSHL.c ****             #endif /* (0u != CapSense_LINEAR_SLIDERS_POS_FILTERS_MASK) */
1349:.\Generated_Source\PSoC5/CapSense_CSHL.c **** 
1350:.\Generated_Source\PSoC5/CapSense_CSHL.c ****         }
1351:.\Generated_Source\PSoC5/CapSense_CSHL.c ****         else
1352:.\Generated_Source\PSoC5/CapSense_CSHL.c ****         {
1353:.\Generated_Source\PSoC5/CapSense_CSHL.c ****             /* The maximum wasn't found */
1354:.\Generated_Source\PSoC5/CapSense_CSHL.c ****             position = 0xFFFFu;
1355:.\Generated_Source\PSoC5/CapSense_CSHL.c **** 
1356:.\Generated_Source\PSoC5/CapSense_CSHL.c ****             #if(0u != CapSense_LINEAR_SLIDERS_POS_FILTERS_MASK)
1357:.\Generated_Source\PSoC5/CapSense_CSHL.c ****                 /* Reset the filters */
1358:.\Generated_Source\PSoC5/CapSense_CSHL.c ****                 if(0u != (posFiltersMask & CapSense_ANY_POS_FILTER))
1359:.\Generated_Source\PSoC5/CapSense_CSHL.c ****                 {
1360:.\Generated_Source\PSoC5/CapSense_CSHL.c ****                     CapSense_posFiltersData[firstTimeIndex] = 0u;
1361:.\Generated_Source\PSoC5/CapSense_CSHL.c ****                 }
1362:.\Generated_Source\PSoC5/CapSense_CSHL.c ****             #endif /* (0u != CapSense_LINEAR_SLIDERS_POS_FILTERS_MASK) */
1363:.\Generated_Source\PSoC5/CapSense_CSHL.c ****         }
1364:.\Generated_Source\PSoC5/CapSense_CSHL.c **** 
1365:.\Generated_Source\PSoC5/CapSense_CSHL.c ****         
1366:.\Generated_Source\PSoC5/CapSense_CSHL.c ****         return (position);
1367:.\Generated_Source\PSoC5/CapSense_CSHL.c ****     }
1368:.\Generated_Source\PSoC5/CapSense_CSHL.c **** #endif /* (CapSense_TOTAL_LINEAR_SLIDERS_COUNT > 0u) */
1369:.\Generated_Source\PSoC5/CapSense_CSHL.c **** 
1370:.\Generated_Source\PSoC5/CapSense_CSHL.c **** 
ARM GAS  C:\Users\Xwx47\AppData\Local\Temp\cchbaicN.s 			page 36


1371:.\Generated_Source\PSoC5/CapSense_CSHL.c **** #if(CapSense_TOTAL_RADIAL_SLIDERS_COUNT > 0u)
1372:.\Generated_Source\PSoC5/CapSense_CSHL.c ****     /*******************************************************************************
1373:.\Generated_Source\PSoC5/CapSense_CSHL.c ****     * Function Name: CapSense_GetRadialCentroidPos
1374:.\Generated_Source\PSoC5/CapSense_CSHL.c ****     ********************************************************************************
1375:.\Generated_Source\PSoC5/CapSense_CSHL.c ****     *
1376:.\Generated_Source\PSoC5/CapSense_CSHL.c ****     * Summary:
1377:.\Generated_Source\PSoC5/CapSense_CSHL.c ****     *  Checks the CapSense_Signal[ ] array for a centroid within
1378:.\Generated_Source\PSoC5/CapSense_CSHL.c ****     *  slider specified range. The centroid position is calculated to the resolution
1379:.\Generated_Source\PSoC5/CapSense_CSHL.c ****     *  specified in the CapSense customizer. The position filters are applied to the
1380:.\Generated_Source\PSoC5/CapSense_CSHL.c ****     *  result if enabled.
1381:.\Generated_Source\PSoC5/CapSense_CSHL.c ****     *
1382:.\Generated_Source\PSoC5/CapSense_CSHL.c ****     * Parameters:
1383:.\Generated_Source\PSoC5/CapSense_CSHL.c ****     *  widget:  Widget number.
1384:.\Generated_Source\PSoC5/CapSense_CSHL.c ****     *  For every radial slider widget there are defines in this format:
1385:.\Generated_Source\PSoC5/CapSense_CSHL.c ****     *  #define CapSense_RS_"widget_name"            5
1386:.\Generated_Source\PSoC5/CapSense_CSHL.c ****     * 
1387:.\Generated_Source\PSoC5/CapSense_CSHL.c ****     * Return:
1388:.\Generated_Source\PSoC5/CapSense_CSHL.c ****     *  Returns position value of the radial slider.
1389:.\Generated_Source\PSoC5/CapSense_CSHL.c ****     *
1390:.\Generated_Source\PSoC5/CapSense_CSHL.c ****     * Side Effects:
1391:.\Generated_Source\PSoC5/CapSense_CSHL.c ****     *  If any sensor within the slider widget is active, the function returns values
1392:.\Generated_Source\PSoC5/CapSense_CSHL.c ****     *  from zero to the API resolution value set in the CapSense customizer. If no
1393:.\Generated_Source\PSoC5/CapSense_CSHL.c ****     *  sensors are active, the function returns 0xFFFF.
1394:.\Generated_Source\PSoC5/CapSense_CSHL.c ****     *  There are no checks of widget type argument provided to this function.
1395:.\Generated_Source\PSoC5/CapSense_CSHL.c ****     *  The unproper widget type provided will cause unexpected position calculations.
1396:.\Generated_Source\PSoC5/CapSense_CSHL.c ****     *
1397:.\Generated_Source\PSoC5/CapSense_CSHL.c ****     * Note:
1398:.\Generated_Source\PSoC5/CapSense_CSHL.c ****     *  If noise counts on the slider segments are greater than the noise
1399:.\Generated_Source\PSoC5/CapSense_CSHL.c ****     *  threshold, this subroutine may generate a false centroid result. The noise
1400:.\Generated_Source\PSoC5/CapSense_CSHL.c ****     *  threshold should be set carefully (high enough above the noise level) so 
1401:.\Generated_Source\PSoC5/CapSense_CSHL.c ****     *  that noise will not generate a false centroid.
1402:.\Generated_Source\PSoC5/CapSense_CSHL.c ****     *
1403:.\Generated_Source\PSoC5/CapSense_CSHL.c ****     *
1404:.\Generated_Source\PSoC5/CapSense_CSHL.c ****     * Reentrant:
1405:.\Generated_Source\PSoC5/CapSense_CSHL.c ****     *  No.
1406:.\Generated_Source\PSoC5/CapSense_CSHL.c ****     *
1407:.\Generated_Source\PSoC5/CapSense_CSHL.c ****     *******************************************************************************/
1408:.\Generated_Source\PSoC5/CapSense_CSHL.c ****      uint16 CapSense_GetRadialCentroidPos(uint8 widget)
1409:.\Generated_Source\PSoC5/CapSense_CSHL.c **** 	                                       
1410:.\Generated_Source\PSoC5/CapSense_CSHL.c ****     {
1411:.\Generated_Source\PSoC5/CapSense_CSHL.c ****         #if (0u != CapSense_RADIAL_SLIDERS_POS_FILTERS_MASK)
1412:.\Generated_Source\PSoC5/CapSense_CSHL.c ****             uint8 posIndex;
1413:.\Generated_Source\PSoC5/CapSense_CSHL.c ****             uint8 firstTimeIndex = CapSense_posFiltersData[widget];
1414:.\Generated_Source\PSoC5/CapSense_CSHL.c ****             uint8 posFiltersMask = CapSense_posFiltersMask[widget]; 
1415:.\Generated_Source\PSoC5/CapSense_CSHL.c ****         #endif /* (0u != CapSense_RADIAL_SLIDERS_POS_FILTERS_MASK) */
1416:.\Generated_Source\PSoC5/CapSense_CSHL.c **** 
1417:.\Generated_Source\PSoC5/CapSense_CSHL.c ****         #if ((0u != (CapSense_MEDIAN_FILTER & CapSense_RADIAL_SLIDERS_POS_FILTERS_MASK)) || \
1418:.\Generated_Source\PSoC5/CapSense_CSHL.c ****              (0u != (CapSense_AVERAGING_FILTER & CapSense_RADIAL_SLIDERS_POS_FILTERS_MASK)))
1419:.\Generated_Source\PSoC5/CapSense_CSHL.c ****             uint8 tempPos;
1420:.\Generated_Source\PSoC5/CapSense_CSHL.c ****         #endif /* ((0u != (CapSense_MEDIAN_FILTER & CapSense_RADIAL_SLIDERS_POS_FILTERS_MASK)) || \
1421:.\Generated_Source\PSoC5/CapSense_CSHL.c ****                *   (0u != (CapSense_AVERAGING_FILTER & CapSense_RADIAL_SLIDERS_POS_FILTERS_MASK)))
1422:.\Generated_Source\PSoC5/CapSense_CSHL.c ****                */
1423:.\Generated_Source\PSoC5/CapSense_CSHL.c **** 
1424:.\Generated_Source\PSoC5/CapSense_CSHL.c ****         uint8 maximum;
1425:.\Generated_Source\PSoC5/CapSense_CSHL.c ****         uint16 position;
1426:.\Generated_Source\PSoC5/CapSense_CSHL.c ****         uint8 offset = CapSense_rawDataIndex[widget];
1427:.\Generated_Source\PSoC5/CapSense_CSHL.c ****         uint8 count = CapSense_numberOfSensors[widget];
ARM GAS  C:\Users\Xwx47\AppData\Local\Temp\cchbaicN.s 			page 37


1428:.\Generated_Source\PSoC5/CapSense_CSHL.c ****         
1429:.\Generated_Source\PSoC5/CapSense_CSHL.c ****         /* Find Maximum within centroid */        
1430:.\Generated_Source\PSoC5/CapSense_CSHL.c ****         #if (CapSense_IS_DIPLEX_SLIDER)
1431:.\Generated_Source\PSoC5/CapSense_CSHL.c ****             maximum = CapSense_FindMaximum(offset, count, CapSense_fingerThreshold[widget], 0u);
1432:.\Generated_Source\PSoC5/CapSense_CSHL.c ****         #else
1433:.\Generated_Source\PSoC5/CapSense_CSHL.c ****             maximum = CapSense_FindMaximum(offset, count, CapSense_fingerThreshold[widget]);
1434:.\Generated_Source\PSoC5/CapSense_CSHL.c ****         #endif /* (CapSense_IS_DIPLEX_SLIDER) */
1435:.\Generated_Source\PSoC5/CapSense_CSHL.c ****         
1436:.\Generated_Source\PSoC5/CapSense_CSHL.c ****         if (maximum != 0xFFu)
1437:.\Generated_Source\PSoC5/CapSense_CSHL.c ****         {
1438:.\Generated_Source\PSoC5/CapSense_CSHL.c ****             /* Calculate centroid */
1439:.\Generated_Source\PSoC5/CapSense_CSHL.c ****             position = (uint16) CapSense_CalcCentroid(maximum, 
1440:.\Generated_Source\PSoC5/CapSense_CSHL.c ****                          offset, count, CapSense_centroidMult[widget], CapSense_noiseThreshold[widg
1441:.\Generated_Source\PSoC5/CapSense_CSHL.c **** 
1442:.\Generated_Source\PSoC5/CapSense_CSHL.c ****             #if (0u != CapSense_RADIAL_SLIDERS_POS_FILTERS_MASK)
1443:.\Generated_Source\PSoC5/CapSense_CSHL.c ****                 /* Check if this Radial slider has enabled filters */
1444:.\Generated_Source\PSoC5/CapSense_CSHL.c ****                 if (0u != (posFiltersMask & CapSense_ANY_POS_FILTER))
1445:.\Generated_Source\PSoC5/CapSense_CSHL.c ****                 {
1446:.\Generated_Source\PSoC5/CapSense_CSHL.c ****                     /* Caluclate position to store filters data */
1447:.\Generated_Source\PSoC5/CapSense_CSHL.c ****                     posIndex  = firstTimeIndex + 1u;
1448:.\Generated_Source\PSoC5/CapSense_CSHL.c ****                     
1449:.\Generated_Source\PSoC5/CapSense_CSHL.c ****                     if (0u == CapSense_posFiltersData[firstTimeIndex])
1450:.\Generated_Source\PSoC5/CapSense_CSHL.c ****                     {
1451:.\Generated_Source\PSoC5/CapSense_CSHL.c ****                         /* Init filters */
1452:.\Generated_Source\PSoC5/CapSense_CSHL.c ****                         CapSense_posFiltersData[posIndex] = (uint8) position;
1453:.\Generated_Source\PSoC5/CapSense_CSHL.c ****                         #if ((0u != (CapSense_MEDIAN_FILTER & \
1454:.\Generated_Source\PSoC5/CapSense_CSHL.c ****                                      CapSense_RADIAL_SLIDERS_POS_FILTERS_MASK)) || \
1455:.\Generated_Source\PSoC5/CapSense_CSHL.c ****                              (0u != (CapSense_AVERAGING_FILTER & \
1456:.\Generated_Source\PSoC5/CapSense_CSHL.c ****                                      CapSense_RADIAL_SLIDERS_POS_FILTERS_MASK)))
1457:.\Generated_Source\PSoC5/CapSense_CSHL.c **** 
1458:.\Generated_Source\PSoC5/CapSense_CSHL.c ****                             if ( (0u != (posFiltersMask & CapSense_MEDIAN_FILTER))  || 
1459:.\Generated_Source\PSoC5/CapSense_CSHL.c ****                                  (0u != (posFiltersMask & CapSense_AVERAGING_FILTER)) )
1460:.\Generated_Source\PSoC5/CapSense_CSHL.c ****                             {
1461:.\Generated_Source\PSoC5/CapSense_CSHL.c ****                                 CapSense_posFiltersData[posIndex + 1u] = (uint8) position;
1462:.\Generated_Source\PSoC5/CapSense_CSHL.c ****                             }
1463:.\Generated_Source\PSoC5/CapSense_CSHL.c ****                         #endif /* ((0u != (CapSense_MEDIAN_FILTER & \
1464:.\Generated_Source\PSoC5/CapSense_CSHL.c ****                                *           CapSense_RADIAL_SLIDERS_POS_FILTERS_MASK)) || \
1465:.\Generated_Source\PSoC5/CapSense_CSHL.c ****                                *   (0u != (CapSense_AVERAGING_FILTER & \
1466:.\Generated_Source\PSoC5/CapSense_CSHL.c ****                                *           CapSense_RADIAL_SLIDERS_POS_FILTERS_MASK)))
1467:.\Generated_Source\PSoC5/CapSense_CSHL.c ****                                */
1468:.\Generated_Source\PSoC5/CapSense_CSHL.c ****                         
1469:.\Generated_Source\PSoC5/CapSense_CSHL.c ****                         CapSense_posFiltersData[firstTimeIndex] = 1u;
1470:.\Generated_Source\PSoC5/CapSense_CSHL.c ****                     }
1471:.\Generated_Source\PSoC5/CapSense_CSHL.c ****                     else
1472:.\Generated_Source\PSoC5/CapSense_CSHL.c ****                     {
1473:.\Generated_Source\PSoC5/CapSense_CSHL.c ****                         /* Do filtering */
1474:.\Generated_Source\PSoC5/CapSense_CSHL.c ****                         #if (0u != (CapSense_MEDIAN_FILTER & CapSense_RADIAL_SLIDERS_POS_FILTERS_MA
1475:.\Generated_Source\PSoC5/CapSense_CSHL.c ****                             if (0u != (posFiltersMask & CapSense_MEDIAN_FILTER))
1476:.\Generated_Source\PSoC5/CapSense_CSHL.c ****                             {
1477:.\Generated_Source\PSoC5/CapSense_CSHL.c ****                                 tempPos = (uint8) position;
1478:.\Generated_Source\PSoC5/CapSense_CSHL.c ****                                 position = CapSense_MedianFilter(position,
1479:.\Generated_Source\PSoC5/CapSense_CSHL.c ****                                                                         CapSense_posFiltersData[pos
1480:.\Generated_Source\PSoC5/CapSense_CSHL.c ****                                                                         CapSense_posFiltersData[pos
1481:.\Generated_Source\PSoC5/CapSense_CSHL.c ****                                 CapSense_posFiltersData[posIndex + 1u] = 
1482:.\Generated_Source\PSoC5/CapSense_CSHL.c ****                                                                               CapSense_posFiltersDa
1483:.\Generated_Source\PSoC5/CapSense_CSHL.c ****                                 CapSense_posFiltersData[posIndex] = tempPos;
1484:.\Generated_Source\PSoC5/CapSense_CSHL.c ****                             }
ARM GAS  C:\Users\Xwx47\AppData\Local\Temp\cchbaicN.s 			page 38


1485:.\Generated_Source\PSoC5/CapSense_CSHL.c ****                         #endif /* (0u != (CapSense_MEDIAN_FILTER & 
1486:.\Generated_Source\PSoC5/CapSense_CSHL.c ****                                *          CapSense_RADIAL_SLIDERS_POS_FILTERS_MASK))
1487:.\Generated_Source\PSoC5/CapSense_CSHL.c ****                                */
1488:.\Generated_Source\PSoC5/CapSense_CSHL.c **** 
1489:.\Generated_Source\PSoC5/CapSense_CSHL.c ****                         #if (0u != (CapSense_AVERAGING_FILTER & \
1490:.\Generated_Source\PSoC5/CapSense_CSHL.c ****                                     CapSense_RADIAL_SLIDERS_POS_FILTERS_MASK))
1491:.\Generated_Source\PSoC5/CapSense_CSHL.c ****                             if (0u != (posFiltersMask & CapSense_AVERAGING_FILTER))
1492:.\Generated_Source\PSoC5/CapSense_CSHL.c ****                             {
1493:.\Generated_Source\PSoC5/CapSense_CSHL.c ****                                 tempPos = (uint8) position;
1494:.\Generated_Source\PSoC5/CapSense_CSHL.c ****                                 position = CapSense_AveragingFilter(position, 
1495:.\Generated_Source\PSoC5/CapSense_CSHL.c ****                                                                        CapSense_posFiltersData[posI
1496:.\Generated_Source\PSoC5/CapSense_CSHL.c ****                                                                        CapSense_posFiltersData[posI
1497:.\Generated_Source\PSoC5/CapSense_CSHL.c ****                                 CapSense_posFiltersData[posIndex+1u]= CapSense_posFiltersData[posIn
1498:.\Generated_Source\PSoC5/CapSense_CSHL.c ****                                 CapSense_posFiltersData[posIndex] = tempPos;
1499:.\Generated_Source\PSoC5/CapSense_CSHL.c ****                             }
1500:.\Generated_Source\PSoC5/CapSense_CSHL.c ****                         #endif /* (0u != (CapSense_AVERAGING_FILTER & \
1501:.\Generated_Source\PSoC5/CapSense_CSHL.c ****                                *          CapSense_RADIAL_SLIDERS_POS_FILTERS_MASK))
1502:.\Generated_Source\PSoC5/CapSense_CSHL.c ****                                */
1503:.\Generated_Source\PSoC5/CapSense_CSHL.c **** 
1504:.\Generated_Source\PSoC5/CapSense_CSHL.c ****                         #if (0u != (CapSense_IIR2_FILTER & CapSense_RADIAL_SLIDERS_POS_FILTERS_MASK
1505:.\Generated_Source\PSoC5/CapSense_CSHL.c ****                             if (0u != (posFiltersMask & CapSense_IIR2_FILTER))
1506:.\Generated_Source\PSoC5/CapSense_CSHL.c ****                             {
1507:.\Generated_Source\PSoC5/CapSense_CSHL.c ****                                 position = CapSense_IIR2Filter(position,
1508:.\Generated_Source\PSoC5/CapSense_CSHL.c ****                                                                     (uint16)CapSense_posFiltersData
1509:.\Generated_Source\PSoC5/CapSense_CSHL.c ****                                 CapSense_posFiltersData[posIndex] = (uint8) position;
1510:.\Generated_Source\PSoC5/CapSense_CSHL.c ****                             }
1511:.\Generated_Source\PSoC5/CapSense_CSHL.c ****                         #endif /* (0u != (CapSense_IIR2_FILTER & 
1512:.\Generated_Source\PSoC5/CapSense_CSHL.c ****                                *          CapSense_RADIAL_SLIDERS_POS_FILTERS_MASK))
1513:.\Generated_Source\PSoC5/CapSense_CSHL.c ****                                */
1514:.\Generated_Source\PSoC5/CapSense_CSHL.c **** 
1515:.\Generated_Source\PSoC5/CapSense_CSHL.c ****                         #if (0u != (CapSense_IIR4_FILTER & CapSense_RADIAL_SLIDERS_POS_FILTERS_MASK
1516:.\Generated_Source\PSoC5/CapSense_CSHL.c ****                             if (0u != (posFiltersMask & CapSense_IIR4_FILTER))
1517:.\Generated_Source\PSoC5/CapSense_CSHL.c ****                             {
1518:.\Generated_Source\PSoC5/CapSense_CSHL.c ****                                 position = CapSense_IIR4Filter(position,
1519:.\Generated_Source\PSoC5/CapSense_CSHL.c ****                                                                     (uint16)CapSense_posFiltersData
1520:.\Generated_Source\PSoC5/CapSense_CSHL.c ****                                 CapSense_posFiltersData[posIndex] = (uint8) position;
1521:.\Generated_Source\PSoC5/CapSense_CSHL.c ****                             }
1522:.\Generated_Source\PSoC5/CapSense_CSHL.c ****                         #endif /* (0u != (CapSense_IIR4_FILTER & 
1523:.\Generated_Source\PSoC5/CapSense_CSHL.c ****                                *          CapSense_RADIAL_SLIDERS_POS_FILTERS_MASK))
1524:.\Generated_Source\PSoC5/CapSense_CSHL.c ****                                */
1525:.\Generated_Source\PSoC5/CapSense_CSHL.c **** 
1526:.\Generated_Source\PSoC5/CapSense_CSHL.c ****                         #if (0u != (CapSense_JITTER_FILTER & CapSense_RADIAL_SLIDERS_POS_FILTERS_MA
1527:.\Generated_Source\PSoC5/CapSense_CSHL.c ****                             if (0u != (posFiltersMask & CapSense_JITTER_FILTER))
1528:.\Generated_Source\PSoC5/CapSense_CSHL.c ****                             {
1529:.\Generated_Source\PSoC5/CapSense_CSHL.c ****                                 position = CapSense_JitterFilter(position, 
1530:.\Generated_Source\PSoC5/CapSense_CSHL.c ****                                                                          CapSense_posFiltersData[po
1531:.\Generated_Source\PSoC5/CapSense_CSHL.c ****                                 CapSense_posFiltersData[posIndex] = (uint8) position;
1532:.\Generated_Source\PSoC5/CapSense_CSHL.c ****                             }
1533:.\Generated_Source\PSoC5/CapSense_CSHL.c ****                         #endif /* (0u != (CapSense_JITTER_FILTER &
1534:.\Generated_Source\PSoC5/CapSense_CSHL.c ****                                *           CapSense_RADIAL_SLIDERS_POS_FILTERS_MASK))
1535:.\Generated_Source\PSoC5/CapSense_CSHL.c ****                                */
1536:.\Generated_Source\PSoC5/CapSense_CSHL.c ****                     }
1537:.\Generated_Source\PSoC5/CapSense_CSHL.c ****                 }
1538:.\Generated_Source\PSoC5/CapSense_CSHL.c ****             #endif /* (0u != CapSense_RADIAL_SLIDERS_POS_FILTERS_MASK) */
1539:.\Generated_Source\PSoC5/CapSense_CSHL.c **** 
1540:.\Generated_Source\PSoC5/CapSense_CSHL.c ****         }
1541:.\Generated_Source\PSoC5/CapSense_CSHL.c ****         else
ARM GAS  C:\Users\Xwx47\AppData\Local\Temp\cchbaicN.s 			page 39


1542:.\Generated_Source\PSoC5/CapSense_CSHL.c ****         {
1543:.\Generated_Source\PSoC5/CapSense_CSHL.c ****             /* The maximum didn't find */
1544:.\Generated_Source\PSoC5/CapSense_CSHL.c ****             position = 0xFFFFu;
1545:.\Generated_Source\PSoC5/CapSense_CSHL.c **** 
1546:.\Generated_Source\PSoC5/CapSense_CSHL.c ****             #if (0u != CapSense_RADIAL_SLIDERS_POS_FILTERS_MASK)
1547:.\Generated_Source\PSoC5/CapSense_CSHL.c ****                 /* Reset the filters */
1548:.\Generated_Source\PSoC5/CapSense_CSHL.c ****                 if((posFiltersMask & CapSense_ANY_POS_FILTER) != 0u)
1549:.\Generated_Source\PSoC5/CapSense_CSHL.c ****                 {
1550:.\Generated_Source\PSoC5/CapSense_CSHL.c ****                     CapSense_posFiltersData[firstTimeIndex] = 0u;
1551:.\Generated_Source\PSoC5/CapSense_CSHL.c ****                 }
1552:.\Generated_Source\PSoC5/CapSense_CSHL.c ****             #endif /* (0u != CapSense_RADIAL_SLIDERS_POS_FILTERS_MASK) */
1553:.\Generated_Source\PSoC5/CapSense_CSHL.c ****         }
1554:.\Generated_Source\PSoC5/CapSense_CSHL.c ****         
1555:.\Generated_Source\PSoC5/CapSense_CSHL.c ****         return (position);
1556:.\Generated_Source\PSoC5/CapSense_CSHL.c ****     }
1557:.\Generated_Source\PSoC5/CapSense_CSHL.c **** #endif
1558:.\Generated_Source\PSoC5/CapSense_CSHL.c **** 
1559:.\Generated_Source\PSoC5/CapSense_CSHL.c **** 
1560:.\Generated_Source\PSoC5/CapSense_CSHL.c **** #if(CapSense_TOTAL_TOUCH_PADS_COUNT > 0u)
1561:.\Generated_Source\PSoC5/CapSense_CSHL.c ****     /*******************************************************************************
1562:.\Generated_Source\PSoC5/CapSense_CSHL.c ****     * Function Name: CapSense_GetTouchCentroidPos
1563:.\Generated_Source\PSoC5/CapSense_CSHL.c ****     ********************************************************************************
1564:.\Generated_Source\PSoC5/CapSense_CSHL.c ****     *
1565:.\Generated_Source\PSoC5/CapSense_CSHL.c ****     * Summary:
1566:.\Generated_Source\PSoC5/CapSense_CSHL.c ****     *  If a finger is present on touch pad, this function calculates the X and Y
1567:.\Generated_Source\PSoC5/CapSense_CSHL.c ****     *  position of the finger by calculating the centroids within touch pad specified
1568:.\Generated_Source\PSoC5/CapSense_CSHL.c ****     *  range. The X and Y positions are calculated to the API resolutions set in the
1569:.\Generated_Source\PSoC5/CapSense_CSHL.c ****     *  CapSense customizer. Returns a 1 if a finger is on the touchpad.
1570:.\Generated_Source\PSoC5/CapSense_CSHL.c ****     *  The position filter is applied to the result if enabled.
1571:.\Generated_Source\PSoC5/CapSense_CSHL.c ****     *  This function is available only if a touch pad is defined by the CapSense
1572:.\Generated_Source\PSoC5/CapSense_CSHL.c ****     *  customizer.
1573:.\Generated_Source\PSoC5/CapSense_CSHL.c ****     *
1574:.\Generated_Source\PSoC5/CapSense_CSHL.c ****     * Parameters:
1575:.\Generated_Source\PSoC5/CapSense_CSHL.c ****     *  widget:  Widget number. 
1576:.\Generated_Source\PSoC5/CapSense_CSHL.c ****     *  For every touchpad widget there are defines in this format:
1577:.\Generated_Source\PSoC5/CapSense_CSHL.c ****     *  #define CapSense_TP_"widget_name"            5
1578:.\Generated_Source\PSoC5/CapSense_CSHL.c ****     *
1579:.\Generated_Source\PSoC5/CapSense_CSHL.c ****     *  pos:     Pointer to the array of two uint16 elements, where result
1580:.\Generated_Source\PSoC5/CapSense_CSHL.c ****     *  result of calculation of X and Y position are stored.
1581:.\Generated_Source\PSoC5/CapSense_CSHL.c ****     *  pos[0u]  - position of X
1582:.\Generated_Source\PSoC5/CapSense_CSHL.c ****     *  pos[1u]  - position of Y
1583:.\Generated_Source\PSoC5/CapSense_CSHL.c ****     *
1584:.\Generated_Source\PSoC5/CapSense_CSHL.c ****     * Return:
1585:.\Generated_Source\PSoC5/CapSense_CSHL.c ****     *  Returns a 1 if a finger is on the touch pad, 0 - if not.
1586:.\Generated_Source\PSoC5/CapSense_CSHL.c ****     *
1587:.\Generated_Source\PSoC5/CapSense_CSHL.c ****     * Side Effects:
1588:.\Generated_Source\PSoC5/CapSense_CSHL.c ****     *   There are no checks of widget type argument provided to this function.
1589:.\Generated_Source\PSoC5/CapSense_CSHL.c ****     *   The unproper widget type provided will cause unexpected position
1590:.\Generated_Source\PSoC5/CapSense_CSHL.c ****     *   calculations.
1591:.\Generated_Source\PSoC5/CapSense_CSHL.c ****     *
1592:.\Generated_Source\PSoC5/CapSense_CSHL.c ****     * Reentrant:
1593:.\Generated_Source\PSoC5/CapSense_CSHL.c ****     *  No.
1594:.\Generated_Source\PSoC5/CapSense_CSHL.c ****     *
1595:.\Generated_Source\PSoC5/CapSense_CSHL.c ****     *******************************************************************************/
1596:.\Generated_Source\PSoC5/CapSense_CSHL.c ****     uint8 CapSense_GetTouchCentroidPos(uint8 widget, uint16* pos)
1597:.\Generated_Source\PSoC5/CapSense_CSHL.c **** 	                                    
1598:.\Generated_Source\PSoC5/CapSense_CSHL.c ****     {
ARM GAS  C:\Users\Xwx47\AppData\Local\Temp\cchbaicN.s 			page 40


1599:.\Generated_Source\PSoC5/CapSense_CSHL.c ****         #if (0u != CapSense_TOUCH_PADS_POS_FILTERS_MASK)
1600:.\Generated_Source\PSoC5/CapSense_CSHL.c ****             uint8 posXIndex;
1601:.\Generated_Source\PSoC5/CapSense_CSHL.c ****             uint8 posYIndex;
1602:.\Generated_Source\PSoC5/CapSense_CSHL.c ****             uint8 firstTimeIndex = CapSense_posFiltersData[widget];
1603:.\Generated_Source\PSoC5/CapSense_CSHL.c ****             uint8 posFiltersMask = CapSense_posFiltersMask[widget];
1604:.\Generated_Source\PSoC5/CapSense_CSHL.c ****         #endif /* (0u != CapSense_TOUCH_PADS_POS_FILTERS_MASK) */
1605:.\Generated_Source\PSoC5/CapSense_CSHL.c **** 
1606:.\Generated_Source\PSoC5/CapSense_CSHL.c ****         #if ((0u != (CapSense_MEDIAN_FILTER & CapSense_TOUCH_PADS_POS_FILTERS_MASK)) || \
1607:.\Generated_Source\PSoC5/CapSense_CSHL.c ****              (0u != (CapSense_AVERAGING_FILTER & CapSense_TOUCH_PADS_POS_FILTERS_MASK)))
1608:.\Generated_Source\PSoC5/CapSense_CSHL.c ****             uint16 tempPos;
1609:.\Generated_Source\PSoC5/CapSense_CSHL.c ****         #endif /* ((0u != (CapSense_MEDIAN_FILTER & CapSense_TOUCH_PADS_POS_FILTERS_MASK)) || \
1610:.\Generated_Source\PSoC5/CapSense_CSHL.c ****                *   (0u != (CapSense_AVERAGING_FILTER & CapSense_TOUCH_PADS_POS_FILTERS_MASK)))
1611:.\Generated_Source\PSoC5/CapSense_CSHL.c ****                */
1612:.\Generated_Source\PSoC5/CapSense_CSHL.c **** 
1613:.\Generated_Source\PSoC5/CapSense_CSHL.c ****         uint8 maxX;
1614:.\Generated_Source\PSoC5/CapSense_CSHL.c ****         uint8 maxY;
1615:.\Generated_Source\PSoC5/CapSense_CSHL.c ****         uint8 posX;
1616:.\Generated_Source\PSoC5/CapSense_CSHL.c ****         uint8 posY;
1617:.\Generated_Source\PSoC5/CapSense_CSHL.c ****         uint8 touch = 0u;
1618:.\Generated_Source\PSoC5/CapSense_CSHL.c ****         uint8 offset = CapSense_rawDataIndex[widget];
1619:.\Generated_Source\PSoC5/CapSense_CSHL.c ****         uint8 count = CapSense_numberOfSensors[widget];
1620:.\Generated_Source\PSoC5/CapSense_CSHL.c ****         
1621:.\Generated_Source\PSoC5/CapSense_CSHL.c ****         /* Find Maximum within X centroid */
1622:.\Generated_Source\PSoC5/CapSense_CSHL.c ****         #if (CapSense_IS_DIPLEX_SLIDER)
1623:.\Generated_Source\PSoC5/CapSense_CSHL.c ****             maxX = CapSense_FindMaximum(offset, count, CapSense_fingerThreshold[widget], 0u);
1624:.\Generated_Source\PSoC5/CapSense_CSHL.c ****         #else
1625:.\Generated_Source\PSoC5/CapSense_CSHL.c ****             maxX = CapSense_FindMaximum(offset, count, CapSense_fingerThreshold[widget]);
1626:.\Generated_Source\PSoC5/CapSense_CSHL.c ****         #endif /* (CapSense_IS_DIPLEX_SLIDER) */
1627:.\Generated_Source\PSoC5/CapSense_CSHL.c **** 
1628:.\Generated_Source\PSoC5/CapSense_CSHL.c ****         if (maxX != 0xFFu)
1629:.\Generated_Source\PSoC5/CapSense_CSHL.c ****         {
1630:.\Generated_Source\PSoC5/CapSense_CSHL.c ****             offset = CapSense_rawDataIndex[widget + 1u];
1631:.\Generated_Source\PSoC5/CapSense_CSHL.c ****             count = CapSense_numberOfSensors[widget + 1u];
1632:.\Generated_Source\PSoC5/CapSense_CSHL.c **** 
1633:.\Generated_Source\PSoC5/CapSense_CSHL.c ****             /* Find Maximum within Y centroid */
1634:.\Generated_Source\PSoC5/CapSense_CSHL.c ****             #if (CapSense_IS_DIPLEX_SLIDER)
1635:.\Generated_Source\PSoC5/CapSense_CSHL.c ****                 maxY = CapSense_FindMaximum(offset, count, CapSense_fingerThreshold[widget + 1u], 0
1636:.\Generated_Source\PSoC5/CapSense_CSHL.c ****             #else
1637:.\Generated_Source\PSoC5/CapSense_CSHL.c ****                 maxY = CapSense_FindMaximum(offset, count, CapSense_fingerThreshold[widget + 1u]);
1638:.\Generated_Source\PSoC5/CapSense_CSHL.c ****             #endif /* (CapSense_IS_DIPLEX_SLIDER) */
1639:.\Generated_Source\PSoC5/CapSense_CSHL.c **** 
1640:.\Generated_Source\PSoC5/CapSense_CSHL.c ****             if (maxY != 0xFFu)
1641:.\Generated_Source\PSoC5/CapSense_CSHL.c ****             {
1642:.\Generated_Source\PSoC5/CapSense_CSHL.c ****                 /* X and Y maximums are found = true touch */
1643:.\Generated_Source\PSoC5/CapSense_CSHL.c ****                 touch = 1u;
1644:.\Generated_Source\PSoC5/CapSense_CSHL.c ****                 
1645:.\Generated_Source\PSoC5/CapSense_CSHL.c ****                 /* Calculate Y centroid */
1646:.\Generated_Source\PSoC5/CapSense_CSHL.c ****                 posY = CapSense_CalcCentroid(maxY, offset, count, 
1647:.\Generated_Source\PSoC5/CapSense_CSHL.c ****                             CapSense_centroidMult[widget + 1u], CapSense_noiseThreshold[widget + 1u
1648:.\Generated_Source\PSoC5/CapSense_CSHL.c ****                 
1649:.\Generated_Source\PSoC5/CapSense_CSHL.c ****                 /* Calculate X centroid */
1650:.\Generated_Source\PSoC5/CapSense_CSHL.c ****                 offset = CapSense_rawDataIndex[widget];
1651:.\Generated_Source\PSoC5/CapSense_CSHL.c ****                 count = CapSense_numberOfSensors[widget];
1652:.\Generated_Source\PSoC5/CapSense_CSHL.c ****                 
1653:.\Generated_Source\PSoC5/CapSense_CSHL.c ****                 posX = CapSense_CalcCentroid(maxX, offset, count, 
1654:.\Generated_Source\PSoC5/CapSense_CSHL.c ****                             CapSense_centroidMult[widget],CapSense_noiseThreshold[widget]);
1655:.\Generated_Source\PSoC5/CapSense_CSHL.c ****     
ARM GAS  C:\Users\Xwx47\AppData\Local\Temp\cchbaicN.s 			page 41


1656:.\Generated_Source\PSoC5/CapSense_CSHL.c ****                 #if (0u != CapSense_TOUCH_PADS_POS_FILTERS_MASK)
1657:.\Generated_Source\PSoC5/CapSense_CSHL.c ****                     /* Check if this TP has enabled filters */
1658:.\Generated_Source\PSoC5/CapSense_CSHL.c ****                     if (0u != (posFiltersMask & CapSense_ANY_POS_FILTER))
1659:.\Generated_Source\PSoC5/CapSense_CSHL.c ****                     {
1660:.\Generated_Source\PSoC5/CapSense_CSHL.c ****                         /* Caluclate position to store filters data */
1661:.\Generated_Source\PSoC5/CapSense_CSHL.c ****                         posXIndex  = firstTimeIndex + 1u;
1662:.\Generated_Source\PSoC5/CapSense_CSHL.c ****                         posYIndex  = CapSense_posFiltersData[widget + 1u];
1663:.\Generated_Source\PSoC5/CapSense_CSHL.c ****                         
1664:.\Generated_Source\PSoC5/CapSense_CSHL.c ****                         if (0u == CapSense_posFiltersData[firstTimeIndex])
1665:.\Generated_Source\PSoC5/CapSense_CSHL.c ****                         {
1666:.\Generated_Source\PSoC5/CapSense_CSHL.c ****                             /* Init filters */
1667:.\Generated_Source\PSoC5/CapSense_CSHL.c ****                             CapSense_posFiltersData[posXIndex] = posX;
1668:.\Generated_Source\PSoC5/CapSense_CSHL.c ****                             CapSense_posFiltersData[posYIndex] = posY;
1669:.\Generated_Source\PSoC5/CapSense_CSHL.c **** 
1670:.\Generated_Source\PSoC5/CapSense_CSHL.c ****                             #if((0u != (CapSense_MEDIAN_FILTER & \
1671:.\Generated_Source\PSoC5/CapSense_CSHL.c ****                                         CapSense_TOUCH_PADS_POS_FILTERS_MASK))|| \
1672:.\Generated_Source\PSoC5/CapSense_CSHL.c ****                                 (0u != (CapSense_AVERAGING_FILTER & \
1673:.\Generated_Source\PSoC5/CapSense_CSHL.c ****                                         CapSense_TOUCH_PADS_POS_FILTERS_MASK)))
1674:.\Generated_Source\PSoC5/CapSense_CSHL.c **** 
1675:.\Generated_Source\PSoC5/CapSense_CSHL.c ****                                 if ( (0u != (posFiltersMask & CapSense_MEDIAN_FILTER)) || 
1676:.\Generated_Source\PSoC5/CapSense_CSHL.c ****                                      (0u != (posFiltersMask & CapSense_AVERAGING_FILTER)) )
1677:.\Generated_Source\PSoC5/CapSense_CSHL.c ****                                 {
1678:.\Generated_Source\PSoC5/CapSense_CSHL.c ****                                     CapSense_posFiltersData[posXIndex + 1u] = posX;
1679:.\Generated_Source\PSoC5/CapSense_CSHL.c ****                                     CapSense_posFiltersData[posYIndex + 1u] = posY;
1680:.\Generated_Source\PSoC5/CapSense_CSHL.c ****                                 }
1681:.\Generated_Source\PSoC5/CapSense_CSHL.c ****                             #endif /* ((0u != (CapSense_MEDIAN_FILTER & \
1682:.\Generated_Source\PSoC5/CapSense_CSHL.c ****                                    *           CapSense_TOUCH_PADS_POS_FILTERS_MASK)) || \
1683:.\Generated_Source\PSoC5/CapSense_CSHL.c ****                                    *    (0u != (CapSense_AVERAGING_FILTER & \
1684:.\Generated_Source\PSoC5/CapSense_CSHL.c ****                                    *            CapSense_TOUCH_PADS_POS_FILTERS_MASK)))
1685:.\Generated_Source\PSoC5/CapSense_CSHL.c ****                                    */
1686:.\Generated_Source\PSoC5/CapSense_CSHL.c ****                             
1687:.\Generated_Source\PSoC5/CapSense_CSHL.c ****                             CapSense_posFiltersData[firstTimeIndex] = 1u;
1688:.\Generated_Source\PSoC5/CapSense_CSHL.c ****                         }
1689:.\Generated_Source\PSoC5/CapSense_CSHL.c ****                         else
1690:.\Generated_Source\PSoC5/CapSense_CSHL.c ****                         {
1691:.\Generated_Source\PSoC5/CapSense_CSHL.c ****                             /* Do filtering */
1692:.\Generated_Source\PSoC5/CapSense_CSHL.c ****                             #if (0u != (CapSense_MEDIAN_FILTER & CapSense_TOUCH_PADS_POS_FILTERS_MA
1693:.\Generated_Source\PSoC5/CapSense_CSHL.c ****                                 if (0u != (posFiltersMask & CapSense_MEDIAN_FILTER))
1694:.\Generated_Source\PSoC5/CapSense_CSHL.c ****                                 {
1695:.\Generated_Source\PSoC5/CapSense_CSHL.c ****                                     tempPos = posX;
1696:.\Generated_Source\PSoC5/CapSense_CSHL.c ****                                     posX = (uint8) CapSense_MedianFilter(posX,
1697:.\Generated_Source\PSoC5/CapSense_CSHL.c ****                                                                       CapSense_posFiltersData[posXI
1698:.\Generated_Source\PSoC5/CapSense_CSHL.c ****                                                                       CapSense_posFiltersData[posXI
1699:.\Generated_Source\PSoC5/CapSense_CSHL.c ****                                     CapSense_posFiltersData[posXIndex + 1u] = 
1700:.\Generated_Source\PSoC5/CapSense_CSHL.c ****                                                                              CapSense_posFiltersDat
1701:.\Generated_Source\PSoC5/CapSense_CSHL.c ****                                     CapSense_posFiltersData[posXIndex] = tempPos;
1702:.\Generated_Source\PSoC5/CapSense_CSHL.c ****                                     
1703:.\Generated_Source\PSoC5/CapSense_CSHL.c ****                                     tempPos = posY;
1704:.\Generated_Source\PSoC5/CapSense_CSHL.c ****                                     posY = (uint8) CapSense_MedianFilter(posY,
1705:.\Generated_Source\PSoC5/CapSense_CSHL.c ****                                                                        CapSense_posFiltersData[posY
1706:.\Generated_Source\PSoC5/CapSense_CSHL.c ****                                                                        CapSense_posFiltersData[posY
1707:.\Generated_Source\PSoC5/CapSense_CSHL.c ****                                     CapSense_posFiltersData[posYIndex + 1u] = 
1708:.\Generated_Source\PSoC5/CapSense_CSHL.c ****                                                                              CapSense_posFiltersDat
1709:.\Generated_Source\PSoC5/CapSense_CSHL.c ****                                     CapSense_posFiltersData[posYIndex] = tempPos;
1710:.\Generated_Source\PSoC5/CapSense_CSHL.c ****                                 }
1711:.\Generated_Source\PSoC5/CapSense_CSHL.c ****                                 
1712:.\Generated_Source\PSoC5/CapSense_CSHL.c ****                             #endif /* (0u != (CapSense_MEDIAN_FILTER & \
ARM GAS  C:\Users\Xwx47\AppData\Local\Temp\cchbaicN.s 			page 42


1713:.\Generated_Source\PSoC5/CapSense_CSHL.c ****                                    *          CapSense_TOUCH_PADS_POS_FILTERS_MASK))
1714:.\Generated_Source\PSoC5/CapSense_CSHL.c ****                                    */
1715:.\Generated_Source\PSoC5/CapSense_CSHL.c **** 
1716:.\Generated_Source\PSoC5/CapSense_CSHL.c ****                             #if(0u !=(CapSense_AVERAGING_FILTER & CapSense_TOUCH_PADS_POS_FILTERS_M
1717:.\Generated_Source\PSoC5/CapSense_CSHL.c ****                                 if (0u != (posFiltersMask & CapSense_AVERAGING_FILTER))
1718:.\Generated_Source\PSoC5/CapSense_CSHL.c ****                                 {
1719:.\Generated_Source\PSoC5/CapSense_CSHL.c ****                                     tempPos = posX;
1720:.\Generated_Source\PSoC5/CapSense_CSHL.c ****                                     posX = (uint8) CapSense_AveragingFilter(posX,
1721:.\Generated_Source\PSoC5/CapSense_CSHL.c ****                                                                        CapSense_posFiltersData[posX
1722:.\Generated_Source\PSoC5/CapSense_CSHL.c ****                                                                        CapSense_posFiltersData[posX
1723:.\Generated_Source\PSoC5/CapSense_CSHL.c ****                                     CapSense_posFiltersData[posXIndex + 1u] = 
1724:.\Generated_Source\PSoC5/CapSense_CSHL.c ****                                                                              CapSense_posFiltersDat
1725:.\Generated_Source\PSoC5/CapSense_CSHL.c ****                                     CapSense_posFiltersData[posXIndex] = tempPos;
1726:.\Generated_Source\PSoC5/CapSense_CSHL.c ****                                     
1727:.\Generated_Source\PSoC5/CapSense_CSHL.c ****                                     tempPos = posY;
1728:.\Generated_Source\PSoC5/CapSense_CSHL.c ****                                     posY = (uint8) CapSense_AveragingFilter(posY, 
1729:.\Generated_Source\PSoC5/CapSense_CSHL.c ****                                                                       CapSense_posFiltersData[posYI
1730:.\Generated_Source\PSoC5/CapSense_CSHL.c ****                                                                       CapSense_posFiltersData[posYI
1731:.\Generated_Source\PSoC5/CapSense_CSHL.c ****                                     CapSense_posFiltersData[posYIndex + 1u] = 
1732:.\Generated_Source\PSoC5/CapSense_CSHL.c ****                                                                             CapSense_posFiltersData
1733:.\Generated_Source\PSoC5/CapSense_CSHL.c ****                                     CapSense_posFiltersData[posYIndex] = tempPos;
1734:.\Generated_Source\PSoC5/CapSense_CSHL.c ****                                 }
1735:.\Generated_Source\PSoC5/CapSense_CSHL.c **** 
1736:.\Generated_Source\PSoC5/CapSense_CSHL.c ****                             #endif /* (0u != (CapSense_AVERAGING_FILTER & \
1737:.\Generated_Source\PSoC5/CapSense_CSHL.c ****                                    *           CapSense_TOUCH_PADS_POS_FILTERS_MASK))
1738:.\Generated_Source\PSoC5/CapSense_CSHL.c ****                                    */
1739:.\Generated_Source\PSoC5/CapSense_CSHL.c **** 
1740:.\Generated_Source\PSoC5/CapSense_CSHL.c ****                             #if (0u != (CapSense_IIR2_FILTER & CapSense_TOUCH_PADS_POS_FILTERS_MASK
1741:.\Generated_Source\PSoC5/CapSense_CSHL.c ****                                 if (0u != (posFiltersMask & CapSense_IIR2_FILTER))
1742:.\Generated_Source\PSoC5/CapSense_CSHL.c ****                                 {
1743:.\Generated_Source\PSoC5/CapSense_CSHL.c ****                                     posX = (uint8) CapSense_IIR2Filter(posX, 
1744:.\Generated_Source\PSoC5/CapSense_CSHL.c ****                                                                            CapSense_posFiltersData[
1745:.\Generated_Source\PSoC5/CapSense_CSHL.c ****                                     CapSense_posFiltersData[posXIndex] = posX;
1746:.\Generated_Source\PSoC5/CapSense_CSHL.c ****                                     
1747:.\Generated_Source\PSoC5/CapSense_CSHL.c ****                                     posY = (uint8) CapSense_IIR2Filter(posY, 
1748:.\Generated_Source\PSoC5/CapSense_CSHL.c ****                                                                             CapSense_posFiltersData
1749:.\Generated_Source\PSoC5/CapSense_CSHL.c ****                                     CapSense_posFiltersData[posYIndex] = posY;
1750:.\Generated_Source\PSoC5/CapSense_CSHL.c ****                                 }
1751:.\Generated_Source\PSoC5/CapSense_CSHL.c ****                                 
1752:.\Generated_Source\PSoC5/CapSense_CSHL.c ****                             #endif /* (0u != (CapSense_IIR2_FILTER & \
1753:.\Generated_Source\PSoC5/CapSense_CSHL.c ****                                    *          CapSense_TOUCH_PADS_POS_FILTERS_MASK))
1754:.\Generated_Source\PSoC5/CapSense_CSHL.c ****                                    */
1755:.\Generated_Source\PSoC5/CapSense_CSHL.c **** 
1756:.\Generated_Source\PSoC5/CapSense_CSHL.c ****                             #if (0u != (CapSense_IIR4_FILTER & CapSense_TOUCH_PADS_POS_FILTERS_MASK
1757:.\Generated_Source\PSoC5/CapSense_CSHL.c ****                                 if (0u != (posFiltersMask & CapSense_IIR4_FILTER))
1758:.\Generated_Source\PSoC5/CapSense_CSHL.c ****                                 {
1759:.\Generated_Source\PSoC5/CapSense_CSHL.c ****                                     posX = (uint8) CapSense_IIR4Filter((uint16)posX,
1760:.\Generated_Source\PSoC5/CapSense_CSHL.c ****                                                                     (uint16)CapSense_posFiltersData
1761:.\Generated_Source\PSoC5/CapSense_CSHL.c ****                                     CapSense_posFiltersData[posXIndex] = posX;
1762:.\Generated_Source\PSoC5/CapSense_CSHL.c **** 
1763:.\Generated_Source\PSoC5/CapSense_CSHL.c ****                                     posY = (uint8) CapSense_IIR4Filter((uint16)posY,
1764:.\Generated_Source\PSoC5/CapSense_CSHL.c ****                                                                     (uint16)CapSense_posFiltersData
1765:.\Generated_Source\PSoC5/CapSense_CSHL.c ****                                     CapSense_posFiltersData[posYIndex] = posY;
1766:.\Generated_Source\PSoC5/CapSense_CSHL.c ****                                 }
1767:.\Generated_Source\PSoC5/CapSense_CSHL.c ****                                 
1768:.\Generated_Source\PSoC5/CapSense_CSHL.c ****                             #endif /* (0u != (CapSense_IIR4_FILTER & \
1769:.\Generated_Source\PSoC5/CapSense_CSHL.c ****                                    *           CapSense_TOUCH_PADS_POS_FILTERS_MASK))
ARM GAS  C:\Users\Xwx47\AppData\Local\Temp\cchbaicN.s 			page 43


1770:.\Generated_Source\PSoC5/CapSense_CSHL.c ****                                    */
1771:.\Generated_Source\PSoC5/CapSense_CSHL.c **** 
1772:.\Generated_Source\PSoC5/CapSense_CSHL.c ****                             #if (0u != (CapSense_JITTER_FILTER & CapSense_TOUCH_PADS_POS_FILTERS_MA
1773:.\Generated_Source\PSoC5/CapSense_CSHL.c ****                                 if (0u != (posFiltersMask & CapSense_JITTER_FILTER))
1774:.\Generated_Source\PSoC5/CapSense_CSHL.c ****                                     {
1775:.\Generated_Source\PSoC5/CapSense_CSHL.c ****                                         posX = (uint8) CapSense_JitterFilter(posX, 
1776:.\Generated_Source\PSoC5/CapSense_CSHL.c ****                                                                             CapSense_posFiltersData
1777:.\Generated_Source\PSoC5/CapSense_CSHL.c ****                                         CapSense_posFiltersData[posXIndex] = posX;
1778:.\Generated_Source\PSoC5/CapSense_CSHL.c ****                                         
1779:.\Generated_Source\PSoC5/CapSense_CSHL.c ****                                         posY = (uint8) CapSense_JitterFilter(posY, 
1780:.\Generated_Source\PSoC5/CapSense_CSHL.c ****                                                                             CapSense_posFiltersData
1781:.\Generated_Source\PSoC5/CapSense_CSHL.c ****                                         CapSense_posFiltersData[posYIndex] = posY;
1782:.\Generated_Source\PSoC5/CapSense_CSHL.c ****                                     }
1783:.\Generated_Source\PSoC5/CapSense_CSHL.c ****                             #endif /* (0u != (CapSense_JITTER_FILTER & \
1784:.\Generated_Source\PSoC5/CapSense_CSHL.c ****                                    *           CapSense_TOUCH_PADS_POS_FILTERS_MASK))
1785:.\Generated_Source\PSoC5/CapSense_CSHL.c ****                                    */
1786:.\Generated_Source\PSoC5/CapSense_CSHL.c ****                         }
1787:.\Generated_Source\PSoC5/CapSense_CSHL.c ****                     }
1788:.\Generated_Source\PSoC5/CapSense_CSHL.c ****                 #endif /* (0u != CapSense_TOUCH_PADS_POS_FILTERS_MASK) */
1789:.\Generated_Source\PSoC5/CapSense_CSHL.c **** 
1790:.\Generated_Source\PSoC5/CapSense_CSHL.c ****                 /* Save positions */
1791:.\Generated_Source\PSoC5/CapSense_CSHL.c ****                 pos[0u] = posX;
1792:.\Generated_Source\PSoC5/CapSense_CSHL.c ****                 pos[1u] = posY;
1793:.\Generated_Source\PSoC5/CapSense_CSHL.c ****             }
1794:.\Generated_Source\PSoC5/CapSense_CSHL.c ****         }
1795:.\Generated_Source\PSoC5/CapSense_CSHL.c **** 
1796:.\Generated_Source\PSoC5/CapSense_CSHL.c ****         #if (0u != CapSense_TOUCH_PADS_POS_FILTERS_MASK)
1797:.\Generated_Source\PSoC5/CapSense_CSHL.c ****             if(touch == 0u)
1798:.\Generated_Source\PSoC5/CapSense_CSHL.c ****             {
1799:.\Generated_Source\PSoC5/CapSense_CSHL.c ****                 /* Reset the filters */
1800:.\Generated_Source\PSoC5/CapSense_CSHL.c ****                 if ((posFiltersMask & CapSense_ANY_POS_FILTER) != 0u)
1801:.\Generated_Source\PSoC5/CapSense_CSHL.c ****                 {
1802:.\Generated_Source\PSoC5/CapSense_CSHL.c ****                     CapSense_posFiltersData[firstTimeIndex] = 0u;
1803:.\Generated_Source\PSoC5/CapSense_CSHL.c ****                 }
1804:.\Generated_Source\PSoC5/CapSense_CSHL.c ****             }
1805:.\Generated_Source\PSoC5/CapSense_CSHL.c ****         #endif /* (0u != CapSense_TOUCH_PADS_POS_FILTERS_MASK) */
1806:.\Generated_Source\PSoC5/CapSense_CSHL.c ****         
1807:.\Generated_Source\PSoC5/CapSense_CSHL.c ****         return (touch);
1808:.\Generated_Source\PSoC5/CapSense_CSHL.c ****     }
1809:.\Generated_Source\PSoC5/CapSense_CSHL.c **** #endif /* (CapSense_TOTAL_TOUCH_PADS_COUNT > 0u) */
1810:.\Generated_Source\PSoC5/CapSense_CSHL.c **** 
1811:.\Generated_Source\PSoC5/CapSense_CSHL.c **** 
1812:.\Generated_Source\PSoC5/CapSense_CSHL.c **** #if ( (CapSense_RAW_FILTER_MASK & CapSense_MEDIAN_FILTER) | \
1813:.\Generated_Source\PSoC5/CapSense_CSHL.c ****       (CapSense_POS_FILTERS_MASK & CapSense_MEDIAN_FILTER) )
1814:.\Generated_Source\PSoC5/CapSense_CSHL.c ****     /*******************************************************************************
1815:.\Generated_Source\PSoC5/CapSense_CSHL.c ****     * Function Name: CapSense_MedianFilter
1816:.\Generated_Source\PSoC5/CapSense_CSHL.c ****     ********************************************************************************
1817:.\Generated_Source\PSoC5/CapSense_CSHL.c ****     *
1818:.\Generated_Source\PSoC5/CapSense_CSHL.c ****     * Summary:
1819:.\Generated_Source\PSoC5/CapSense_CSHL.c ****     *  Median filter function. 
1820:.\Generated_Source\PSoC5/CapSense_CSHL.c ****     *  The median filter looks at the three most recent samples and reports the 
1821:.\Generated_Source\PSoC5/CapSense_CSHL.c ****     *  median value.
1822:.\Generated_Source\PSoC5/CapSense_CSHL.c ****     *
1823:.\Generated_Source\PSoC5/CapSense_CSHL.c ****     * Parameters:
1824:.\Generated_Source\PSoC5/CapSense_CSHL.c ****     *  x1:  Current value.
1825:.\Generated_Source\PSoC5/CapSense_CSHL.c ****     *  x2:  Previous value.
1826:.\Generated_Source\PSoC5/CapSense_CSHL.c ****     *  x3:  Before previous value.
ARM GAS  C:\Users\Xwx47\AppData\Local\Temp\cchbaicN.s 			page 44


1827:.\Generated_Source\PSoC5/CapSense_CSHL.c ****     *
1828:.\Generated_Source\PSoC5/CapSense_CSHL.c ****     * Return:
1829:.\Generated_Source\PSoC5/CapSense_CSHL.c ****     *  Returns filtered value.
1830:.\Generated_Source\PSoC5/CapSense_CSHL.c ****     *
1831:.\Generated_Source\PSoC5/CapSense_CSHL.c ****     *******************************************************************************/
1832:.\Generated_Source\PSoC5/CapSense_CSHL.c ****     uint16 CapSense_MedianFilter(uint16 x1, uint16 x2, uint16 x3)
1833:.\Generated_Source\PSoC5/CapSense_CSHL.c ****                                          
1834:.\Generated_Source\PSoC5/CapSense_CSHL.c ****     {
1835:.\Generated_Source\PSoC5/CapSense_CSHL.c ****         uint16 tmp;
1836:.\Generated_Source\PSoC5/CapSense_CSHL.c ****         
1837:.\Generated_Source\PSoC5/CapSense_CSHL.c ****         if (x1 > x2)
1838:.\Generated_Source\PSoC5/CapSense_CSHL.c ****         {
1839:.\Generated_Source\PSoC5/CapSense_CSHL.c ****             tmp = x2;
1840:.\Generated_Source\PSoC5/CapSense_CSHL.c ****             x2 = x1;
1841:.\Generated_Source\PSoC5/CapSense_CSHL.c ****             x1 = tmp;
1842:.\Generated_Source\PSoC5/CapSense_CSHL.c ****         }
1843:.\Generated_Source\PSoC5/CapSense_CSHL.c ****         
1844:.\Generated_Source\PSoC5/CapSense_CSHL.c ****         if (x2 > x3)
1845:.\Generated_Source\PSoC5/CapSense_CSHL.c ****         {
1846:.\Generated_Source\PSoC5/CapSense_CSHL.c ****             x2 = x3;
1847:.\Generated_Source\PSoC5/CapSense_CSHL.c ****         }
1848:.\Generated_Source\PSoC5/CapSense_CSHL.c ****         
1849:.\Generated_Source\PSoC5/CapSense_CSHL.c ****         return ((x1 > x2) ? x1 : x2);
1850:.\Generated_Source\PSoC5/CapSense_CSHL.c ****     }
1851:.\Generated_Source\PSoC5/CapSense_CSHL.c **** #endif /* ( (CapSense_RAW_FILTER_MASK & CapSense_MEDIAN_FILTER) | \
1852:.\Generated_Source\PSoC5/CapSense_CSHL.c ****        *    (CapSense_POS_FILTERS_MASK & CapSense_MEDIAN_FILTER) )
1853:.\Generated_Source\PSoC5/CapSense_CSHL.c ****        */
1854:.\Generated_Source\PSoC5/CapSense_CSHL.c **** 
1855:.\Generated_Source\PSoC5/CapSense_CSHL.c **** 
1856:.\Generated_Source\PSoC5/CapSense_CSHL.c **** #if ( (CapSense_RAW_FILTER_MASK & CapSense_AVERAGING_FILTER) | \
1857:.\Generated_Source\PSoC5/CapSense_CSHL.c ****       (CapSense_POS_FILTERS_MASK & CapSense_AVERAGING_FILTER) )
1858:.\Generated_Source\PSoC5/CapSense_CSHL.c ****     /*******************************************************************************
1859:.\Generated_Source\PSoC5/CapSense_CSHL.c ****     * Function Name: CapSense_AveragingFilter
1860:.\Generated_Source\PSoC5/CapSense_CSHL.c ****     ********************************************************************************
1861:.\Generated_Source\PSoC5/CapSense_CSHL.c ****     *
1862:.\Generated_Source\PSoC5/CapSense_CSHL.c ****     * Summary:
1863:.\Generated_Source\PSoC5/CapSense_CSHL.c ****     *  Averaging filter function.
1864:.\Generated_Source\PSoC5/CapSense_CSHL.c ****     *  The averaging filter looks at the three most recent samples of position and
1865:.\Generated_Source\PSoC5/CapSense_CSHL.c ****     *  reports the averaging value.
1866:.\Generated_Source\PSoC5/CapSense_CSHL.c ****     *
1867:.\Generated_Source\PSoC5/CapSense_CSHL.c ****     * Parameters:
1868:.\Generated_Source\PSoC5/CapSense_CSHL.c ****     *  x1:  Current value.
1869:.\Generated_Source\PSoC5/CapSense_CSHL.c ****     *  x2:  Previous value.
1870:.\Generated_Source\PSoC5/CapSense_CSHL.c ****     *  x3:  Before previous value.
1871:.\Generated_Source\PSoC5/CapSense_CSHL.c ****     *
1872:.\Generated_Source\PSoC5/CapSense_CSHL.c ****     * Return:
1873:.\Generated_Source\PSoC5/CapSense_CSHL.c ****     *  Returns filtered value.
1874:.\Generated_Source\PSoC5/CapSense_CSHL.c ****     *
1875:.\Generated_Source\PSoC5/CapSense_CSHL.c ****     *******************************************************************************/
1876:.\Generated_Source\PSoC5/CapSense_CSHL.c ****     uint16 CapSense_AveragingFilter(uint16 x1, uint16 x2, uint16 x3)
1877:.\Generated_Source\PSoC5/CapSense_CSHL.c ****                                             
1878:.\Generated_Source\PSoC5/CapSense_CSHL.c ****     {
1879:.\Generated_Source\PSoC5/CapSense_CSHL.c ****         uint32 tmp = ((uint32)x1 + (uint32)x2 + (uint32)x3) / 3u;
1880:.\Generated_Source\PSoC5/CapSense_CSHL.c ****         
1881:.\Generated_Source\PSoC5/CapSense_CSHL.c ****         return ((uint16) tmp);
1882:.\Generated_Source\PSoC5/CapSense_CSHL.c ****     }
1883:.\Generated_Source\PSoC5/CapSense_CSHL.c **** #endif /* ( (CapSense_RAW_FILTER_MASK & CapSense_AVERAGING_FILTER) | \
ARM GAS  C:\Users\Xwx47\AppData\Local\Temp\cchbaicN.s 			page 45


1884:.\Generated_Source\PSoC5/CapSense_CSHL.c ****        *    (CapSense_POS_FILTERS_MASK & CapSense_AVERAGING_FILTER) )
1885:.\Generated_Source\PSoC5/CapSense_CSHL.c ****        */
1886:.\Generated_Source\PSoC5/CapSense_CSHL.c **** 
1887:.\Generated_Source\PSoC5/CapSense_CSHL.c **** 
1888:.\Generated_Source\PSoC5/CapSense_CSHL.c **** #if ( (CapSense_RAW_FILTER_MASK & CapSense_IIR2_FILTER) | \
1889:.\Generated_Source\PSoC5/CapSense_CSHL.c ****       (CapSense_POS_FILTERS_MASK & CapSense_IIR2_FILTER) )
1890:.\Generated_Source\PSoC5/CapSense_CSHL.c ****     /*******************************************************************************
1891:.\Generated_Source\PSoC5/CapSense_CSHL.c ****     * Function Name: CapSense_IIR2Filter
1892:.\Generated_Source\PSoC5/CapSense_CSHL.c ****     ********************************************************************************
1893:.\Generated_Source\PSoC5/CapSense_CSHL.c ****     *
1894:.\Generated_Source\PSoC5/CapSense_CSHL.c ****     * Summary:
1895:.\Generated_Source\PSoC5/CapSense_CSHL.c ****     *  IIR1/2 filter function. IIR1/2 = 1/2current + 1/2previous.
1896:.\Generated_Source\PSoC5/CapSense_CSHL.c ****     *
1897:.\Generated_Source\PSoC5/CapSense_CSHL.c ****     * Parameters:
1898:.\Generated_Source\PSoC5/CapSense_CSHL.c ****     *  x1:  Current value.
1899:.\Generated_Source\PSoC5/CapSense_CSHL.c ****     *  x2:  Previous value.
1900:.\Generated_Source\PSoC5/CapSense_CSHL.c ****     *
1901:.\Generated_Source\PSoC5/CapSense_CSHL.c ****     * Return:
1902:.\Generated_Source\PSoC5/CapSense_CSHL.c ****     *  Returns filtered value.
1903:.\Generated_Source\PSoC5/CapSense_CSHL.c ****     *
1904:.\Generated_Source\PSoC5/CapSense_CSHL.c ****     *******************************************************************************/
1905:.\Generated_Source\PSoC5/CapSense_CSHL.c ****     uint16 CapSense_IIR2Filter(uint16 x1, uint16 x2)
1906:.\Generated_Source\PSoC5/CapSense_CSHL.c ****                                        
1907:.\Generated_Source\PSoC5/CapSense_CSHL.c ****     {
1908:.\Generated_Source\PSoC5/CapSense_CSHL.c ****         uint32 tmp;
1909:.\Generated_Source\PSoC5/CapSense_CSHL.c ****         
1910:.\Generated_Source\PSoC5/CapSense_CSHL.c ****         /* IIR = 1/2 Current Value+ 1/2 Previous Value */
1911:.\Generated_Source\PSoC5/CapSense_CSHL.c ****         tmp = (uint32)x1 + (uint32)x2;
1912:.\Generated_Source\PSoC5/CapSense_CSHL.c ****         tmp >>= 1u;
1913:.\Generated_Source\PSoC5/CapSense_CSHL.c ****     
1914:.\Generated_Source\PSoC5/CapSense_CSHL.c ****         return ((uint16) tmp);
1915:.\Generated_Source\PSoC5/CapSense_CSHL.c ****     }
1916:.\Generated_Source\PSoC5/CapSense_CSHL.c **** #endif /* ( (CapSense_RAW_FILTER_MASK & CapSense_IIR2_FILTER) | \
1917:.\Generated_Source\PSoC5/CapSense_CSHL.c ****        *    (CapSense_POS_FILTERS_MASK & CapSense_IIR2_FILTER) )
1918:.\Generated_Source\PSoC5/CapSense_CSHL.c ****        */
1919:.\Generated_Source\PSoC5/CapSense_CSHL.c **** 
1920:.\Generated_Source\PSoC5/CapSense_CSHL.c **** 
1921:.\Generated_Source\PSoC5/CapSense_CSHL.c **** #if ( (CapSense_RAW_FILTER_MASK & CapSense_IIR4_FILTER) | \
1922:.\Generated_Source\PSoC5/CapSense_CSHL.c ****       (CapSense_POS_FILTERS_MASK & CapSense_IIR4_FILTER) )
1923:.\Generated_Source\PSoC5/CapSense_CSHL.c ****     /*******************************************************************************
1924:.\Generated_Source\PSoC5/CapSense_CSHL.c ****     * Function Name: CapSense_IIR4Filter
1925:.\Generated_Source\PSoC5/CapSense_CSHL.c ****     ********************************************************************************
1926:.\Generated_Source\PSoC5/CapSense_CSHL.c ****     *
1927:.\Generated_Source\PSoC5/CapSense_CSHL.c ****     * Summary:
1928:.\Generated_Source\PSoC5/CapSense_CSHL.c ****     *  IIR1/4 filter function. IIR1/4 = 1/4current + 3/4previous.
1929:.\Generated_Source\PSoC5/CapSense_CSHL.c ****     *
1930:.\Generated_Source\PSoC5/CapSense_CSHL.c ****     * Parameters:
1931:.\Generated_Source\PSoC5/CapSense_CSHL.c ****     *  x1:  Current value.
1932:.\Generated_Source\PSoC5/CapSense_CSHL.c ****     *  x2:  Previous value.
1933:.\Generated_Source\PSoC5/CapSense_CSHL.c ****     *
1934:.\Generated_Source\PSoC5/CapSense_CSHL.c ****     * Return:
1935:.\Generated_Source\PSoC5/CapSense_CSHL.c ****     *  Returns filtered value.
1936:.\Generated_Source\PSoC5/CapSense_CSHL.c ****     *
1937:.\Generated_Source\PSoC5/CapSense_CSHL.c ****     *******************************************************************************/
1938:.\Generated_Source\PSoC5/CapSense_CSHL.c ****     uint16 CapSense_IIR4Filter(uint16 x1, uint16 x2)
1939:.\Generated_Source\PSoC5/CapSense_CSHL.c ****                                        
1940:.\Generated_Source\PSoC5/CapSense_CSHL.c ****     {
ARM GAS  C:\Users\Xwx47\AppData\Local\Temp\cchbaicN.s 			page 46


 610              		.loc 1 1940 0
 611              		.cfi_startproc
 612              		@ args = 0, pretend = 0, frame = 0
 613              		@ frame_needed = 0, uses_anonymous_args = 0
 614              		@ link register save eliminated.
 615              	.LVL68:
1941:.\Generated_Source\PSoC5/CapSense_CSHL.c ****         uint32 tmp;
1942:.\Generated_Source\PSoC5/CapSense_CSHL.c ****         
1943:.\Generated_Source\PSoC5/CapSense_CSHL.c ****         /* IIR = 1/4 Current Value + 3/4 Previous Value */
1944:.\Generated_Source\PSoC5/CapSense_CSHL.c ****         tmp = (uint32)x1 + (uint32)x2;
 616              		.loc 1 1944 0
 617 0000 00EB4100 		add	r0, r0, r1, lsl #1
 618              	.LVL69:
1945:.\Generated_Source\PSoC5/CapSense_CSHL.c ****         tmp += ((uint32)x2 << 1u);
 619              		.loc 1 1945 0
 620 0004 0844     		add	r0, r0, r1
 621              	.LVL70:
1946:.\Generated_Source\PSoC5/CapSense_CSHL.c ****         tmp >>= 2u;
1947:.\Generated_Source\PSoC5/CapSense_CSHL.c ****         
1948:.\Generated_Source\PSoC5/CapSense_CSHL.c ****         return ((uint16) tmp);
1949:.\Generated_Source\PSoC5/CapSense_CSHL.c ****     }
 622              		.loc 1 1949 0
 623 0006 C0F38F00 		ubfx	r0, r0, #2, #16
 624              	.LVL71:
 625 000a 7047     		bx	lr
 626              		.cfi_endproc
 627              	.LFE11:
 628              		.size	CapSense_IIR4Filter, .-CapSense_IIR4Filter
 629              		.section	.text.CapSense_UpdateSensorBaseline,"ax",%progbits
 630              		.align	2
 631              		.global	CapSense_UpdateSensorBaseline
 632              		.thumb
 633              		.thumb_func
 634              		.type	CapSense_UpdateSensorBaseline, %function
 635              	CapSense_UpdateSensorBaseline:
 636              	.LFB4:
 352:.\Generated_Source\PSoC5/CapSense_CSHL.c **** {
 637              		.loc 1 352 0
 638              		.cfi_startproc
 639              		@ args = 0, pretend = 0, frame = 0
 640              		@ frame_needed = 0, uses_anonymous_args = 0
 641              	.LVL72:
 642 0000 2DE9F041 		push	{r4, r5, r6, r7, r8, lr}
 643              		.cfi_def_cfa_offset 24
 644              		.cfi_offset 4, -24
 645              		.cfi_offset 5, -20
 646              		.cfi_offset 6, -16
 647              		.cfi_offset 7, -12
 648              		.cfi_offset 8, -8
 649              		.cfi_offset 14, -4
 650 0004 0446     		mov	r4, r0
 356:.\Generated_Source\PSoC5/CapSense_CSHL.c ****     uint8 widget = CapSense_widgetNumber[sensor];
 651              		.loc 1 356 0
 652 0006 304B     		ldr	r3, .L60
 653 0008 1B5C     		ldrb	r3, [r3, r0]	@ zero_extendqisi2
 654              	.LVL73:
 357:.\Generated_Source\PSoC5/CapSense_CSHL.c ****     uint8 noiseThreshold = CapSense_noiseThreshold[widget];
ARM GAS  C:\Users\Xwx47\AppData\Local\Temp\cchbaicN.s 			page 47


 655              		.loc 1 357 0
 656 000a 304A     		ldr	r2, .L60+4
 657 000c 1344     		add	r3, r3, r2
 658 000e 1F7B     		ldrb	r7, [r3, #12]	@ zero_extendqisi2
 659              	.LVL74:
 386:.\Generated_Source\PSoC5/CapSense_CSHL.c ****         filteredRawData = CapSense_IIR4Filter(filteredRawData, CapSense_rawFilterData1[sensor]);
 660              		.loc 1 386 0
 661 0010 2F4E     		ldr	r6, .L60+8
 662 0012 304B     		ldr	r3, .L60+12
 663              	.LVL75:
 664 0014 33F81000 		ldrh	r0, [r3, r0, lsl #1]
 665              	.LVL76:
 666 0018 36F81410 		ldrh	r1, [r6, r4, lsl #1]
 667 001c FFF7FEFF 		bl	CapSense_IIR4Filter
 668              	.LVL77:
 669 0020 0546     		mov	r5, r0
 670              	.LVL78:
 387:.\Generated_Source\PSoC5/CapSense_CSHL.c ****         CapSense_rawFilterData1[sensor] = filteredRawData;
 671              		.loc 1 387 0
 672 0022 26F81400 		strh	r0, [r6, r4, lsl #1]	@ movhi
 406:.\Generated_Source\PSoC5/CapSense_CSHL.c ****         CapSense_CalculateThresholds(sensor);
 673              		.loc 1 406 0
 674 0026 2046     		mov	r0, r4
 675              	.LVL79:
 676 0028 FFF7FEFF 		bl	CapSense_CalculateThresholds
 677              	.LVL80:
 412:.\Generated_Source\PSoC5/CapSense_CSHL.c ****     if(filteredRawData >= CapSense_sensorBaseline[sensor])
 678              		.loc 1 412 0
 679 002c 2A4B     		ldr	r3, .L60+16
 680 002e 33F81430 		ldrh	r3, [r3, r4, lsl #1]
 681 0032 AB42     		cmp	r3, r5
 682 0034 04D8     		bhi	.L51
 414:.\Generated_Source\PSoC5/CapSense_CSHL.c ****         tempRaw = filteredRawData - CapSense_sensorBaseline[sensor];
 683              		.loc 1 414 0
 684 0036 EE1A     		subs	r6, r5, r3
 685 0038 B6B2     		uxth	r6, r6
 686              	.LVL81:
 415:.\Generated_Source\PSoC5/CapSense_CSHL.c ****         widget = 1u;    /* Positive difference - Calculate the Signal */
 687              		.loc 1 415 0
 688 003a 4FF00108 		mov	r8, #1
 689 003e 03E0     		b	.L52
 690              	.LVL82:
 691              	.L51:
 419:.\Generated_Source\PSoC5/CapSense_CSHL.c ****         tempRaw = CapSense_sensorBaseline[sensor] - filteredRawData;
 692              		.loc 1 419 0
 693 0040 5E1B     		subs	r6, r3, r5
 694 0042 B6B2     		uxth	r6, r6
 695              	.LVL83:
 420:.\Generated_Source\PSoC5/CapSense_CSHL.c ****         widget = 0u;    /* Negative difference - Do NOT calculate the Signal */
 696              		.loc 1 420 0
 697 0044 4FF00008 		mov	r8, #0
 698              	.LVL84:
 699              	.L52:
 423:.\Generated_Source\PSoC5/CapSense_CSHL.c ****     if((widget == 0u) && (tempRaw > (uint16) CapSense_NEGATIVE_NOISE_THRESHOLD))
 700              		.loc 1 423 0
 701 0048 B8F1000F 		cmp	r8, #0
 702 004c 10D1     		bne	.L53
ARM GAS  C:\Users\Xwx47\AppData\Local\Temp\cchbaicN.s 			page 48


 423:.\Generated_Source\PSoC5/CapSense_CSHL.c ****     if((widget == 0u) && (tempRaw > (uint16) CapSense_NEGATIVE_NOISE_THRESHOLD))
 703              		.loc 1 423 0 is_stmt 0 discriminator 1
 704 004e 142E     		cmp	r6, #20
 705 0050 0ED9     		bls	.L53
 425:.\Generated_Source\PSoC5/CapSense_CSHL.c ****         if(CapSense_lowBaselineResetCnt[sensor] >= CapSense_LOW_BASELINE_RESET)
 706              		.loc 1 425 0 is_stmt 1
 707 0052 224B     		ldr	r3, .L60+20
 708 0054 1B5D     		ldrb	r3, [r3, r4]	@ zero_extendqisi2
 709 0056 042B     		cmp	r3, #4
 710 0058 06D9     		bls	.L54
 427:.\Generated_Source\PSoC5/CapSense_CSHL.c ****             CapSense_BaseInit(sensor);
 711              		.loc 1 427 0
 712 005a 2046     		mov	r0, r4
 713 005c FFF7FEFF 		bl	CapSense_BaseInit
 714              	.LVL85:
 428:.\Generated_Source\PSoC5/CapSense_CSHL.c ****             CapSense_lowBaselineResetCnt[sensor] = 0u;
 715              		.loc 1 428 0
 716 0060 0022     		movs	r2, #0
 717 0062 1E4B     		ldr	r3, .L60+20
 718 0064 1A55     		strb	r2, [r3, r4]
 719 0066 19E0     		b	.L55
 720              	.L54:
 432:.\Generated_Source\PSoC5/CapSense_CSHL.c ****             CapSense_lowBaselineResetCnt[sensor]++;
 721              		.loc 1 432 0
 722 0068 0133     		adds	r3, r3, #1
 723 006a 1C4A     		ldr	r2, .L60+20
 724 006c 1355     		strb	r3, [r2, r4]
 725 006e 15E0     		b	.L55
 726              	.L53:
 439:.\Generated_Source\PSoC5/CapSense_CSHL.c ****             if ( (tempRaw <= (uint16) noiseThreshold) || 
 727              		.loc 1 439 0
 728 0070 B742     		cmp	r7, r6
 729 0072 04D2     		bcs	.L56
 439:.\Generated_Source\PSoC5/CapSense_CSHL.c ****             if ( (tempRaw <= (uint16) noiseThreshold) || 
 730              		.loc 1 439 0 is_stmt 0 discriminator 1
 731 0074 132E     		cmp	r6, #19
 732 0076 11D8     		bhi	.L55
 441:.\Generated_Source\PSoC5/CapSense_CSHL.c ****                    && (widget == 0u)))
 733              		.loc 1 441 0 is_stmt 1
 734 0078 B8F1000F 		cmp	r8, #0
 735 007c 0ED1     		bne	.L55
 736              	.L56:
 737              	.LVL86:
 446:.\Generated_Source\PSoC5/CapSense_CSHL.c ****                 calc |= (uint32) CapSense_sensorBaselineLow[sensor];
 738              		.loc 1 446 0
 739 007e 184A     		ldr	r2, .L60+24
 740 0080 115D     		ldrb	r1, [r2, r4]	@ zero_extendqisi2
 741 0082 41EA0321 		orr	r1, r1, r3, lsl #8
 742              	.LVL87:
 449:.\Generated_Source\PSoC5/CapSense_CSHL.c ****                 calc += filteredRawData;
 743              		.loc 1 449 0
 744 0086 0D44     		add	r5, r5, r1
 745              	.LVL88:
 452:.\Generated_Source\PSoC5/CapSense_CSHL.c ****                 calc -= CapSense_sensorBaseline[sensor];
 746              		.loc 1 452 0
 747 0088 EB1A     		subs	r3, r5, r3
 748              	.LVL89:
ARM GAS  C:\Users\Xwx47\AppData\Local\Temp\cchbaicN.s 			page 49


 455:.\Generated_Source\PSoC5/CapSense_CSHL.c ****                 CapSense_sensorBaseline[sensor] = ((uint16) (calc >> 8u));
 749              		.loc 1 455 0
 750 008a C3F30F20 		ubfx	r0, r3, #8, #16
 751 008e 1249     		ldr	r1, .L60+16
 752 0090 21F81400 		strh	r0, [r1, r4, lsl #1]	@ movhi
 456:.\Generated_Source\PSoC5/CapSense_CSHL.c ****                 CapSense_sensorBaselineLow[sensor] = ((uint8) calc);
 753              		.loc 1 456 0
 754 0094 1355     		strb	r3, [r2, r4]
 458:.\Generated_Source\PSoC5/CapSense_CSHL.c ****                 CapSense_lowBaselineResetCnt[sensor] = 0u;
 755              		.loc 1 458 0
 756 0096 0022     		movs	r2, #0
 757 0098 104B     		ldr	r3, .L60+20
 758              	.LVL90:
 759 009a 1A55     		strb	r2, [r3, r4]
 760              	.L55:
 465:.\Generated_Source\PSoC5/CapSense_CSHL.c ****     if((tempRaw > (uint16) noiseThreshold) && (widget != 0u))
 761              		.loc 1 465 0
 762 009c B742     		cmp	r7, r6
 763 009e 0DD2     		bcs	.L57
 465:.\Generated_Source\PSoC5/CapSense_CSHL.c ****     if((tempRaw > (uint16) noiseThreshold) && (widget != 0u))
 764              		.loc 1 465 0 is_stmt 0 discriminator 1
 765 00a0 B8F1000F 		cmp	r8, #0
 766 00a4 0AD0     		beq	.L57
 469:.\Generated_Source\PSoC5/CapSense_CSHL.c ****             if (tempRaw > 0xFFu)
 767              		.loc 1 469 0 is_stmt 1
 768 00a6 FF2E     		cmp	r6, #255
 769 00a8 04D9     		bls	.L58
 471:.\Generated_Source\PSoC5/CapSense_CSHL.c ****                 CapSense_sensorSignal[sensor] = 0xFFu;
 770              		.loc 1 471 0
 771 00aa FF22     		movs	r2, #255
 772 00ac 0D4B     		ldr	r3, .L60+28
 773 00ae 1A55     		strb	r2, [r3, r4]
 774 00b0 BDE8F081 		pop	{r4, r5, r6, r7, r8, pc}
 775              	.LVL91:
 776              	.L58:
 475:.\Generated_Source\PSoC5/CapSense_CSHL.c ****                 CapSense_sensorSignal[sensor] = ((uint8) tempRaw);
 777              		.loc 1 475 0
 778 00b4 0B4B     		ldr	r3, .L60+28
 779 00b6 1E55     		strb	r6, [r3, r4]
 780 00b8 BDE8F081 		pop	{r4, r5, r6, r7, r8, pc}
 781              	.LVL92:
 782              	.L57:
 484:.\Generated_Source\PSoC5/CapSense_CSHL.c ****         CapSense_sensorSignal[sensor] = 0u;
 783              		.loc 1 484 0
 784 00bc 0022     		movs	r2, #0
 785 00be 094B     		ldr	r3, .L60+28
 786 00c0 1A55     		strb	r2, [r3, r4]
 787 00c2 BDE8F081 		pop	{r4, r5, r6, r7, r8, pc}
 788              	.LVL93:
 789              	.L61:
 790 00c6 00BF     		.align	2
 791              	.L60:
 792 00c8 00000000 		.word	CapSense_widgetNumber
 793 00cc 00000000 		.word	.LANCHOR0
 794 00d0 00000000 		.word	CapSense_rawFilterData1
 795 00d4 00000000 		.word	CapSense_sensorRaw
 796 00d8 00000000 		.word	CapSense_sensorBaseline
ARM GAS  C:\Users\Xwx47\AppData\Local\Temp\cchbaicN.s 			page 50


 797 00dc 00000000 		.word	CapSense_lowBaselineResetCnt
 798 00e0 00000000 		.word	CapSense_sensorBaselineLow
 799 00e4 00000000 		.word	CapSense_sensorSignal
 800              		.cfi_endproc
 801              	.LFE4:
 802              		.size	CapSense_UpdateSensorBaseline, .-CapSense_UpdateSensorBaseline
 803              		.section	.text.CapSense_UpdateEnabledBaselines,"ax",%progbits
 804              		.align	2
 805              		.global	CapSense_UpdateEnabledBaselines
 806              		.thumb
 807              		.thumb_func
 808              		.type	CapSense_UpdateEnabledBaselines, %function
 809              	CapSense_UpdateEnabledBaselines:
 810              	.LFB5:
 525:.\Generated_Source\PSoC5/CapSense_CSHL.c **** {
 811              		.loc 1 525 0
 812              		.cfi_startproc
 813              		@ args = 0, pretend = 0, frame = 0
 814              		@ frame_needed = 0, uses_anonymous_args = 0
 815 0000 70B5     		push	{r4, r5, r6, lr}
 816              		.cfi_def_cfa_offset 16
 817              		.cfi_offset 4, -16
 818              		.cfi_offset 5, -12
 819              		.cfi_offset 6, -8
 820              		.cfi_offset 14, -4
 821              	.LVL94:
 530:.\Generated_Source\PSoC5/CapSense_CSHL.c ****     for(i = 0u; i < CapSense_TOTAL_SENSOR_COUNT; i++)
 822              		.loc 1 530 0
 823 0002 0024     		movs	r4, #0
 533:.\Generated_Source\PSoC5/CapSense_CSHL.c ****         enMask = (uint8)(0x01u << (i & 0x07u));
 824              		.loc 1 533 0
 825 0004 0126     		movs	r6, #1
 534:.\Generated_Source\PSoC5/CapSense_CSHL.c ****         if((CapSense_sensorEnableMask[pos] & enMask) != 0u)
 826              		.loc 1 534 0
 827 0006 094D     		ldr	r5, .L66
 530:.\Generated_Source\PSoC5/CapSense_CSHL.c ****     for(i = 0u; i < CapSense_TOTAL_SENSOR_COUNT; i++)
 828              		.loc 1 530 0
 829 0008 0CE0     		b	.L63
 830              	.LVL95:
 831              	.L65:
 532:.\Generated_Source\PSoC5/CapSense_CSHL.c ****         pos = (i >> 3u);
 832              		.loc 1 532 0
 833 000a E308     		lsrs	r3, r4, #3
 533:.\Generated_Source\PSoC5/CapSense_CSHL.c ****         enMask = (uint8)(0x01u << (i & 0x07u));
 834              		.loc 1 533 0
 835 000c 04F00702 		and	r2, r4, #7
 836 0010 06FA02F2 		lsl	r2, r6, r2
 837              	.LVL96:
 534:.\Generated_Source\PSoC5/CapSense_CSHL.c ****         if((CapSense_sensorEnableMask[pos] & enMask) != 0u)
 838              		.loc 1 534 0
 839 0014 EB5C     		ldrb	r3, [r5, r3]	@ zero_extendqisi2
 840 0016 1A42     		tst	r2, r3
 841 0018 02D0     		beq	.L64
 536:.\Generated_Source\PSoC5/CapSense_CSHL.c ****             CapSense_UpdateSensorBaseline(i);
 842              		.loc 1 536 0
 843 001a 2046     		mov	r0, r4
 844 001c FFF7FEFF 		bl	CapSense_UpdateSensorBaseline
ARM GAS  C:\Users\Xwx47\AppData\Local\Temp\cchbaicN.s 			page 51


 845              	.LVL97:
 846              	.L64:
 530:.\Generated_Source\PSoC5/CapSense_CSHL.c ****     for(i = 0u; i < CapSense_TOTAL_SENSOR_COUNT; i++)
 847              		.loc 1 530 0
 848 0020 0134     		adds	r4, r4, #1
 849              	.LVL98:
 850 0022 E4B2     		uxtb	r4, r4
 851              	.LVL99:
 852              	.L63:
 530:.\Generated_Source\PSoC5/CapSense_CSHL.c ****     for(i = 0u; i < CapSense_TOTAL_SENSOR_COUNT; i++)
 853              		.loc 1 530 0 is_stmt 0 discriminator 1
 854 0024 022C     		cmp	r4, #2
 855 0026 F0D9     		bls	.L65
 539:.\Generated_Source\PSoC5/CapSense_CSHL.c **** }
 856              		.loc 1 539 0 is_stmt 1
 857 0028 70BD     		pop	{r4, r5, r6, pc}
 858              	.LVL100:
 859              	.L67:
 860 002a 00BF     		.align	2
 861              	.L66:
 862 002c 00000000 		.word	CapSense_sensorEnableMask
 863              		.cfi_endproc
 864              	.LFE5:
 865              		.size	CapSense_UpdateEnabledBaselines, .-CapSense_UpdateEnabledBaselines
 866              		.global	CapSense_numberOfSensors
 867              		.global	CapSense_rawDataIndex
 868              		.global	CapSense_debounceCounter
 869              		.global	CapSense_debounce
 870              		.global	CapSense_hysteresis
 871              		.global	CapSense_noiseThreshold
 872              		.global	CapSense_fingerThreshold
 873              		.comm	CapSense_lowBaselineResetCnt,3,4
 874              		.comm	CapSense_sensorOnMask,1,4
 875              		.comm	CapSense_sensorSignal,3,4
 876              		.comm	CapSense_sensorBaselineLow,3,4
 877              		.comm	CapSense_sensorBaseline,6,4
 878              		.comm	CapSense_rawFilterData1,6,4
 879              		.section	.rodata
 880              		.align	2
 881              		.set	.LANCHOR2,. + 0
 882              		.type	CapSense_rawDataIndex, %object
 883              		.size	CapSense_rawDataIndex, 3
 884              	CapSense_rawDataIndex:
 885 0000 00       		.byte	0
 886 0001 01       		.byte	1
 887 0002 02       		.byte	2
 888 0003 00       		.space	1
 889              		.type	CapSense_numberOfSensors, %object
 890              		.size	CapSense_numberOfSensors, 3
 891              	CapSense_numberOfSensors:
 892 0004 01       		.byte	1
 893 0005 01       		.byte	1
 894 0006 01       		.byte	1
 895 0007 00       		.data
 896              		.align	2
 897              		.set	.LANCHOR0,. + 0
 898              		.type	CapSense_debounce, %object
ARM GAS  C:\Users\Xwx47\AppData\Local\Temp\cchbaicN.s 			page 52


 899              		.size	CapSense_debounce, 3
 900              	CapSense_debounce:
 901 0000 01       		.byte	1
 902 0001 01       		.byte	1
 903 0002 01       		.byte	1
 904 0003 00       		.space	1
 905              		.type	CapSense_fingerThreshold, %object
 906              		.size	CapSense_fingerThreshold, 3
 907              	CapSense_fingerThreshold:
 908 0004 64       		.byte	100
 909 0005 64       		.byte	100
 910 0006 64       		.byte	100
 911 0007 00       		.space	1
 912              		.type	CapSense_hysteresis, %object
 913              		.size	CapSense_hysteresis, 3
 914              	CapSense_hysteresis:
 915 0008 0A       		.byte	10
 916 0009 0A       		.byte	10
 917 000a 0A       		.byte	10
 918 000b 00       		.space	1
 919              		.type	CapSense_noiseThreshold, %object
 920              		.size	CapSense_noiseThreshold, 3
 921              	CapSense_noiseThreshold:
 922 000c 14       		.byte	20
 923 000d 14       		.byte	20
 924 000e 14       		.byte	20
 925 000f 00       		.bss
 926              		.align	2
 927              		.set	.LANCHOR1,. + 0
 928              		.type	CapSense_debounceCounter, %object
 929              		.size	CapSense_debounceCounter, 4
 930              	CapSense_debounceCounter:
 931 0000 00000000 		.space	4
 932              		.text
 933              	.Letext0:
 934              		.file 2 ".\\Generated_Source\\PSoC5\\cytypes.h"
 935              		.file 3 ".\\Generated_Source\\PSoC5\\CapSense.h"
 936              		.file 4 ".\\Generated_Source\\PSoC5\\CapSense_CSHL.h"