ARM GAS  C:\Users\Xwx47\AppData\Local\Temp\cc2aPcLn.s 			page 1


   1              		.syntax unified
   2              		.cpu cortex-m3
   3              		.fpu softvfp
   4              		.eabi_attribute 20, 1
   5              		.eabi_attribute 21, 1
   6              		.eabi_attribute 23, 3
   7              		.eabi_attribute 24, 1
   8              		.eabi_attribute 25, 1
   9              		.eabi_attribute 26, 1
  10              		.eabi_attribute 30, 1
  11              		.eabi_attribute 34, 1
  12              		.eabi_attribute 18, 4
  13              		.thumb
  14              		.file	"CapSense_SMS_Wrapper.c"
  15              		.text
  16              	.Ltext0:
  17              		.cfi_sections	.debug_frame
  18              		.section	.text.SMS_LIB_ScanSensor,"ax",%progbits
  19              		.align	2
  20              		.global	SMS_LIB_ScanSensor
  21              		.thumb
  22              		.thumb_func
  23              		.type	SMS_LIB_ScanSensor, %function
  24              	SMS_LIB_ScanSensor:
  25              	.LFB0:
  26              		.file 1 ".\\Generated_Source\\PSoC5\\CapSense_SMS_Wrapper.c"
   1:.\Generated_Source\PSoC5/CapSense_SMS_Wrapper.c **** /*******************************************************************************
   2:.\Generated_Source\PSoC5/CapSense_SMS_Wrapper.c **** * File Name: CapSense_SMS_Wrapper.c
   3:.\Generated_Source\PSoC5/CapSense_SMS_Wrapper.c **** * Version 3.50
   4:.\Generated_Source\PSoC5/CapSense_SMS_Wrapper.c **** *
   5:.\Generated_Source\PSoC5/CapSense_SMS_Wrapper.c **** * Description:
   6:.\Generated_Source\PSoC5/CapSense_SMS_Wrapper.c **** *  This file provides the source code of wrapper between CapSense CSD component 
   7:.\Generated_Source\PSoC5/CapSense_SMS_Wrapper.c **** *  and Auto Tuning library.
   8:.\Generated_Source\PSoC5/CapSense_SMS_Wrapper.c **** *
   9:.\Generated_Source\PSoC5/CapSense_SMS_Wrapper.c **** * Note:
  10:.\Generated_Source\PSoC5/CapSense_SMS_Wrapper.c **** *
  11:.\Generated_Source\PSoC5/CapSense_SMS_Wrapper.c **** ********************************************************************************
  12:.\Generated_Source\PSoC5/CapSense_SMS_Wrapper.c **** * Copyright 2008-2012, Cypress Semiconductor Corporation.  All rights reserved.
  13:.\Generated_Source\PSoC5/CapSense_SMS_Wrapper.c **** * You may use this file only in accordance with the license, terms, conditions,
  14:.\Generated_Source\PSoC5/CapSense_SMS_Wrapper.c **** * disclaimers, and limitations in the end user license agreement accompanying
  15:.\Generated_Source\PSoC5/CapSense_SMS_Wrapper.c **** * the software package with which this file was provided.
  16:.\Generated_Source\PSoC5/CapSense_SMS_Wrapper.c **** *******************************************************************************/
  17:.\Generated_Source\PSoC5/CapSense_SMS_Wrapper.c **** 
  18:.\Generated_Source\PSoC5/CapSense_SMS_Wrapper.c **** #include "CapSense.h"
  19:.\Generated_Source\PSoC5/CapSense_SMS_Wrapper.c **** #include "CapSense_CSHL.h"
  20:.\Generated_Source\PSoC5/CapSense_SMS_Wrapper.c **** 
  21:.\Generated_Source\PSoC5/CapSense_SMS_Wrapper.c **** #if (CapSense_TUNING_METHOD == CapSense_AUTO_TUNING)
  22:.\Generated_Source\PSoC5/CapSense_SMS_Wrapper.c **** 
  23:.\Generated_Source\PSoC5/CapSense_SMS_Wrapper.c **** extern uint8 CapSense_noiseThreshold[CapSense_WIDGET_CSHL_PARAMETERS_COUNT];
  24:.\Generated_Source\PSoC5/CapSense_SMS_Wrapper.c **** extern uint8 CapSense_hysteresis[CapSense_WIDGET_CSHL_PARAMETERS_COUNT];
  25:.\Generated_Source\PSoC5/CapSense_SMS_Wrapper.c **** extern uint8 CapSense_widgetResolution[CapSense_WIDGET_RESOLUTION_PARAMETERS_COUNT];
  26:.\Generated_Source\PSoC5/CapSense_SMS_Wrapper.c **** extern const uint8 CYCODE CapSense_numberOfSensors[CapSense_SENSORS_TBL_SIZE];
  27:.\Generated_Source\PSoC5/CapSense_SMS_Wrapper.c **** extern const uint8 CYCODE CapSense_rawDataIndex[CapSense_SENSORS_TBL_SIZE];
  28:.\Generated_Source\PSoC5/CapSense_SMS_Wrapper.c **** 
  29:.\Generated_Source\PSoC5/CapSense_SMS_Wrapper.c **** extern uint8 CapSense_fingerThreshold[CapSense_WIDGET_CSHL_PARAMETERS_COUNT];
  30:.\Generated_Source\PSoC5/CapSense_SMS_Wrapper.c **** extern uint8 CapSense_idacSettings[CapSense_TOTAL_SENSOR_COUNT];
  31:.\Generated_Source\PSoC5/CapSense_SMS_Wrapper.c **** extern uint8 CapSense_analogSwitchDivider[CapSense_TOTAL_SCANSLOT_COUNT];
ARM GAS  C:\Users\Xwx47\AppData\Local\Temp\cc2aPcLn.s 			page 2


  32:.\Generated_Source\PSoC5/CapSense_SMS_Wrapper.c **** 
  33:.\Generated_Source\PSoC5/CapSense_SMS_Wrapper.c **** extern void SMS_LIB_V3_50_CalculateThresholds(uint8 SensorNumber);
  34:.\Generated_Source\PSoC5/CapSense_SMS_Wrapper.c **** extern void SMS_LIB_V3_50_AutoTune1Ch(void);
  35:.\Generated_Source\PSoC5/CapSense_SMS_Wrapper.c **** extern void SMS_LIB_V3_50_AutoTune2Ch(void);
  36:.\Generated_Source\PSoC5/CapSense_SMS_Wrapper.c **** 
  37:.\Generated_Source\PSoC5/CapSense_SMS_Wrapper.c **** uint8  * SMS_LIB_noiseThreshold = CapSense_noiseThreshold;
  38:.\Generated_Source\PSoC5/CapSense_SMS_Wrapper.c **** uint8 * SMS_LIB_hysteresis = CapSense_hysteresis;
  39:.\Generated_Source\PSoC5/CapSense_SMS_Wrapper.c **** 
  40:.\Generated_Source\PSoC5/CapSense_SMS_Wrapper.c **** uint8 * SMS_LIB_widgetResolution = CapSense_widgetResolution;
  41:.\Generated_Source\PSoC5/CapSense_SMS_Wrapper.c **** 
  42:.\Generated_Source\PSoC5/CapSense_SMS_Wrapper.c **** const uint8 CYCODE * SMS_LIB_widgetNumber = CapSense_widgetNumber;
  43:.\Generated_Source\PSoC5/CapSense_SMS_Wrapper.c **** const uint8 CYCODE * SMS_LIB_numberOfSensors = CapSense_numberOfSensors;
  44:.\Generated_Source\PSoC5/CapSense_SMS_Wrapper.c **** const uint8 CYCODE * SMS_LIB_rawDataIndex = CapSense_rawDataIndex;
  45:.\Generated_Source\PSoC5/CapSense_SMS_Wrapper.c **** 
  46:.\Generated_Source\PSoC5/CapSense_SMS_Wrapper.c **** uint8 * SMS_LIB_fingerThreshold = CapSense_fingerThreshold;
  47:.\Generated_Source\PSoC5/CapSense_SMS_Wrapper.c **** uint8 * SMS_LIB_idacSettings = CapSense_idacSettings;
  48:.\Generated_Source\PSoC5/CapSense_SMS_Wrapper.c **** uint8 * SMS_LIB_prescaler = CapSense_analogSwitchDivider;
  49:.\Generated_Source\PSoC5/CapSense_SMS_Wrapper.c **** 
  50:.\Generated_Source\PSoC5/CapSense_SMS_Wrapper.c **** uint16 * SMS_LIB_SensorRaw = CapSense_sensorRaw;
  51:.\Generated_Source\PSoC5/CapSense_SMS_Wrapper.c **** uint16 * SMS_LIB_SensorBaseline = CapSense_sensorBaseline;
  52:.\Generated_Source\PSoC5/CapSense_SMS_Wrapper.c **** 
  53:.\Generated_Source\PSoC5/CapSense_SMS_Wrapper.c **** const uint8 CYCODE SMS_LIB_SensorSensitivity[] = {
  54:.\Generated_Source\PSoC5/CapSense_SMS_Wrapper.c ****     2, 2, 2, 
  55:.\Generated_Source\PSoC5/CapSense_SMS_Wrapper.c **** };
  56:.\Generated_Source\PSoC5/CapSense_SMS_Wrapper.c **** 
  57:.\Generated_Source\PSoC5/CapSense_SMS_Wrapper.c **** 
  58:.\Generated_Source\PSoC5/CapSense_SMS_Wrapper.c **** const uint8 CYCODE SMS_LIB_PrescalerTbl[] = {
  59:.\Generated_Source\PSoC5/CapSense_SMS_Wrapper.c ****     1u, 1u, 1u, 1u, 1u, 1u, 2u, 2u, 2u, 2u, 2u, 3u, 3u, 3u, 3u, 3u, 3u, 4u, 4u, 4u, 4u, 4u, 4u, 5u,
  60:.\Generated_Source\PSoC5/CapSense_SMS_Wrapper.c **** };
  61:.\Generated_Source\PSoC5/CapSense_SMS_Wrapper.c **** 
  62:.\Generated_Source\PSoC5/CapSense_SMS_Wrapper.c **** 
  63:.\Generated_Source\PSoC5/CapSense_SMS_Wrapper.c **** 
  64:.\Generated_Source\PSoC5/CapSense_SMS_Wrapper.c **** uint8 SMS_LIB_Table2[CapSense_TOTAL_SENSOR_COUNT];
  65:.\Generated_Source\PSoC5/CapSense_SMS_Wrapper.c **** uint8 SMS_LIB_Table3[CapSense_TOTAL_SENSOR_COUNT];
  66:.\Generated_Source\PSoC5/CapSense_SMS_Wrapper.c **** uint16 SMS_LIB_Table4[CapSense_TOTAL_SENSOR_COUNT];
  67:.\Generated_Source\PSoC5/CapSense_SMS_Wrapper.c **** uint16 SMS_LIB_Table5[CapSense_TOTAL_SENSOR_COUNT];
  68:.\Generated_Source\PSoC5/CapSense_SMS_Wrapper.c **** uint8 SMS_LIB_Table6[CapSense_TOTAL_SENSOR_COUNT];
  69:.\Generated_Source\PSoC5/CapSense_SMS_Wrapper.c **** uint8 SMS_LIB_Table7[CapSense_TOTAL_SENSOR_COUNT];
  70:.\Generated_Source\PSoC5/CapSense_SMS_Wrapper.c **** 
  71:.\Generated_Source\PSoC5/CapSense_SMS_Wrapper.c **** uint8 SMS_LIB_Table8[CapSense_END_OF_WIDGETS_INDEX];
  72:.\Generated_Source\PSoC5/CapSense_SMS_Wrapper.c **** uint8 SMS_LIB_Table9[CapSense_END_OF_WIDGETS_INDEX];
  73:.\Generated_Source\PSoC5/CapSense_SMS_Wrapper.c **** 
  74:.\Generated_Source\PSoC5/CapSense_SMS_Wrapper.c **** uint8 SMS_LIB_Var1 = (5u);
  75:.\Generated_Source\PSoC5/CapSense_SMS_Wrapper.c **** uint16 SMS_LIB_Var2 = (10738u);
  76:.\Generated_Source\PSoC5/CapSense_SMS_Wrapper.c **** 
  77:.\Generated_Source\PSoC5/CapSense_SMS_Wrapper.c **** uint8 SMS_LIB_TotalSnsCnt = CapSense_TOTAL_SENSOR_COUNT;
  78:.\Generated_Source\PSoC5/CapSense_SMS_Wrapper.c **** uint8 SMS_LIB_TotalScanSlCnt = CapSense_TOTAL_SCANSLOT_COUNT;
  79:.\Generated_Source\PSoC5/CapSense_SMS_Wrapper.c **** uint8 SMS_LIB_EndOfWidgInd = CapSense_END_OF_WIDGETS_INDEX;
  80:.\Generated_Source\PSoC5/CapSense_SMS_Wrapper.c **** 
  81:.\Generated_Source\PSoC5/CapSense_SMS_Wrapper.c **** #if (CapSense_DESIGN_TYPE == CapSense_TWO_CHANNELS_DESIGN)
  82:.\Generated_Source\PSoC5/CapSense_SMS_Wrapper.c ****     uint8 SMS_LIB_TotalSnsCnt_CH0 = CapSense_TOTAL_SENSOR_COUNT__CH0;
  83:.\Generated_Source\PSoC5/CapSense_SMS_Wrapper.c ****     uint8 SMS_LIB_TotalSnsCnt_CH1 = CapSense_TOTAL_SENSOR_COUNT__CH1;
  84:.\Generated_Source\PSoC5/CapSense_SMS_Wrapper.c **** #else
  85:.\Generated_Source\PSoC5/CapSense_SMS_Wrapper.c ****     uint8 SMS_LIB_TotalSnsCnt_CH0 = 0u;
  86:.\Generated_Source\PSoC5/CapSense_SMS_Wrapper.c ****     uint8 SMS_LIB_TotalSnsCnt_CH1 = 0u;
  87:.\Generated_Source\PSoC5/CapSense_SMS_Wrapper.c **** #endif  /* (CapSense_DESIGN_TYPE == CapSense_TWO_CHANNELS_DESIGN) */
  88:.\Generated_Source\PSoC5/CapSense_SMS_Wrapper.c **** 
ARM GAS  C:\Users\Xwx47\AppData\Local\Temp\cc2aPcLn.s 			page 3


  89:.\Generated_Source\PSoC5/CapSense_SMS_Wrapper.c **** /*******************************************************************************
  90:.\Generated_Source\PSoC5/CapSense_SMS_Wrapper.c **** * Function Name: SMS_LIB_ScanSensor
  91:.\Generated_Source\PSoC5/CapSense_SMS_Wrapper.c **** ********************************************************************************
  92:.\Generated_Source\PSoC5/CapSense_SMS_Wrapper.c **** *
  93:.\Generated_Source\PSoC5/CapSense_SMS_Wrapper.c **** * Summary:
  94:.\Generated_Source\PSoC5/CapSense_SMS_Wrapper.c **** *  Wrapper to CapSense_ScanSensor function.
  95:.\Generated_Source\PSoC5/CapSense_SMS_Wrapper.c **** *
  96:.\Generated_Source\PSoC5/CapSense_SMS_Wrapper.c **** * Parameters:
  97:.\Generated_Source\PSoC5/CapSense_SMS_Wrapper.c **** *  SensorNumber:  Sensor number.
  98:.\Generated_Source\PSoC5/CapSense_SMS_Wrapper.c **** *
  99:.\Generated_Source\PSoC5/CapSense_SMS_Wrapper.c **** * Return:
 100:.\Generated_Source\PSoC5/CapSense_SMS_Wrapper.c **** *  None
 101:.\Generated_Source\PSoC5/CapSense_SMS_Wrapper.c **** *
 102:.\Generated_Source\PSoC5/CapSense_SMS_Wrapper.c **** * Reentrant:
 103:.\Generated_Source\PSoC5/CapSense_SMS_Wrapper.c **** *  No
 104:.\Generated_Source\PSoC5/CapSense_SMS_Wrapper.c **** *
 105:.\Generated_Source\PSoC5/CapSense_SMS_Wrapper.c **** *******************************************************************************/
 106:.\Generated_Source\PSoC5/CapSense_SMS_Wrapper.c **** void SMS_LIB_ScanSensor(uint8 SensorNumber) 
 107:.\Generated_Source\PSoC5/CapSense_SMS_Wrapper.c **** {
  27              		.loc 1 107 0
  28              		.cfi_startproc
  29              		@ args = 0, pretend = 0, frame = 0
  30              		@ frame_needed = 0, uses_anonymous_args = 0
  31              	.LVL0:
  32 0000 08B5     		push	{r3, lr}
  33              		.cfi_def_cfa_offset 8
  34              		.cfi_offset 3, -8
  35              		.cfi_offset 14, -4
 108:.\Generated_Source\PSoC5/CapSense_SMS_Wrapper.c ****     CapSense_ScanSensor(SensorNumber);
  36              		.loc 1 108 0
  37 0002 FFF7FEFF 		bl	CapSense_ScanSensor
  38              	.LVL1:
  39 0006 08BD     		pop	{r3, pc}
  40              		.cfi_endproc
  41              	.LFE0:
  42              		.size	SMS_LIB_ScanSensor, .-SMS_LIB_ScanSensor
  43              		.section	.text.SMS_LIB_IsBusy,"ax",%progbits
  44              		.align	2
  45              		.global	SMS_LIB_IsBusy
  46              		.thumb
  47              		.thumb_func
  48              		.type	SMS_LIB_IsBusy, %function
  49              	SMS_LIB_IsBusy:
  50              	.LFB1:
 109:.\Generated_Source\PSoC5/CapSense_SMS_Wrapper.c **** }
 110:.\Generated_Source\PSoC5/CapSense_SMS_Wrapper.c **** 
 111:.\Generated_Source\PSoC5/CapSense_SMS_Wrapper.c **** /*******************************************************************************
 112:.\Generated_Source\PSoC5/CapSense_SMS_Wrapper.c **** * Function Name: SMS_LIB_IsBusy
 113:.\Generated_Source\PSoC5/CapSense_SMS_Wrapper.c **** ********************************************************************************
 114:.\Generated_Source\PSoC5/CapSense_SMS_Wrapper.c **** *
 115:.\Generated_Source\PSoC5/CapSense_SMS_Wrapper.c **** * Summary:
 116:.\Generated_Source\PSoC5/CapSense_SMS_Wrapper.c **** *  Wrapper to CapSense_IsBusy function.
 117:.\Generated_Source\PSoC5/CapSense_SMS_Wrapper.c **** *  
 118:.\Generated_Source\PSoC5/CapSense_SMS_Wrapper.c **** * Parameters:
 119:.\Generated_Source\PSoC5/CapSense_SMS_Wrapper.c **** *  None
 120:.\Generated_Source\PSoC5/CapSense_SMS_Wrapper.c **** *
 121:.\Generated_Source\PSoC5/CapSense_SMS_Wrapper.c **** * Return:
ARM GAS  C:\Users\Xwx47\AppData\Local\Temp\cc2aPcLn.s 			page 4


 122:.\Generated_Source\PSoC5/CapSense_SMS_Wrapper.c **** *  None
 123:.\Generated_Source\PSoC5/CapSense_SMS_Wrapper.c **** *
 124:.\Generated_Source\PSoC5/CapSense_SMS_Wrapper.c **** *******************************************************************************/
 125:.\Generated_Source\PSoC5/CapSense_SMS_Wrapper.c **** uint8 SMS_LIB_IsBusy(void) 
 126:.\Generated_Source\PSoC5/CapSense_SMS_Wrapper.c **** {
  51              		.loc 1 126 0
  52              		.cfi_startproc
  53              		@ args = 0, pretend = 0, frame = 0
  54              		@ frame_needed = 0, uses_anonymous_args = 0
  55 0000 08B5     		push	{r3, lr}
  56              		.cfi_def_cfa_offset 8
  57              		.cfi_offset 3, -8
  58              		.cfi_offset 14, -4
 127:.\Generated_Source\PSoC5/CapSense_SMS_Wrapper.c ****     return CapSense_IsBusy();
  59              		.loc 1 127 0
  60 0002 FFF7FEFF 		bl	CapSense_IsBusy
  61              	.LVL2:
 128:.\Generated_Source\PSoC5/CapSense_SMS_Wrapper.c **** }
  62              		.loc 1 128 0
  63 0006 08BD     		pop	{r3, pc}
  64              		.cfi_endproc
  65              	.LFE1:
  66              		.size	SMS_LIB_IsBusy, .-SMS_LIB_IsBusy
  67              		.section	.text.CapSense_CalculateThresholds,"ax",%progbits
  68              		.align	2
  69              		.global	CapSense_CalculateThresholds
  70              		.thumb
  71              		.thumb_func
  72              		.type	CapSense_CalculateThresholds, %function
  73              	CapSense_CalculateThresholds:
  74              	.LFB2:
 129:.\Generated_Source\PSoC5/CapSense_SMS_Wrapper.c **** 
 130:.\Generated_Source\PSoC5/CapSense_SMS_Wrapper.c **** 
 131:.\Generated_Source\PSoC5/CapSense_SMS_Wrapper.c **** /*******************************************************************************
 132:.\Generated_Source\PSoC5/CapSense_SMS_Wrapper.c **** * Function Name: CapSense_CalculateThresholds
 133:.\Generated_Source\PSoC5/CapSense_SMS_Wrapper.c **** ********************************************************************************
 134:.\Generated_Source\PSoC5/CapSense_SMS_Wrapper.c **** *
 135:.\Generated_Source\PSoC5/CapSense_SMS_Wrapper.c **** * Summary:
 136:.\Generated_Source\PSoC5/CapSense_SMS_Wrapper.c **** *  Wrapper to SMS_LIB_CalculateThresholds function.
 137:.\Generated_Source\PSoC5/CapSense_SMS_Wrapper.c **** *
 138:.\Generated_Source\PSoC5/CapSense_SMS_Wrapper.c **** * Parameters:
 139:.\Generated_Source\PSoC5/CapSense_SMS_Wrapper.c **** *  SensorNumber:  Sensor number.
 140:.\Generated_Source\PSoC5/CapSense_SMS_Wrapper.c **** *
 141:.\Generated_Source\PSoC5/CapSense_SMS_Wrapper.c **** * Return:
 142:.\Generated_Source\PSoC5/CapSense_SMS_Wrapper.c **** *  None
 143:.\Generated_Source\PSoC5/CapSense_SMS_Wrapper.c **** *
 144:.\Generated_Source\PSoC5/CapSense_SMS_Wrapper.c **** * Reentrant:
 145:.\Generated_Source\PSoC5/CapSense_SMS_Wrapper.c **** *  No
 146:.\Generated_Source\PSoC5/CapSense_SMS_Wrapper.c **** *
 147:.\Generated_Source\PSoC5/CapSense_SMS_Wrapper.c **** *******************************************************************************/
 148:.\Generated_Source\PSoC5/CapSense_SMS_Wrapper.c **** void CapSense_CalculateThresholds(uint8 SensorNumber) 
 149:.\Generated_Source\PSoC5/CapSense_SMS_Wrapper.c **** {
  75              		.loc 1 149 0
  76              		.cfi_startproc
  77              		@ args = 0, pretend = 0, frame = 0
  78              		@ frame_needed = 0, uses_anonymous_args = 0
  79              	.LVL3:
ARM GAS  C:\Users\Xwx47\AppData\Local\Temp\cc2aPcLn.s 			page 5


  80 0000 08B5     		push	{r3, lr}
  81              		.cfi_def_cfa_offset 8
  82              		.cfi_offset 3, -8
  83              		.cfi_offset 14, -4
 150:.\Generated_Source\PSoC5/CapSense_SMS_Wrapper.c ****     SMS_LIB_V3_50_CalculateThresholds(SensorNumber);
  84              		.loc 1 150 0
  85 0002 FFF7FEFF 		bl	SMS_LIB_V3_50_CalculateThresholds
  86              	.LVL4:
  87 0006 08BD     		pop	{r3, pc}
  88              		.cfi_endproc
  89              	.LFE2:
  90              		.size	CapSense_CalculateThresholds, .-CapSense_CalculateThresholds
  91              		.section	.text.CapSense_AutoTune,"ax",%progbits
  92              		.align	2
  93              		.global	CapSense_AutoTune
  94              		.thumb
  95              		.thumb_func
  96              		.type	CapSense_AutoTune, %function
  97              	CapSense_AutoTune:
  98              	.LFB3:
 151:.\Generated_Source\PSoC5/CapSense_SMS_Wrapper.c **** }
 152:.\Generated_Source\PSoC5/CapSense_SMS_Wrapper.c **** 
 153:.\Generated_Source\PSoC5/CapSense_SMS_Wrapper.c **** 
 154:.\Generated_Source\PSoC5/CapSense_SMS_Wrapper.c **** /*******************************************************************************
 155:.\Generated_Source\PSoC5/CapSense_SMS_Wrapper.c **** * Function Name: CapSense_AutoTune
 156:.\Generated_Source\PSoC5/CapSense_SMS_Wrapper.c **** ********************************************************************************
 157:.\Generated_Source\PSoC5/CapSense_SMS_Wrapper.c **** *
 158:.\Generated_Source\PSoC5/CapSense_SMS_Wrapper.c **** * Summary:
 159:.\Generated_Source\PSoC5/CapSense_SMS_Wrapper.c **** *  Wrapper for SMS_LIB_AutoTune1Ch or SMS_LIB_AutoTune2Ch function.
 160:.\Generated_Source\PSoC5/CapSense_SMS_Wrapper.c **** *
 161:.\Generated_Source\PSoC5/CapSense_SMS_Wrapper.c **** * Parameters:
 162:.\Generated_Source\PSoC5/CapSense_SMS_Wrapper.c **** *  None
 163:.\Generated_Source\PSoC5/CapSense_SMS_Wrapper.c **** *
 164:.\Generated_Source\PSoC5/CapSense_SMS_Wrapper.c **** * Return:
 165:.\Generated_Source\PSoC5/CapSense_SMS_Wrapper.c **** *  None
 166:.\Generated_Source\PSoC5/CapSense_SMS_Wrapper.c **** *
 167:.\Generated_Source\PSoC5/CapSense_SMS_Wrapper.c **** * Reentrant:
 168:.\Generated_Source\PSoC5/CapSense_SMS_Wrapper.c **** *  No
 169:.\Generated_Source\PSoC5/CapSense_SMS_Wrapper.c **** *
 170:.\Generated_Source\PSoC5/CapSense_SMS_Wrapper.c **** *******************************************************************************/
 171:.\Generated_Source\PSoC5/CapSense_SMS_Wrapper.c **** void CapSense_AutoTune(void) 
 172:.\Generated_Source\PSoC5/CapSense_SMS_Wrapper.c **** {
  99              		.loc 1 172 0
 100              		.cfi_startproc
 101              		@ args = 0, pretend = 0, frame = 0
 102              		@ frame_needed = 0, uses_anonymous_args = 0
 103 0000 08B5     		push	{r3, lr}
 104              		.cfi_def_cfa_offset 8
 105              		.cfi_offset 3, -8
 106              		.cfi_offset 14, -4
 173:.\Generated_Source\PSoC5/CapSense_SMS_Wrapper.c ****     #if (CapSense_DESIGN_TYPE == CapSense_ONE_CHANNEL_DESIGN)
 174:.\Generated_Source\PSoC5/CapSense_SMS_Wrapper.c ****         SMS_LIB_V3_50_AutoTune1Ch();
 107              		.loc 1 174 0
 108 0002 FFF7FEFF 		bl	SMS_LIB_V3_50_AutoTune1Ch
 109              	.LVL5:
 110 0006 08BD     		pop	{r3, pc}
 111              		.cfi_endproc
ARM GAS  C:\Users\Xwx47\AppData\Local\Temp\cc2aPcLn.s 			page 6


 112              	.LFE3:
 113              		.size	CapSense_AutoTune, .-CapSense_AutoTune
 114              		.section	.text.SMS_LIB_SetPrescaler,"ax",%progbits
 115              		.align	2
 116              		.global	SMS_LIB_SetPrescaler
 117              		.thumb
 118              		.thumb_func
 119              		.type	SMS_LIB_SetPrescaler, %function
 120              	SMS_LIB_SetPrescaler:
 121              	.LFB4:
 175:.\Generated_Source\PSoC5/CapSense_SMS_Wrapper.c ****     #elif (CapSense_DESIGN_TYPE == CapSense_TWO_CHANNELS_DESIGN)
 176:.\Generated_Source\PSoC5/CapSense_SMS_Wrapper.c ****         SMS_LIB_V3_50_AutoTune2Ch();
 177:.\Generated_Source\PSoC5/CapSense_SMS_Wrapper.c ****     #endif /* (CapSense_DESIGN_TYPE == CapSense_ONE_CHANNEL_DESIGN) */
 178:.\Generated_Source\PSoC5/CapSense_SMS_Wrapper.c **** }
 179:.\Generated_Source\PSoC5/CapSense_SMS_Wrapper.c **** 
 180:.\Generated_Source\PSoC5/CapSense_SMS_Wrapper.c **** /*******************************************************************************
 181:.\Generated_Source\PSoC5/CapSense_SMS_Wrapper.c **** * Function Name: SMS_LIB_SetPrescaler
 182:.\Generated_Source\PSoC5/CapSense_SMS_Wrapper.c **** ********************************************************************************
 183:.\Generated_Source\PSoC5/CapSense_SMS_Wrapper.c **** *
 184:.\Generated_Source\PSoC5/CapSense_SMS_Wrapper.c **** * Summary:
 185:.\Generated_Source\PSoC5/CapSense_SMS_Wrapper.c **** *  Empty wrapper for version compliance.
 186:.\Generated_Source\PSoC5/CapSense_SMS_Wrapper.c **** *
 187:.\Generated_Source\PSoC5/CapSense_SMS_Wrapper.c **** * Parameters:
 188:.\Generated_Source\PSoC5/CapSense_SMS_Wrapper.c **** *  prescaler:  prascaler value.
 189:.\Generated_Source\PSoC5/CapSense_SMS_Wrapper.c **** *
 190:.\Generated_Source\PSoC5/CapSense_SMS_Wrapper.c **** * Return:
 191:.\Generated_Source\PSoC5/CapSense_SMS_Wrapper.c **** *  None
 192:.\Generated_Source\PSoC5/CapSense_SMS_Wrapper.c **** *
 193:.\Generated_Source\PSoC5/CapSense_SMS_Wrapper.c **** *******************************************************************************/
 194:.\Generated_Source\PSoC5/CapSense_SMS_Wrapper.c **** void SMS_LIB_SetPrescaler(uint8 prescaler) 
 195:.\Generated_Source\PSoC5/CapSense_SMS_Wrapper.c **** {
 122              		.loc 1 195 0
 123              		.cfi_startproc
 124              		@ args = 0, pretend = 0, frame = 0
 125              		@ frame_needed = 0, uses_anonymous_args = 0
 126              		@ link register save eliminated.
 127              	.LVL6:
 128 0000 7047     		bx	lr
 129              		.cfi_endproc
 130              	.LFE4:
 131              		.size	SMS_LIB_SetPrescaler, .-SMS_LIB_SetPrescaler
 132 0002 00BF     		.section	.text.SMS_LIB_V3_50_SetAnalogSwitchesSrc_PRS,"ax",%progbits
 133              		.align	2
 134              		.global	SMS_LIB_V3_50_SetAnalogSwitchesSrc_PRS
 135              		.thumb
 136              		.thumb_func
 137              		.type	SMS_LIB_V3_50_SetAnalogSwitchesSrc_PRS, %function
 138              	SMS_LIB_V3_50_SetAnalogSwitchesSrc_PRS:
 139              	.LFB5:
 196:.\Generated_Source\PSoC5/CapSense_SMS_Wrapper.c ****     prescaler = prescaler;
 197:.\Generated_Source\PSoC5/CapSense_SMS_Wrapper.c **** }
 198:.\Generated_Source\PSoC5/CapSense_SMS_Wrapper.c **** 
 199:.\Generated_Source\PSoC5/CapSense_SMS_Wrapper.c **** void SMS_LIB_V3_50_SetAnalogSwitchesSrc_PRS(void) 
 200:.\Generated_Source\PSoC5/CapSense_SMS_Wrapper.c **** {
 140              		.loc 1 200 0
 141              		.cfi_startproc
 142              		@ args = 0, pretend = 0, frame = 0
ARM GAS  C:\Users\Xwx47\AppData\Local\Temp\cc2aPcLn.s 			page 7


 143              		@ frame_needed = 0, uses_anonymous_args = 0
 144              		.loc 1 200 0
 145 0000 08B5     		push	{r3, lr}
 146              		.cfi_def_cfa_offset 8
 147              		.cfi_offset 3, -8
 148              		.cfi_offset 14, -4
 201:.\Generated_Source\PSoC5/CapSense_SMS_Wrapper.c **** 	CapSense_SetAnalogSwitchesSource(CapSense_ANALOG_SWITCHES_SRC_PRS);
 149              		.loc 1 201 0
 150 0002 0220     		movs	r0, #2
 151 0004 FFF7FEFF 		bl	CapSense_SetAnalogSwitchesSource
 152              	.LVL7:
 153 0008 08BD     		pop	{r3, pc}
 154              		.cfi_endproc
 155              	.LFE5:
 156              		.size	SMS_LIB_V3_50_SetAnalogSwitchesSrc_PRS, .-SMS_LIB_V3_50_SetAnalogSwitchesSrc_PRS
 157 000a 00BF     		.section	.text.SMS_LIB_V3_50_SetAnalogSwitchesSrc_Prescaler,"ax",%progbits
 158              		.align	2
 159              		.global	SMS_LIB_V3_50_SetAnalogSwitchesSrc_Prescaler
 160              		.thumb
 161              		.thumb_func
 162              		.type	SMS_LIB_V3_50_SetAnalogSwitchesSrc_Prescaler, %function
 163              	SMS_LIB_V3_50_SetAnalogSwitchesSrc_Prescaler:
 164              	.LFB6:
 202:.\Generated_Source\PSoC5/CapSense_SMS_Wrapper.c **** }
 203:.\Generated_Source\PSoC5/CapSense_SMS_Wrapper.c **** 
 204:.\Generated_Source\PSoC5/CapSense_SMS_Wrapper.c **** void SMS_LIB_V3_50_SetAnalogSwitchesSrc_Prescaler(void) 
 205:.\Generated_Source\PSoC5/CapSense_SMS_Wrapper.c **** {
 165              		.loc 1 205 0
 166              		.cfi_startproc
 167              		@ args = 0, pretend = 0, frame = 0
 168              		@ frame_needed = 0, uses_anonymous_args = 0
 169 0000 08B5     		push	{r3, lr}
 170              		.cfi_def_cfa_offset 8
 171              		.cfi_offset 3, -8
 172              		.cfi_offset 14, -4
 206:.\Generated_Source\PSoC5/CapSense_SMS_Wrapper.c **** 	CapSense_SetAnalogSwitchesSource(CapSense_ANALOG_SWITCHES_SRC_PRESCALER);
 173              		.loc 1 206 0
 174 0002 0120     		movs	r0, #1
 175 0004 FFF7FEFF 		bl	CapSense_SetAnalogSwitchesSource
 176              	.LVL8:
 177 0008 08BD     		pop	{r3, pc}
 178              		.cfi_endproc
 179              	.LFE6:
 180              		.size	SMS_LIB_V3_50_SetAnalogSwitchesSrc_Prescaler, .-SMS_LIB_V3_50_SetAnalogSwitchesSrc_Prescaler
 181              		.global	SMS_LIB_TotalSnsCnt_CH1
 182              		.global	SMS_LIB_TotalSnsCnt_CH0
 183              		.global	SMS_LIB_EndOfWidgInd
 184              		.global	SMS_LIB_TotalScanSlCnt
 185              		.global	SMS_LIB_TotalSnsCnt
 186              		.global	SMS_LIB_Var2
 187              		.global	SMS_LIB_Var1
 188              		.comm	SMS_LIB_Table9,3,4
 189              		.comm	SMS_LIB_Table8,3,4
 190              		.comm	SMS_LIB_Table7,3,4
 191              		.comm	SMS_LIB_Table6,3,4
 192              		.comm	SMS_LIB_Table5,6,4
 193              		.comm	SMS_LIB_Table4,6,4
ARM GAS  C:\Users\Xwx47\AppData\Local\Temp\cc2aPcLn.s 			page 8


 194              		.comm	SMS_LIB_Table3,3,4
 195              		.comm	SMS_LIB_Table2,3,4
 196              		.global	SMS_LIB_PrescalerTbl
 197              		.global	SMS_LIB_SensorSensitivity
 198              		.global	SMS_LIB_SensorBaseline
 199              		.global	SMS_LIB_SensorRaw
 200              		.global	SMS_LIB_prescaler
 201              		.global	SMS_LIB_idacSettings
 202              		.global	SMS_LIB_fingerThreshold
 203              		.global	SMS_LIB_rawDataIndex
 204              		.global	SMS_LIB_numberOfSensors
 205              		.global	SMS_LIB_widgetNumber
 206              		.global	SMS_LIB_widgetResolution
 207              		.global	SMS_LIB_hysteresis
 208              		.global	SMS_LIB_noiseThreshold
 209 000a 00BF     		.section	.rodata
 210              		.align	2
 211              		.type	SMS_LIB_PrescalerTbl, %object
 212              		.size	SMS_LIB_PrescalerTbl, 32
 213              	SMS_LIB_PrescalerTbl:
 214 0000 01       		.byte	1
 215 0001 01       		.byte	1
 216 0002 01       		.byte	1
 217 0003 01       		.byte	1
 218 0004 01       		.byte	1
 219 0005 01       		.byte	1
 220 0006 02       		.byte	2
 221 0007 02       		.byte	2
 222 0008 02       		.byte	2
 223 0009 02       		.byte	2
 224 000a 02       		.byte	2
 225 000b 03       		.byte	3
 226 000c 03       		.byte	3
 227 000d 03       		.byte	3
 228 000e 03       		.byte	3
 229 000f 03       		.byte	3
 230 0010 03       		.byte	3
 231 0011 04       		.byte	4
 232 0012 04       		.byte	4
 233 0013 04       		.byte	4
 234 0014 04       		.byte	4
 235 0015 04       		.byte	4
 236 0016 04       		.byte	4
 237 0017 05       		.byte	5
 238 0018 05       		.byte	5
 239 0019 05       		.byte	5
 240 001a 05       		.byte	5
 241 001b 05       		.byte	5
 242 001c 05       		.byte	5
 243 001d 06       		.byte	6
 244 001e 06       		.byte	6
 245 001f 06       		.byte	6
 246              		.type	SMS_LIB_SensorSensitivity, %object
 247              		.size	SMS_LIB_SensorSensitivity, 3
 248              	SMS_LIB_SensorSensitivity:
 249 0020 02       		.byte	2
 250 0021 02       		.byte	2
ARM GAS  C:\Users\Xwx47\AppData\Local\Temp\cc2aPcLn.s 			page 9


 251 0022 02       		.byte	2
 252 0023 00       		.data
 253              		.align	2
 254              		.type	SMS_LIB_EndOfWidgInd, %object
 255              		.size	SMS_LIB_EndOfWidgInd, 1
 256              	SMS_LIB_EndOfWidgInd:
 257 0000 03       		.byte	3
 258              		.type	SMS_LIB_TotalScanSlCnt, %object
 259              		.size	SMS_LIB_TotalScanSlCnt, 1
 260              	SMS_LIB_TotalScanSlCnt:
 261 0001 03       		.byte	3
 262              		.type	SMS_LIB_TotalSnsCnt, %object
 263              		.size	SMS_LIB_TotalSnsCnt, 1
 264              	SMS_LIB_TotalSnsCnt:
 265 0002 03       		.byte	3
 266 0003 00       		.space	1
 267              		.type	SMS_LIB_Var2, %object
 268              		.size	SMS_LIB_Var2, 2
 269              	SMS_LIB_Var2:
 270 0004 F229     		.short	10738
 271              		.type	SMS_LIB_Var1, %object
 272              		.size	SMS_LIB_Var1, 1
 273              	SMS_LIB_Var1:
 274 0006 05       		.byte	5
 275 0007 00       		.space	1
 276              		.type	SMS_LIB_SensorBaseline, %object
 277              		.size	SMS_LIB_SensorBaseline, 4
 278              	SMS_LIB_SensorBaseline:
 279 0008 00000000 		.word	CapSense_sensorBaseline
 280              		.type	SMS_LIB_SensorRaw, %object
 281              		.size	SMS_LIB_SensorRaw, 4
 282              	SMS_LIB_SensorRaw:
 283 000c 00000000 		.word	CapSense_sensorRaw
 284              		.type	SMS_LIB_prescaler, %object
 285              		.size	SMS_LIB_prescaler, 4
 286              	SMS_LIB_prescaler:
 287 0010 00000000 		.word	CapSense_analogSwitchDivider
 288              		.type	SMS_LIB_idacSettings, %object
 289              		.size	SMS_LIB_idacSettings, 4
 290              	SMS_LIB_idacSettings:
 291 0014 00000000 		.word	CapSense_idacSettings
 292              		.type	SMS_LIB_fingerThreshold, %object
 293              		.size	SMS_LIB_fingerThreshold, 4
 294              	SMS_LIB_fingerThreshold:
 295 0018 00000000 		.word	CapSense_fingerThreshold
 296              		.type	SMS_LIB_rawDataIndex, %object
 297              		.size	SMS_LIB_rawDataIndex, 4
 298              	SMS_LIB_rawDataIndex:
 299 001c 00000000 		.word	CapSense_rawDataIndex
 300              		.type	SMS_LIB_numberOfSensors, %object
 301              		.size	SMS_LIB_numberOfSensors, 4
 302              	SMS_LIB_numberOfSensors:
 303 0020 00000000 		.word	CapSense_numberOfSensors
 304              		.type	SMS_LIB_widgetNumber, %object
 305              		.size	SMS_LIB_widgetNumber, 4
 306              	SMS_LIB_widgetNumber:
 307 0024 00000000 		.word	CapSense_widgetNumber
ARM GAS  C:\Users\Xwx47\AppData\Local\Temp\cc2aPcLn.s 			page 10


 308              		.type	SMS_LIB_widgetResolution, %object
 309              		.size	SMS_LIB_widgetResolution, 4
 310              	SMS_LIB_widgetResolution:
 311 0028 00000000 		.word	CapSense_widgetResolution
 312              		.type	SMS_LIB_hysteresis, %object
 313              		.size	SMS_LIB_hysteresis, 4
 314              	SMS_LIB_hysteresis:
 315 002c 00000000 		.word	CapSense_hysteresis
 316              		.type	SMS_LIB_noiseThreshold, %object
 317              		.size	SMS_LIB_noiseThreshold, 4
 318              	SMS_LIB_noiseThreshold:
 319 0030 00000000 		.word	CapSense_noiseThreshold
 320              		.bss
 321              		.type	SMS_LIB_TotalSnsCnt_CH1, %object
 322              		.size	SMS_LIB_TotalSnsCnt_CH1, 1
 323              	SMS_LIB_TotalSnsCnt_CH1:
 324 0000 00       		.space	1
 325              		.type	SMS_LIB_TotalSnsCnt_CH0, %object
 326              		.size	SMS_LIB_TotalSnsCnt_CH0, 1
 327              	SMS_LIB_TotalSnsCnt_CH0:
 328 0001 00       		.space	1
 329              		.text
 330              	.Letext0:
 331              		.file 2 ".\\Generated_Source\\PSoC5\\cytypes.h"
 332              		.file 3 ".\\Generated_Source\\PSoC5\\CapSense.h"
 333              		.file 4 ".\\Generated_Source\\PSoC5\\CapSense_CSHL.h"