ARM GAS  C:\Users\Xwx47\AppData\Local\Temp\ccKXpbtH.s 			page 1


   1              		.syntax unified
   2              		.cpu cortex-m3
   3              		.fpu softvfp
   4              		.eabi_attribute 20, 1
   5              		.eabi_attribute 21, 1
   6              		.eabi_attribute 23, 3
   7              		.eabi_attribute 24, 1
   8              		.eabi_attribute 25, 1
   9              		.eabi_attribute 26, 1
  10              		.eabi_attribute 30, 1
  11              		.eabi_attribute 34, 1
  12              		.eabi_attribute 18, 4
  13              		.thumb
  14              		.file	"CapSense.c"
  15              		.text
  16              	.Ltext0:
  17              		.cfi_sections	.debug_frame
  18              		.section	.text.CapSense_Enable,"ax",%progbits
  19              		.align	2
  20              		.global	CapSense_Enable
  21              		.thumb
  22              		.thumb_func
  23              		.type	CapSense_Enable, %function
  24              	CapSense_Enable:
  25              	.LFB1:
  26              		.file 1 ".\\Generated_Source\\PSoC5\\CapSense.c"
   1:.\Generated_Source\PSoC5/CapSense.c **** /*******************************************************************************
   2:.\Generated_Source\PSoC5/CapSense.c **** * File Name: CapSense.c
   3:.\Generated_Source\PSoC5/CapSense.c **** * Version 3.50
   4:.\Generated_Source\PSoC5/CapSense.c **** *
   5:.\Generated_Source\PSoC5/CapSense.c **** * Description:
   6:.\Generated_Source\PSoC5/CapSense.c **** *  This file provides the source code of scanning APIs for the CapSense CSD 
   7:.\Generated_Source\PSoC5/CapSense.c **** *  component.
   8:.\Generated_Source\PSoC5/CapSense.c **** *
   9:.\Generated_Source\PSoC5/CapSense.c **** * Note:
  10:.\Generated_Source\PSoC5/CapSense.c **** *
  11:.\Generated_Source\PSoC5/CapSense.c **** ********************************************************************************
  12:.\Generated_Source\PSoC5/CapSense.c **** * Copyright 2008-2013, Cypress Semiconductor Corporation.  All rights reserved.
  13:.\Generated_Source\PSoC5/CapSense.c **** * You may use this file only in accordance with the license, terms, conditions,
  14:.\Generated_Source\PSoC5/CapSense.c **** * disclaimers, and limitations in the end user license agreement accompanying
  15:.\Generated_Source\PSoC5/CapSense.c **** * the software package with which this file was provided.
  16:.\Generated_Source\PSoC5/CapSense.c **** *******************************************************************************/
  17:.\Generated_Source\PSoC5/CapSense.c **** 
  18:.\Generated_Source\PSoC5/CapSense.c **** #include "CapSense.h"
  19:.\Generated_Source\PSoC5/CapSense.c **** 
  20:.\Generated_Source\PSoC5/CapSense.c **** 
  21:.\Generated_Source\PSoC5/CapSense.c **** static uint8 CapSense_initVar = 0u;
  22:.\Generated_Source\PSoC5/CapSense.c ****             
  23:.\Generated_Source\PSoC5/CapSense.c **** /* Global software variables */
  24:.\Generated_Source\PSoC5/CapSense.c **** volatile uint8 CapSense_csv;            /* CapSense CSD status, control variable */
  25:.\Generated_Source\PSoC5/CapSense.c **** volatile uint8 CapSense_sensorIndex;    /* Index of scannig sensor */
  26:.\Generated_Source\PSoC5/CapSense.c **** 
  27:.\Generated_Source\PSoC5/CapSense.c **** /* AutoTunning start */
  28:.\Generated_Source\PSoC5/CapSense.c **** #if (CapSense_TUNING_METHOD == CapSense_AUTO_TUNING)
  29:.\Generated_Source\PSoC5/CapSense.c ****     uint8 CapSense_lowLevelTuningDone = 1u;
  30:.\Generated_Source\PSoC5/CapSense.c **** #endif /* (CapSense_TUNING_METHOD == CapSense_AUTO_TUNING) */
  31:.\Generated_Source\PSoC5/CapSense.c **** 
ARM GAS  C:\Users\Xwx47\AppData\Local\Temp\ccKXpbtH.s 			page 2


  32:.\Generated_Source\PSoC5/CapSense.c **** #if (CapSense_CURRENT_SOURCE == CapSense_EXTERNAL_RB)
  33:.\Generated_Source\PSoC5/CapSense.c ****     uint8  CapSense_extRbCh0Cur = CapSense_RBLEED1;
  34:.\Generated_Source\PSoC5/CapSense.c ****     #if (CapSense_DESIGN_TYPE == CapSense_TWO_CHANNELS_DESIGN)
  35:.\Generated_Source\PSoC5/CapSense.c ****         uint8  CapSense_extRbCh1Cur = (CapSense_RBLEED1 + CapSense_TOTAL_RB_NUMBER__CH0);
  36:.\Generated_Source\PSoC5/CapSense.c ****     #endif /* (CapSense_DESIGN_TYPE == CapSense_TWO_CHANNELS_DESIGN)*/ 
  37:.\Generated_Source\PSoC5/CapSense.c **** #endif /* (CapSense_CURRENT_SOURCE == CapSense_EXTERNAL_RB) */ 
  38:.\Generated_Source\PSoC5/CapSense.c ****         
  39:.\Generated_Source\PSoC5/CapSense.c **** /* Global array of Raw Counts */
  40:.\Generated_Source\PSoC5/CapSense.c **** uint16 CapSense_sensorRaw[CapSense_TOTAL_SENSOR_COUNT]; 
  41:.\Generated_Source\PSoC5/CapSense.c **** 
  42:.\Generated_Source\PSoC5/CapSense.c **** uint8 CapSense_sensorEnableMask[(((CapSense_TOTAL_SENSOR_COUNT - 1u) / 8u) + 1u)] = {
  43:.\Generated_Source\PSoC5/CapSense.c **** 0x7u, };
  44:.\Generated_Source\PSoC5/CapSense.c **** 
  45:.\Generated_Source\PSoC5/CapSense.c **** uint8 CYXDATA * const CYCODE CapSense_pcTable[] = {
  46:.\Generated_Source\PSoC5/CapSense.c ****     (uint8 CYXDATA *)CapSense_PortCH0__Button0__BTN__PC, 
  47:.\Generated_Source\PSoC5/CapSense.c ****     (uint8 CYXDATA *)CapSense_PortCH0__Button1__BTN__PC, 
  48:.\Generated_Source\PSoC5/CapSense.c ****     (uint8 CYXDATA *)CapSense_PortCH0__Button2__BTN__PC, 
  49:.\Generated_Source\PSoC5/CapSense.c **** };
  50:.\Generated_Source\PSoC5/CapSense.c **** 
  51:.\Generated_Source\PSoC5/CapSense.c **** const uint8 CYCODE CapSense_portTable[] = {
  52:.\Generated_Source\PSoC5/CapSense.c ****     CapSense_PortCH0__Button0__BTN__PORT, 
  53:.\Generated_Source\PSoC5/CapSense.c ****     CapSense_PortCH0__Button1__BTN__PORT, 
  54:.\Generated_Source\PSoC5/CapSense.c ****     CapSense_PortCH0__Button2__BTN__PORT, 
  55:.\Generated_Source\PSoC5/CapSense.c **** };
  56:.\Generated_Source\PSoC5/CapSense.c **** 
  57:.\Generated_Source\PSoC5/CapSense.c **** const uint8 CYCODE CapSense_maskTable[] = {
  58:.\Generated_Source\PSoC5/CapSense.c ****     CapSense_PortCH0__Button0__BTN__MASK,
  59:.\Generated_Source\PSoC5/CapSense.c ****     CapSense_PortCH0__Button1__BTN__MASK,
  60:.\Generated_Source\PSoC5/CapSense.c ****     CapSense_PortCH0__Button2__BTN__MASK,
  61:.\Generated_Source\PSoC5/CapSense.c **** };
  62:.\Generated_Source\PSoC5/CapSense.c **** 
  63:.\Generated_Source\PSoC5/CapSense.c **** uint8 CYXDATA * const CYCODE CapSense_csTable[] = {
  64:.\Generated_Source\PSoC5/CapSense.c ****     (uint8 CYXDATA *)CYREG_PRT0_CAPS_SEL, (uint8 CYXDATA *)CYREG_PRT1_CAPS_SEL, (uint8 CYXDATA *)CY
  65:.\Generated_Source\PSoC5/CapSense.c ****     (uint8 CYXDATA *)CYREG_PRT3_CAPS_SEL, (uint8 CYXDATA *)CYREG_PRT4_CAPS_SEL, (uint8 CYXDATA *)CY
  66:.\Generated_Source\PSoC5/CapSense.c ****     (uint8 CYXDATA *)CYREG_PRT6_CAPS_SEL, (uint8 CYXDATA *)CYREG_PRT15_CAPS_SEL,
  67:.\Generated_Source\PSoC5/CapSense.c **** };
  68:.\Generated_Source\PSoC5/CapSense.c **** 
  69:.\Generated_Source\PSoC5/CapSense.c **** uint8 CapSense_idacSettings[] = {
  70:.\Generated_Source\PSoC5/CapSense.c ****     200u,200u,200u,
  71:.\Generated_Source\PSoC5/CapSense.c **** };
  72:.\Generated_Source\PSoC5/CapSense.c **** 
  73:.\Generated_Source\PSoC5/CapSense.c **** uint8 CapSense_widgetResolution[] = {
  74:.\Generated_Source\PSoC5/CapSense.c ****     CapSense_PWM_RESOLUTION_10_BITS,
  75:.\Generated_Source\PSoC5/CapSense.c ****     CapSense_PWM_RESOLUTION_10_BITS,
  76:.\Generated_Source\PSoC5/CapSense.c ****     CapSense_PWM_RESOLUTION_10_BITS,
  77:.\Generated_Source\PSoC5/CapSense.c **** };
  78:.\Generated_Source\PSoC5/CapSense.c **** 
  79:.\Generated_Source\PSoC5/CapSense.c **** uint8 CapSense_analogSwitchDivider[CapSense_TOTAL_SCANSLOT_COUNT];
  80:.\Generated_Source\PSoC5/CapSense.c **** const uint8 CYCODE CapSense_widgetNumber[] = {
  81:.\Generated_Source\PSoC5/CapSense.c ****     0u, /* Button0__BTN */
  82:.\Generated_Source\PSoC5/CapSense.c ****     1u, /* Button1__BTN */
  83:.\Generated_Source\PSoC5/CapSense.c ****     2u, /* Button2__BTN */
  84:.\Generated_Source\PSoC5/CapSense.c ****     
  85:.\Generated_Source\PSoC5/CapSense.c **** };
  86:.\Generated_Source\PSoC5/CapSense.c **** 
  87:.\Generated_Source\PSoC5/CapSense.c **** 
  88:.\Generated_Source\PSoC5/CapSense.c **** 
ARM GAS  C:\Users\Xwx47\AppData\Local\Temp\ccKXpbtH.s 			page 3


  89:.\Generated_Source\PSoC5/CapSense.c **** 
  90:.\Generated_Source\PSoC5/CapSense.c **** /*******************************************************************************
  91:.\Generated_Source\PSoC5/CapSense.c **** * Function Name: CapSense_Init
  92:.\Generated_Source\PSoC5/CapSense.c **** ********************************************************************************
  93:.\Generated_Source\PSoC5/CapSense.c **** *
  94:.\Generated_Source\PSoC5/CapSense.c **** * Summary:
  95:.\Generated_Source\PSoC5/CapSense.c **** *  Inits default CapSense configuration provided with customizer that defines 
  96:.\Generated_Source\PSoC5/CapSense.c **** *  mode of component operations and resets all sensors to an inactive state.
  97:.\Generated_Source\PSoC5/CapSense.c **** *
  98:.\Generated_Source\PSoC5/CapSense.c **** * Parameters:
  99:.\Generated_Source\PSoC5/CapSense.c **** *  None
 100:.\Generated_Source\PSoC5/CapSense.c **** *
 101:.\Generated_Source\PSoC5/CapSense.c **** * Return:
 102:.\Generated_Source\PSoC5/CapSense.c **** *  None
 103:.\Generated_Source\PSoC5/CapSense.c **** *
 104:.\Generated_Source\PSoC5/CapSense.c **** *******************************************************************************/
 105:.\Generated_Source\PSoC5/CapSense.c **** void CapSense_Init(void) 
 106:.\Generated_Source\PSoC5/CapSense.c **** {
 107:.\Generated_Source\PSoC5/CapSense.c ****     #if ( (CapSense_PRS_OPTIONS) || \
 108:.\Generated_Source\PSoC5/CapSense.c ****           (CapSense_IMPLEMENTATION_CH0 == CapSense_MEASURE_IMPLEMENTATION_UDB) || \
 109:.\Generated_Source\PSoC5/CapSense.c ****           ( (CapSense_DESIGN_TYPE == CapSense_TWO_CHANNELS_DESIGN) && \
 110:.\Generated_Source\PSoC5/CapSense.c ****             (CapSense_IMPLEMENTATION_CH1 == CapSense_MEASURE_IMPLEMENTATION_UDB)) )
 111:.\Generated_Source\PSoC5/CapSense.c ****         
 112:.\Generated_Source\PSoC5/CapSense.c ****         uint8 enableInterrupts;
 113:.\Generated_Source\PSoC5/CapSense.c ****     #endif /* ( (CapSense_PRS_OPTIONS) || \
 114:.\Generated_Source\PSoC5/CapSense.c ****            * (CapSense_IMPLEMENTATION_CH0 == CapSense_MEASURE_IMPLEMENTATION_UDB) || \
 115:.\Generated_Source\PSoC5/CapSense.c ****            * ( (CapSense_DESIGN_TYPE == CapSense_TWO_CHANNELS_DESIGN) && \
 116:.\Generated_Source\PSoC5/CapSense.c ****            * (CapSense_IMPLEMENTATION_CH1 == CapSense_MEASURE_IMPLEMENTATION_UDB)) ) 
 117:.\Generated_Source\PSoC5/CapSense.c ****            */
 118:.\Generated_Source\PSoC5/CapSense.c ****     
 119:.\Generated_Source\PSoC5/CapSense.c ****     /* Clear all sensors */
 120:.\Generated_Source\PSoC5/CapSense.c ****     CapSense_ClearSensors();
 121:.\Generated_Source\PSoC5/CapSense.c **** 
 122:.\Generated_Source\PSoC5/CapSense.c ****     /* Set Prescaler */
 123:.\Generated_Source\PSoC5/CapSense.c ****     #if (CapSense_PRESCALER_OPTIONS == CapSense_PRESCALER_UDB)
 124:.\Generated_Source\PSoC5/CapSense.c ****         /* Do nothing = config without prescaler */
 125:.\Generated_Source\PSoC5/CapSense.c ****     #elif (CapSense_PRESCALER_OPTIONS == CapSense_PRESCALER_FF)
 126:.\Generated_Source\PSoC5/CapSense.c ****         CapSense_PRESCALER_CONTROL_REG   = (CapSense_PRESCALER_CTRL_ENABLE |
 127:.\Generated_Source\PSoC5/CapSense.c ****                                                     CapSense_PRESCALER_CTRL_MODE_CMP);
 128:.\Generated_Source\PSoC5/CapSense.c ****                                                
 129:.\Generated_Source\PSoC5/CapSense.c ****         CapSense_PRESCALER_CONTROL2_REG |= CapSense_PRESCALER_CTRL_CMP_LESS_EQ;
 130:.\Generated_Source\PSoC5/CapSense.c ****     #else
 131:.\Generated_Source\PSoC5/CapSense.c ****         /* Do nothing = config without prescaler */
 132:.\Generated_Source\PSoC5/CapSense.c ****     #endif  /* (CapSense_PRESCALER_OPTIONS == CapSense_PRESCALER_UDB) */
 133:.\Generated_Source\PSoC5/CapSense.c **** 
 134:.\Generated_Source\PSoC5/CapSense.c ****     /* Set PRS */
 135:.\Generated_Source\PSoC5/CapSense.c ****     #if (CapSense_PRS_OPTIONS)
 136:.\Generated_Source\PSoC5/CapSense.c ****         CapSense_SetAnalogSwitchesSource(CapSense_ANALOG_SWITCHES_SRC_PRS);
 137:.\Generated_Source\PSoC5/CapSense.c ****     #endif /* (CapSense_PRS_OPTIONS) */
 138:.\Generated_Source\PSoC5/CapSense.c **** 
 139:.\Generated_Source\PSoC5/CapSense.c ****     #if (CapSense_PRS_OPTIONS == CapSense_PRS_8BITS)
 140:.\Generated_Source\PSoC5/CapSense.c ****         /* Aux control set FIFO as REG */
 141:.\Generated_Source\PSoC5/CapSense.c ****         enableInterrupts = CyEnterCriticalSection();
 142:.\Generated_Source\PSoC5/CapSense.c ****         CapSense_AUX_CONTROL_A_REG |= CapSense_AUXCTRL_FIFO_SINGLE_REG;
 143:.\Generated_Source\PSoC5/CapSense.c ****         CyExitCriticalSection(enableInterrupts);
 144:.\Generated_Source\PSoC5/CapSense.c ****         
 145:.\Generated_Source\PSoC5/CapSense.c ****         /* Write polynomial */
ARM GAS  C:\Users\Xwx47\AppData\Local\Temp\ccKXpbtH.s 			page 4


 146:.\Generated_Source\PSoC5/CapSense.c ****         CapSense_POLYNOM_REG   = CapSense_PRS8_DEFAULT_POLYNOM;
 147:.\Generated_Source\PSoC5/CapSense.c ****         /* Write FIFO with seed */
 148:.\Generated_Source\PSoC5/CapSense.c ****         CapSense_SEED_COPY_REG = CapSense_MEASURE_FULL_RANGE_LOW;
 149:.\Generated_Source\PSoC5/CapSense.c ****         
 150:.\Generated_Source\PSoC5/CapSense.c ****     #elif (CapSense_PRS_OPTIONS == CapSense_PRS_16BITS)
 151:.\Generated_Source\PSoC5/CapSense.c ****         /* Aux control set FIFO as REG */ 
 152:.\Generated_Source\PSoC5/CapSense.c ****         enableInterrupts = CyEnterCriticalSection();  
 153:.\Generated_Source\PSoC5/CapSense.c ****         CapSense_AUX_CONTROL_A_REG |= CapSense_AUXCTRL_FIFO_SINGLE_REG;
 154:.\Generated_Source\PSoC5/CapSense.c ****         CapSense_AUX_CONTROL_B_REG |= CapSense_AUXCTRL_FIFO_SINGLE_REG;
 155:.\Generated_Source\PSoC5/CapSense.c ****         CyExitCriticalSection(enableInterrupts);
 156:.\Generated_Source\PSoC5/CapSense.c ****         
 157:.\Generated_Source\PSoC5/CapSense.c ****         /* Write polynomial */
 158:.\Generated_Source\PSoC5/CapSense.c ****         CY_SET_REG16(CapSense_POLYNOM_PTR, CapSense_PRS16_DEFAULT_POLYNOM);
 159:.\Generated_Source\PSoC5/CapSense.c ****         /* Write FIFO with seed */
 160:.\Generated_Source\PSoC5/CapSense.c ****         CY_SET_REG16(CapSense_SEED_COPY_PTR, CapSense_MEASURE_FULL_RANGE);
 161:.\Generated_Source\PSoC5/CapSense.c ****                 
 162:.\Generated_Source\PSoC5/CapSense.c ****     #elif (CapSense_PRS_OPTIONS == CapSense_PRS_16BITS_4X)
 163:.\Generated_Source\PSoC5/CapSense.c ****         /* Aux control set FIFO as REG */
 164:.\Generated_Source\PSoC5/CapSense.c ****         enableInterrupts = CyEnterCriticalSection();
 165:.\Generated_Source\PSoC5/CapSense.c ****         CapSense_AUX_CONTROL_A_REG  |= CapSense_AUXCTRL_FIFO_SINGLE_REG;
 166:.\Generated_Source\PSoC5/CapSense.c ****         CyExitCriticalSection(enableInterrupts);
 167:.\Generated_Source\PSoC5/CapSense.c ****         
 168:.\Generated_Source\PSoC5/CapSense.c ****         /* Write polynomial */
 169:.\Generated_Source\PSoC5/CapSense.c ****         CapSense_POLYNOM_A__D1_REG   = HI8(CapSense_PRS16_DEFAULT_POLYNOM);
 170:.\Generated_Source\PSoC5/CapSense.c ****         CapSense_POLYNOM_A__D0_REG   = LO8(CapSense_PRS16_DEFAULT_POLYNOM);
 171:.\Generated_Source\PSoC5/CapSense.c ****         /* Write FIFO with seed */
 172:.\Generated_Source\PSoC5/CapSense.c ****         CapSense_SEED_COPY_A__F1_REG = CapSense_MEASURE_FULL_RANGE_LOW;
 173:.\Generated_Source\PSoC5/CapSense.c ****         CapSense_SEED_COPY_A__F0_REG = CapSense_MEASURE_FULL_RANGE_LOW; 
 174:.\Generated_Source\PSoC5/CapSense.c ****         
 175:.\Generated_Source\PSoC5/CapSense.c ****     #else
 176:.\Generated_Source\PSoC5/CapSense.c ****         /* Do nothing = config without PRS */
 177:.\Generated_Source\PSoC5/CapSense.c ****     #endif  /* (CapSense_PRS_OPTIONS == CapSense_PRS_8BITS) */ 
 178:.\Generated_Source\PSoC5/CapSense.c ****     
 179:.\Generated_Source\PSoC5/CapSense.c ****     /* Set ScanSpeed */
 180:.\Generated_Source\PSoC5/CapSense.c ****     CapSense_SCANSPEED_PERIOD_REG = CapSense_SCANSPEED_VALUE;
 181:.\Generated_Source\PSoC5/CapSense.c ****     
 182:.\Generated_Source\PSoC5/CapSense.c ****     /* Set the Measure */
 183:.\Generated_Source\PSoC5/CapSense.c ****     #if (CapSense_IMPLEMENTATION_CH0 == CapSense_MEASURE_IMPLEMENTATION_FF)
 184:.\Generated_Source\PSoC5/CapSense.c ****         /* Window PWM */
 185:.\Generated_Source\PSoC5/CapSense.c ****         CapSense_PWM_CH0_CONTROL_REG      = CapSense_MEASURE_CTRL_ENABLE;
 186:.\Generated_Source\PSoC5/CapSense.c ****         CapSense_PWM_CH0_CONTROL2_REG    |= CapSense_MEASURE_CTRL_PULSEWIDTH;
 187:.\Generated_Source\PSoC5/CapSense.c ****         CY_SET_REG16(CapSense_PWM_CH0_COUNTER_PTR, CapSense_MEASURE_FULL_RANGE);
 188:.\Generated_Source\PSoC5/CapSense.c ****         
 189:.\Generated_Source\PSoC5/CapSense.c ****         /* Raw Counter */
 190:.\Generated_Source\PSoC5/CapSense.c ****         CapSense_RAW_CH0_CONTROL_REG      = CapSense_MEASURE_CTRL_ENABLE;
 191:.\Generated_Source\PSoC5/CapSense.c ****         CapSense_RAW_CH0_CONTROL2_REG    |= CapSense_MEASURE_CTRL_PULSEWIDTH;
 192:.\Generated_Source\PSoC5/CapSense.c ****         CY_SET_REG16(CapSense_RAW_CH0_PERIOD_PTR, CapSense_MEASURE_FULL_RANGE);
 193:.\Generated_Source\PSoC5/CapSense.c ****     
 194:.\Generated_Source\PSoC5/CapSense.c ****     #else
 195:.\Generated_Source\PSoC5/CapSense.c ****         /*Window PWM and Raw Counter AUX set */
 196:.\Generated_Source\PSoC5/CapSense.c ****         enableInterrupts = CyEnterCriticalSection();
 197:.\Generated_Source\PSoC5/CapSense.c ****         CapSense_PWM_CH0_AUX_CONTROL_REG |= CapSense_AUXCTRL_FIFO_SINGLE_REG;
 198:.\Generated_Source\PSoC5/CapSense.c ****         CapSense_RAW_CH0_AUX_CONTROL_REG |= CapSense_AUXCTRL_FIFO_SINGLE_REG;
 199:.\Generated_Source\PSoC5/CapSense.c ****         CyExitCriticalSection(enableInterrupts);
 200:.\Generated_Source\PSoC5/CapSense.c ****         
 201:.\Generated_Source\PSoC5/CapSense.c ****         /* Window PWM */
 202:.\Generated_Source\PSoC5/CapSense.c ****         CapSense_PWM_CH0_ADD_VALUE_REG    = CapSense_MEASURE_FULL_RANGE_LOW;
ARM GAS  C:\Users\Xwx47\AppData\Local\Temp\ccKXpbtH.s 			page 5


 203:.\Generated_Source\PSoC5/CapSense.c ****         CapSense_PWM_CH0_PERIOD_LO_REG    = CapSense_MEASURE_FULL_RANGE_LOW;
 204:.\Generated_Source\PSoC5/CapSense.c ****         CapSense_PWM_CH0_COUNTER_LO_REG   = CapSense_MEASURE_FULL_RANGE_LOW;
 205:.\Generated_Source\PSoC5/CapSense.c ****         
 206:.\Generated_Source\PSoC5/CapSense.c ****         /* Raw Counter */
 207:.\Generated_Source\PSoC5/CapSense.c ****         CapSense_RAW_CH0_ADD_VALUE_REG    = CapSense_MEASURE_FULL_RANGE_LOW;
 208:.\Generated_Source\PSoC5/CapSense.c ****         CapSense_RAW_CH0_PERIOD_HI_REG    = CapSense_MEASURE_FULL_RANGE_LOW;
 209:.\Generated_Source\PSoC5/CapSense.c ****         CapSense_RAW_CH0_PERIOD_LO_REG    = CapSense_MEASURE_FULL_RANGE_LOW;
 210:.\Generated_Source\PSoC5/CapSense.c ****         
 211:.\Generated_Source\PSoC5/CapSense.c ****     #endif  /* (CapSense_IMPLEMENTATION_CH0 == CapSense_MEASURE_IMPLEMENTATION_FF) */ 
 212:.\Generated_Source\PSoC5/CapSense.c ****     
 213:.\Generated_Source\PSoC5/CapSense.c ****     #if (CapSense_DESIGN_TYPE == CapSense_TWO_CHANNELS_DESIGN)
 214:.\Generated_Source\PSoC5/CapSense.c ****         #if (CapSense_IMPLEMENTATION_CH1 == CapSense_MEASURE_IMPLEMENTATION_FF)
 215:.\Generated_Source\PSoC5/CapSense.c ****             /* Window PWM */
 216:.\Generated_Source\PSoC5/CapSense.c ****             CapSense_PWM_CH1_CONTROL_REG      = CapSense_MEASURE_CTRL_ENABLE;
 217:.\Generated_Source\PSoC5/CapSense.c ****             CapSense_PWM_CH1_CONTROL2_REG    |= CapSense_MEASURE_CTRL_PULSEWIDTH;
 218:.\Generated_Source\PSoC5/CapSense.c ****             CY_SET_REG16(CapSense_PWM_CH1_COUNTER_PTR, CapSense_MEASURE_FULL_RANGE);
 219:.\Generated_Source\PSoC5/CapSense.c ****             
 220:.\Generated_Source\PSoC5/CapSense.c ****             /* Raw Counter */
 221:.\Generated_Source\PSoC5/CapSense.c ****             CapSense_RAW_CH1_CONTROL_REG      = CapSense_MEASURE_CTRL_ENABLE;
 222:.\Generated_Source\PSoC5/CapSense.c ****             CapSense_RAW_CH1_CONTROL2_REG    |= CapSense_MEASURE_CTRL_PULSEWIDTH;
 223:.\Generated_Source\PSoC5/CapSense.c ****             CY_SET_REG16(CapSense_RAW_CH1_PERIOD_PTR, CapSense_MEASURE_FULL_RANGE);
 224:.\Generated_Source\PSoC5/CapSense.c ****            
 225:.\Generated_Source\PSoC5/CapSense.c ****         #else
 226:.\Generated_Source\PSoC5/CapSense.c ****             /*Window PWM and Raw Counter AUX set */
 227:.\Generated_Source\PSoC5/CapSense.c ****             enableInterrupts = CyEnterCriticalSection();
 228:.\Generated_Source\PSoC5/CapSense.c ****             CapSense_PWM_CH1_AUX_CONTROL_REG |= CapSense_AUXCTRL_FIFO_SINGLE_REG;
 229:.\Generated_Source\PSoC5/CapSense.c ****             CapSense_RAW_CH1_AUX_CONTROL_REG |= CapSense_AUXCTRL_FIFO_SINGLE_REG;
 230:.\Generated_Source\PSoC5/CapSense.c ****             CyExitCriticalSection(enableInterrupts);
 231:.\Generated_Source\PSoC5/CapSense.c ****             
 232:.\Generated_Source\PSoC5/CapSense.c ****             /* Window PWM */
 233:.\Generated_Source\PSoC5/CapSense.c ****             CapSense_PWM_CH1_ADD_VALUE_REG    = CapSense_MEASURE_FULL_RANGE_LOW;
 234:.\Generated_Source\PSoC5/CapSense.c ****             CapSense_PWM_CH1_PERIOD_LO_REG    = CapSense_MEASURE_FULL_RANGE_LOW;
 235:.\Generated_Source\PSoC5/CapSense.c ****             CapSense_PWM_CH1_COUNTER_LO_REG   = CapSense_MEASURE_FULL_RANGE_LOW;
 236:.\Generated_Source\PSoC5/CapSense.c ****             
 237:.\Generated_Source\PSoC5/CapSense.c ****             /* Raw Counter */
 238:.\Generated_Source\PSoC5/CapSense.c ****             
 239:.\Generated_Source\PSoC5/CapSense.c ****             CapSense_RAW_CH1_ADD_VALUE_REG    = CapSense_MEASURE_FULL_RANGE_LOW;
 240:.\Generated_Source\PSoC5/CapSense.c ****             CapSense_RAW_CH1_PERIOD_HI_REG    = CapSense_MEASURE_FULL_RANGE_LOW;
 241:.\Generated_Source\PSoC5/CapSense.c ****             CapSense_RAW_CH1_PERIOD_LO_REG    = CapSense_MEASURE_FULL_RANGE_LOW;
 242:.\Generated_Source\PSoC5/CapSense.c ****             
 243:.\Generated_Source\PSoC5/CapSense.c ****         #endif  /* (CapSense_IMPLEMENTATION_CH1 == CapSense_MEASURE_IMPLEMENTATION_FF) */
 244:.\Generated_Source\PSoC5/CapSense.c ****     
 245:.\Generated_Source\PSoC5/CapSense.c ****     #endif  /* (CapSense_DESIGN_TYPE == TWO_CHANNELS_DESIGN) */
 246:.\Generated_Source\PSoC5/CapSense.c ****     
 247:.\Generated_Source\PSoC5/CapSense.c ****     /* Setup ISR */
 248:.\Generated_Source\PSoC5/CapSense.c ****     CyIntDisable(CapSense_IsrCH0_ISR_NUMBER);
 249:.\Generated_Source\PSoC5/CapSense.c ****     (void)CyIntSetVector(CapSense_IsrCH0_ISR_NUMBER, &CapSense_IsrCH0_ISR);
 250:.\Generated_Source\PSoC5/CapSense.c ****     CyIntSetPriority(CapSense_IsrCH0_ISR_NUMBER, CapSense_IsrCH0_ISR_PRIORITY);
 251:.\Generated_Source\PSoC5/CapSense.c ****     
 252:.\Generated_Source\PSoC5/CapSense.c ****     #if (CapSense_DESIGN_TYPE == CapSense_TWO_CHANNELS_DESIGN)
 253:.\Generated_Source\PSoC5/CapSense.c ****         CyIntDisable(CapSense_IsrCH1_ISR_NUMBER);
 254:.\Generated_Source\PSoC5/CapSense.c ****         CyIntSetVector(CapSense_IsrCH1_ISR_NUMBER, CapSense_IsrCH1_ISR);
 255:.\Generated_Source\PSoC5/CapSense.c ****         CyIntSetPriority(CapSense_IsrCH1_ISR_NUMBER, CapSense_IsrCH1_ISR_PRIORITY);
 256:.\Generated_Source\PSoC5/CapSense.c ****     #endif  /* CapSense_DESIGN_TYPE */
 257:.\Generated_Source\PSoC5/CapSense.c ****     
 258:.\Generated_Source\PSoC5/CapSense.c ****     /* Setup AMux Bus: Connect Cmod, Cmp, Idac */
 259:.\Generated_Source\PSoC5/CapSense.c ****     CapSense_AMuxCH0_Init();
ARM GAS  C:\Users\Xwx47\AppData\Local\Temp\ccKXpbtH.s 			page 6


 260:.\Generated_Source\PSoC5/CapSense.c ****     CapSense_AMuxCH0_Connect(CapSense_AMuxCH0_CMOD_CHANNEL);
 261:.\Generated_Source\PSoC5/CapSense.c ****     CapSense_AMuxCH0_Connect(CapSense_AMuxCH0_CMP_VP_CHANNEL);
 262:.\Generated_Source\PSoC5/CapSense.c ****     #if (CapSense_CURRENT_SOURCE)
 263:.\Generated_Source\PSoC5/CapSense.c ****         CapSense_AMuxCH0_Connect(CapSense_AMuxCH0_IDAC_CHANNEL);
 264:.\Generated_Source\PSoC5/CapSense.c ****     #endif  /* CapSense_CURRENT_SOURCE */
 265:.\Generated_Source\PSoC5/CapSense.c ****     
 266:.\Generated_Source\PSoC5/CapSense.c ****     #if (CapSense_DESIGN_TYPE == CapSense_TWO_CHANNELS_DESIGN) 
 267:.\Generated_Source\PSoC5/CapSense.c ****         CapSense_AMuxCH1_Init();
 268:.\Generated_Source\PSoC5/CapSense.c ****         CapSense_AMuxCH1_Connect(CapSense_AMuxCH1_CMOD_CHANNEL);
 269:.\Generated_Source\PSoC5/CapSense.c ****         CapSense_AMuxCH1_Connect(CapSense_AMuxCH1_CMP_VP_CHANNEL);
 270:.\Generated_Source\PSoC5/CapSense.c ****         #if (CapSense_CURRENT_SOURCE)
 271:.\Generated_Source\PSoC5/CapSense.c ****             CapSense_AMuxCH1_Connect(CapSense_AMuxCH1_IDAC_CHANNEL);
 272:.\Generated_Source\PSoC5/CapSense.c ****         #endif  /* CapSense_CURRENT_SOURCE */
 273:.\Generated_Source\PSoC5/CapSense.c ****     #endif  /* CapSense_DESIGN_TYPE */
 274:.\Generated_Source\PSoC5/CapSense.c ****     
 275:.\Generated_Source\PSoC5/CapSense.c ****     /* Int Rb */
 276:.\Generated_Source\PSoC5/CapSense.c ****     #if (CapSense_CURRENT_SOURCE == CapSense_EXTERNAL_RB)
 277:.\Generated_Source\PSoC5/CapSense.c ****         CapSense_InitRb();
 278:.\Generated_Source\PSoC5/CapSense.c ****     #endif /* (CapSense_CURRENT_SOURCE == CapSense_EXTERNAL_RB) */
 279:.\Generated_Source\PSoC5/CapSense.c ****     
 280:.\Generated_Source\PSoC5/CapSense.c ****     /* Enable window generation */
 281:.\Generated_Source\PSoC5/CapSense.c ****     CapSense_CONTROL_REG |= CapSense_CTRL_WINDOW_EN__CH0;
 282:.\Generated_Source\PSoC5/CapSense.c ****     #if (CapSense_DESIGN_TYPE == CapSense_TWO_CHANNELS_DESIGN)
 283:.\Generated_Source\PSoC5/CapSense.c ****         CapSense_CONTROL_REG |= CapSense_CTRL_WINDOW_EN__CH1;
 284:.\Generated_Source\PSoC5/CapSense.c ****     #endif  /* CapSense_DESIGN_TYPE */
 285:.\Generated_Source\PSoC5/CapSense.c ****     
 286:.\Generated_Source\PSoC5/CapSense.c ****     /* Initialize Cmp and Idac */
 287:.\Generated_Source\PSoC5/CapSense.c ****     CapSense_CompCH0_Init();
 288:.\Generated_Source\PSoC5/CapSense.c ****     #if (CapSense_CURRENT_SOURCE)
 289:.\Generated_Source\PSoC5/CapSense.c ****         CapSense_IdacCH0_Init();
 290:.\Generated_Source\PSoC5/CapSense.c ****         CapSense_IdacCH0_SetPolarity(CapSense_IdacCH0_IDIR);
 291:.\Generated_Source\PSoC5/CapSense.c ****         CapSense_IdacCH0_SetRange(CapSense_IDAC_RANGE_VALUE);
 292:.\Generated_Source\PSoC5/CapSense.c ****         CapSense_IdacCH0_SetValue(CapSense_TURN_OFF_IDAC);
 293:.\Generated_Source\PSoC5/CapSense.c ****     #endif  /* CapSense_CURRENT_SOURCE */
 294:.\Generated_Source\PSoC5/CapSense.c ****     
 295:.\Generated_Source\PSoC5/CapSense.c ****     #if (CapSense_DESIGN_TYPE == CapSense_TWO_CHANNELS_DESIGN) 
 296:.\Generated_Source\PSoC5/CapSense.c ****         CapSense_CompCH1_Init();
 297:.\Generated_Source\PSoC5/CapSense.c ****         #if (CapSense_CURRENT_SOURCE)
 298:.\Generated_Source\PSoC5/CapSense.c ****             CapSense_IdacCH1_Init();
 299:.\Generated_Source\PSoC5/CapSense.c ****             CapSense_IdacCH1_SetPolarity(CapSense_IdacCH1_IDIR);
 300:.\Generated_Source\PSoC5/CapSense.c ****             CapSense_IdacCH1_SetRange(CapSense_IDAC_RANGE_VALUE);
 301:.\Generated_Source\PSoC5/CapSense.c ****             CapSense_IdacCH1_SetValue(CapSense_TURN_OFF_IDAC);
 302:.\Generated_Source\PSoC5/CapSense.c ****         #endif  /* CapSense_CURRENT_SOURCE */
 303:.\Generated_Source\PSoC5/CapSense.c ****     #endif  /* CapSense_DESIGN_TYPE */
 304:.\Generated_Source\PSoC5/CapSense.c ****     
 305:.\Generated_Source\PSoC5/CapSense.c ****     /* Initialize Vref if as VDAC */
 306:.\Generated_Source\PSoC5/CapSense.c ****     #if (CapSense_VREF_OPTIONS == CapSense_VREF_VDAC)
 307:.\Generated_Source\PSoC5/CapSense.c ****         CapSense_VdacRefCH0_Init();
 308:.\Generated_Source\PSoC5/CapSense.c ****         #if (CapSense_DESIGN_TYPE == CapSense_TWO_CHANNELS_DESIGN)
 309:.\Generated_Source\PSoC5/CapSense.c ****             CapSense_VdacRefCH1_Init();
 310:.\Generated_Source\PSoC5/CapSense.c ****         #endif  /* CapSense_DESIGN_TYPE */
 311:.\Generated_Source\PSoC5/CapSense.c ****     #endif  /* CapSense_VREF_OPTIONS */
 312:.\Generated_Source\PSoC5/CapSense.c **** }
 313:.\Generated_Source\PSoC5/CapSense.c **** 
 314:.\Generated_Source\PSoC5/CapSense.c **** 
 315:.\Generated_Source\PSoC5/CapSense.c **** /*******************************************************************************
 316:.\Generated_Source\PSoC5/CapSense.c **** * Function Name: CapSense_Enable
ARM GAS  C:\Users\Xwx47\AppData\Local\Temp\ccKXpbtH.s 			page 7


 317:.\Generated_Source\PSoC5/CapSense.c **** ********************************************************************************
 318:.\Generated_Source\PSoC5/CapSense.c **** *
 319:.\Generated_Source\PSoC5/CapSense.c **** * Summary:
 320:.\Generated_Source\PSoC5/CapSense.c **** *  Enables active mode power template bits for number of component used within 
 321:.\Generated_Source\PSoC5/CapSense.c **** *  CapSense.
 322:.\Generated_Source\PSoC5/CapSense.c **** *
 323:.\Generated_Source\PSoC5/CapSense.c **** * Parameters:
 324:.\Generated_Source\PSoC5/CapSense.c **** *  None
 325:.\Generated_Source\PSoC5/CapSense.c **** *
 326:.\Generated_Source\PSoC5/CapSense.c **** * Return:
 327:.\Generated_Source\PSoC5/CapSense.c **** *  None
 328:.\Generated_Source\PSoC5/CapSense.c **** *
 329:.\Generated_Source\PSoC5/CapSense.c **** *******************************************************************************/
 330:.\Generated_Source\PSoC5/CapSense.c **** void CapSense_Enable(void) 
 331:.\Generated_Source\PSoC5/CapSense.c **** {
  27              		.loc 1 331 0
  28              		.cfi_startproc
  29              		@ args = 0, pretend = 0, frame = 0
  30              		@ frame_needed = 0, uses_anonymous_args = 0
  31 0000 10B5     		push	{r4, lr}
  32              		.cfi_def_cfa_offset 8
  33              		.cfi_offset 4, -8
  34              		.cfi_offset 14, -4
 332:.\Generated_Source\PSoC5/CapSense.c ****     uint8 enableInterrupts;
 333:.\Generated_Source\PSoC5/CapSense.c ****     
 334:.\Generated_Source\PSoC5/CapSense.c ****     enableInterrupts = CyEnterCriticalSection();
  35              		.loc 1 334 0
  36 0002 FFF7FEFF 		bl	CyEnterCriticalSection
  37              	.LVL0:
  38 0006 0446     		mov	r4, r0
  39              	.LVL1:
 335:.\Generated_Source\PSoC5/CapSense.c ****     
 336:.\Generated_Source\PSoC5/CapSense.c ****     /* Enable Prescaler */
 337:.\Generated_Source\PSoC5/CapSense.c ****     #if (CapSense_PRESCALER_OPTIONS == CapSense_PRESCALER_UDB)
 338:.\Generated_Source\PSoC5/CapSense.c ****         /* Do nothing  for UDB */
 339:.\Generated_Source\PSoC5/CapSense.c ****     #elif (CapSense_PRESCALER_OPTIONS == CapSense_PRESCALER_FF)
 340:.\Generated_Source\PSoC5/CapSense.c ****         CapSense_PRESCALER_ACT_PWRMGR_REG  |= CapSense_PRESCALER_ACT_PWR_EN;
 341:.\Generated_Source\PSoC5/CapSense.c ****         CapSense_PRESCALER_STBY_PWRMGR_REG |= CapSense_PRESCALER_STBY_PWR_EN;
 342:.\Generated_Source\PSoC5/CapSense.c ****         
 343:.\Generated_Source\PSoC5/CapSense.c ****     #else
 344:.\Generated_Source\PSoC5/CapSense.c ****         /* Do nothing = config without prescaler */
 345:.\Generated_Source\PSoC5/CapSense.c ****     #endif  /* (CapSense_PRESCALER_OPTIONS == CapSense_PRESCALER_UDB) */
 346:.\Generated_Source\PSoC5/CapSense.c ****     
 347:.\Generated_Source\PSoC5/CapSense.c ****     /* Enable ScanSpeed */
 348:.\Generated_Source\PSoC5/CapSense.c ****     CapSense_SCANSPEED_AUX_CONTROL_REG |= CapSense_SCANSPEED_CTRL_ENABLE;
  40              		.loc 1 348 0
  41 0008 134B     		ldr	r3, .L2
  42 000a 1A78     		ldrb	r2, [r3]	@ zero_extendqisi2
  43 000c 42F02002 		orr	r2, r2, #32
  44 0010 1A70     		strb	r2, [r3]
 349:.\Generated_Source\PSoC5/CapSense.c ****     
 350:.\Generated_Source\PSoC5/CapSense.c ****     /* Enable Measure CH0 */
 351:.\Generated_Source\PSoC5/CapSense.c ****     #if (CapSense_IMPLEMENTATION_CH0 == CapSense_MEASURE_IMPLEMENTATION_FF)
 352:.\Generated_Source\PSoC5/CapSense.c ****         /* Window PWM */
 353:.\Generated_Source\PSoC5/CapSense.c ****         CapSense_PWM_CH0_ACT_PWRMGR_REG  |= CapSense_PWM_CH0_ACT_PWR_EN;
 354:.\Generated_Source\PSoC5/CapSense.c ****         CapSense_PWM_CH0_STBY_PWRMGR_REG |= CapSense_PWM_CH0_STBY_PWR_EN;
 355:.\Generated_Source\PSoC5/CapSense.c ****         
ARM GAS  C:\Users\Xwx47\AppData\Local\Temp\ccKXpbtH.s 			page 8


 356:.\Generated_Source\PSoC5/CapSense.c ****         /* Raw Counter */
 357:.\Generated_Source\PSoC5/CapSense.c ****         CapSense_RAW_CH0_ACT_PWRMGR_REG  |= CapSense_RAW_CH0_ACT_PWR_EN;
 358:.\Generated_Source\PSoC5/CapSense.c ****         CapSense_RAW_CH0_STBY_PWRMGR_REG |= CapSense_RAW_CH0_STBY_PWR_EN;
 359:.\Generated_Source\PSoC5/CapSense.c ****         
 360:.\Generated_Source\PSoC5/CapSense.c ****     #else
 361:.\Generated_Source\PSoC5/CapSense.c ****         /* Window PWM -  Do nothing */
 362:.\Generated_Source\PSoC5/CapSense.c ****         /* Raw Counter - Do nothing */
 363:.\Generated_Source\PSoC5/CapSense.c ****         
 364:.\Generated_Source\PSoC5/CapSense.c ****     #endif  /* (CapSense_IMPLEMENTATION_CH0 == CapSense_MEASURE_IMPLEMENTATION_FF) */ 
 365:.\Generated_Source\PSoC5/CapSense.c ****     
 366:.\Generated_Source\PSoC5/CapSense.c ****     /* Enable Measure CH1*/
 367:.\Generated_Source\PSoC5/CapSense.c ****     #if (CapSense_DESIGN_TYPE == CapSense_TWO_CHANNELS_DESIGN)
 368:.\Generated_Source\PSoC5/CapSense.c ****         #if (CapSense_IMPLEMENTATION_CH1 == CapSense_MEASURE_IMPLEMENTATION_FF)
 369:.\Generated_Source\PSoC5/CapSense.c ****             /* Window PWM */
 370:.\Generated_Source\PSoC5/CapSense.c ****             CapSense_PWM_CH1_ACT_PWRMGR_REG  |= CapSense_PWM_CH1_ACT_PWR_EN;
 371:.\Generated_Source\PSoC5/CapSense.c ****             CapSense_PWM_CH1_STBY_PWRMGR_REG |= CapSense_PWM_CH1_STBY_PWR_EN;
 372:.\Generated_Source\PSoC5/CapSense.c ****             
 373:.\Generated_Source\PSoC5/CapSense.c ****             /* Raw Counter */
 374:.\Generated_Source\PSoC5/CapSense.c ****             CapSense_RAW_CH1_ACT_PWRMGR_REG  |= CapSense_RAW_CH1_ACT_PWR_EN;
 375:.\Generated_Source\PSoC5/CapSense.c ****             CapSense_RAW_CH1_STBY_PWRMGR_REG |= CapSense_RAW_CH1_STBY_PWR_EN;
 376:.\Generated_Source\PSoC5/CapSense.c ****            
 377:.\Generated_Source\PSoC5/CapSense.c ****         #else
 378:.\Generated_Source\PSoC5/CapSense.c ****         /* Window PWM -  Do nothing */
 379:.\Generated_Source\PSoC5/CapSense.c ****         /* Raw Counter - Do nothing */
 380:.\Generated_Source\PSoC5/CapSense.c ****         
 381:.\Generated_Source\PSoC5/CapSense.c ****         #endif  /* (CapSense_IMPLEMENTATION_CH1 == CapSense_MEASURE_IMPLEMENTATION_FF) */
 382:.\Generated_Source\PSoC5/CapSense.c ****     
 383:.\Generated_Source\PSoC5/CapSense.c ****     #endif  /* (CapSense_DESIGN_TYPE == TWO_CHANNELS_DESIGN)*/
 384:.\Generated_Source\PSoC5/CapSense.c ****     
 385:.\Generated_Source\PSoC5/CapSense.c ****     /* Enable the Clock */
 386:.\Generated_Source\PSoC5/CapSense.c ****     #if (CapSense_CLOCK_SOURCE == CapSense_INTERNAL_CLOCK)
 387:.\Generated_Source\PSoC5/CapSense.c ****        CapSense_IntClock_Enable();
  45              		.loc 1 387 0
  46 0012 FFF7FEFF 		bl	CapSense_IntClock_Start
  47              	.LVL2:
 388:.\Generated_Source\PSoC5/CapSense.c ****     #endif  /* CapSense_CLOCK_SOURCE */
 389:.\Generated_Source\PSoC5/CapSense.c ****     
 390:.\Generated_Source\PSoC5/CapSense.c ****     /* Setup Cmp and Idac */
 391:.\Generated_Source\PSoC5/CapSense.c ****     CapSense_CompCH0_Enable();
  48              		.loc 1 391 0
  49 0016 FFF7FEFF 		bl	CapSense_CompCH0_Enable
  50              	.LVL3:
 392:.\Generated_Source\PSoC5/CapSense.c ****     #if (CapSense_CURRENT_SOURCE)
 393:.\Generated_Source\PSoC5/CapSense.c ****         CapSense_IdacCH0_Enable();
  51              		.loc 1 393 0
  52 001a FFF7FEFF 		bl	CapSense_IdacCH0_Enable
  53              	.LVL4:
 394:.\Generated_Source\PSoC5/CapSense.c ****     #endif  /* CapSense_CURRENT_SOURCE */
 395:.\Generated_Source\PSoC5/CapSense.c ****     
 396:.\Generated_Source\PSoC5/CapSense.c ****     #if (CapSense_DESIGN_TYPE == CapSense_TWO_CHANNELS_DESIGN) 
 397:.\Generated_Source\PSoC5/CapSense.c ****         CapSense_CompCH1_Enable();
 398:.\Generated_Source\PSoC5/CapSense.c ****         #if (CapSense_CURRENT_SOURCE)
 399:.\Generated_Source\PSoC5/CapSense.c ****             CapSense_IdacCH1_Enable();
 400:.\Generated_Source\PSoC5/CapSense.c ****         #endif  /* CapSense_CURRENT_SOURCE */
 401:.\Generated_Source\PSoC5/CapSense.c ****     #endif  /* CapSense_DESIGN_TYPE */
 402:.\Generated_Source\PSoC5/CapSense.c ****     
 403:.\Generated_Source\PSoC5/CapSense.c ****     /* Enable Vref */
ARM GAS  C:\Users\Xwx47\AppData\Local\Temp\ccKXpbtH.s 			page 9


 404:.\Generated_Source\PSoC5/CapSense.c ****     #if (CapSense_VREF_OPTIONS == CapSense_VREF_VDAC)
 405:.\Generated_Source\PSoC5/CapSense.c ****         CapSense_VdacRefCH0_Enable();
 406:.\Generated_Source\PSoC5/CapSense.c ****         CapSense_VdacRefCH0_SetValue(CapSense_VdacRefCH0_DEFAULT_DATA);
 407:.\Generated_Source\PSoC5/CapSense.c ****         #if (CapSense_DESIGN_TYPE == CapSense_TWO_CHANNELS_DESIGN)
 408:.\Generated_Source\PSoC5/CapSense.c ****             CapSense_VdacRefCH1_Enable();
 409:.\Generated_Source\PSoC5/CapSense.c ****             CapSense_VdacRefCH1_SetValue(CapSense_VdacRefCH1_DEFAULT_DATA);
 410:.\Generated_Source\PSoC5/CapSense.c ****         #endif  /* (CapSense_DESIGN_TYPE == CapSense_TWO_CHANNELS_DESIGN) */
 411:.\Generated_Source\PSoC5/CapSense.c ****     #else
 412:.\Generated_Source\PSoC5/CapSense.c ****         /* Enable CapSense Buf */
 413:.\Generated_Source\PSoC5/CapSense.c ****         CapSense_BufCH0_STBY_PWRMGR_REG |= CapSense_BufCH0_STBY_PWR_EN;
  54              		.loc 1 413 0
  55 001e 0F4B     		ldr	r3, .L2+4
  56 0020 1A78     		ldrb	r2, [r3]	@ zero_extendqisi2
  57 0022 42F01002 		orr	r2, r2, #16
  58 0026 1A70     		strb	r2, [r3]
 414:.\Generated_Source\PSoC5/CapSense.c ****         CapSense_BufCH0_ACT_PWRMGR_REG  |= CapSense_BufCH0_ACT_PWR_EN;
  59              		.loc 1 414 0
  60 0028 103B     		subs	r3, r3, #16
  61 002a 1A78     		ldrb	r2, [r3]	@ zero_extendqisi2
  62 002c 42F01002 		orr	r2, r2, #16
  63 0030 1A70     		strb	r2, [r3]
 415:.\Generated_Source\PSoC5/CapSense.c ****         
 416:.\Generated_Source\PSoC5/CapSense.c ****         #if (CapSense_DESIGN_TYPE == CapSense_TWO_CHANNELS_DESIGN)
 417:.\Generated_Source\PSoC5/CapSense.c ****             CapSense_BufCH1_STBY_PWRMGR_REG |= CapSense_BufCH1_STBY_PWR_EN;
 418:.\Generated_Source\PSoC5/CapSense.c ****             CapSense_BufCH1_ACT_PWRMGR_REG  |= CapSense_BufCH1_ACT_PWR_EN;
 419:.\Generated_Source\PSoC5/CapSense.c ****         #endif  /* (CapSense_DESIGN_TYPE == CapSense_TWO_CHANNELS_DESIGN) */
 420:.\Generated_Source\PSoC5/CapSense.c ****     #endif  /* (CapSense_VREF_VDAC == CapSense_VREF_OPTIONS) */
 421:.\Generated_Source\PSoC5/CapSense.c ****     
 422:.\Generated_Source\PSoC5/CapSense.c ****     /* Set reference on AMux Bus */
 423:.\Generated_Source\PSoC5/CapSense.c ****     #if (CapSense_VREF_OPTIONS == CapSense_VREF_VDAC)
 424:.\Generated_Source\PSoC5/CapSense.c ****         /* Connect Vdac to AMux Bus */
 425:.\Generated_Source\PSoC5/CapSense.c ****         CapSense_AMuxCH0_Connect(CapSense_AMuxCH0_VREF_CHANNEL);
 426:.\Generated_Source\PSoC5/CapSense.c ****         #if (CapSense_DESIGN_TYPE == CapSense_TWO_CHANNELS_DESIGN)
 427:.\Generated_Source\PSoC5/CapSense.c ****             CapSense_AMuxCH1_Connect(CapSense_AMuxCH1_VREF_CHANNEL);
 428:.\Generated_Source\PSoC5/CapSense.c ****         #endif  /* (CapSense_DESIGN_TYPE == CapSense_TWO_CHANNELS_DESIGN) */
 429:.\Generated_Source\PSoC5/CapSense.c ****         
 430:.\Generated_Source\PSoC5/CapSense.c ****     #else
 431:.\Generated_Source\PSoC5/CapSense.c ****         /* Enable CapSense Buf */
 432:.\Generated_Source\PSoC5/CapSense.c ****         CapSense_BufCH0_CAPS_CFG0_REG |= CapSense_CSBUF_ENABLE;
  64              		.loc 1 432 0
  65 0032 03F5A653 		add	r3, r3, #5312
  66 0036 0533     		adds	r3, r3, #5
  67 0038 1A78     		ldrb	r2, [r3]	@ zero_extendqisi2
  68 003a 42F00102 		orr	r2, r2, #1
  69 003e 1A70     		strb	r2, [r3]
 433:.\Generated_Source\PSoC5/CapSense.c ****         
 434:.\Generated_Source\PSoC5/CapSense.c ****         #if (CapSense_DESIGN_TYPE == CapSense_TWO_CHANNELS_DESIGN)
 435:.\Generated_Source\PSoC5/CapSense.c ****             CapSense_BufCH1_CAPS_CFG0_REG |= CapSense_CSBUF_ENABLE;
 436:.\Generated_Source\PSoC5/CapSense.c ****         #endif  /* (CapSense_DESIGN_TYPE == CapSense_TWO_CHANNELS_DESIGN) */
 437:.\Generated_Source\PSoC5/CapSense.c ****     #endif  /* (CapSense_VREF_VDAC == CapSense_VREF_OPTIONS)*/
 438:.\Generated_Source\PSoC5/CapSense.c ****     
 439:.\Generated_Source\PSoC5/CapSense.c ****     CyExitCriticalSection(enableInterrupts);
  70              		.loc 1 439 0
  71 0040 2046     		mov	r0, r4
  72 0042 FFF7FEFF 		bl	CyExitCriticalSection
  73              	.LVL5:
 440:.\Generated_Source\PSoC5/CapSense.c ****     
ARM GAS  C:\Users\Xwx47\AppData\Local\Temp\ccKXpbtH.s 			page 10


 441:.\Generated_Source\PSoC5/CapSense.c ****     /* Enable interrupt */
 442:.\Generated_Source\PSoC5/CapSense.c ****     CyIntEnable(CapSense_IsrCH0_ISR_NUMBER);
  74              		.loc 1 442 0
  75 0046 0122     		movs	r2, #1
  76 0048 054B     		ldr	r3, .L2+8
  77 004a 1A60     		str	r2, [r3]
 443:.\Generated_Source\PSoC5/CapSense.c ****     #if (CapSense_DESIGN_TYPE == CapSense_TWO_CHANNELS_DESIGN) 
 444:.\Generated_Source\PSoC5/CapSense.c ****         CyIntEnable(CapSense_IsrCH1_ISR_NUMBER);
 445:.\Generated_Source\PSoC5/CapSense.c ****     #endif  /* CapSense_DESIGN_TYPE */
 446:.\Generated_Source\PSoC5/CapSense.c ****     
 447:.\Generated_Source\PSoC5/CapSense.c ****     /* Set CapSense Enable state */
 448:.\Generated_Source\PSoC5/CapSense.c ****     CapSense_CONTROL_REG |= CapSense_CTRL_CAPSENSE_EN;
  78              		.loc 1 448 0
  79 004c 054B     		ldr	r3, .L2+12
  80 004e 1A78     		ldrb	r2, [r3]	@ zero_extendqisi2
  81 0050 42F08002 		orr	r2, r2, #128
  82 0054 1A70     		strb	r2, [r3]
  83 0056 10BD     		pop	{r4, pc}
  84              	.LVL6:
  85              	.L3:
  86              		.align	2
  87              	.L2:
  88 0058 99640040 		.word	1073767577
  89 005c BB430040 		.word	1073759163
  90 0060 00E100E0 		.word	-536813312
  91 0064 7A640040 		.word	1073767546
  92              		.cfi_endproc
  93              	.LFE1:
  94              		.size	CapSense_Enable, .-CapSense_Enable
  95              		.section	.text.CapSense_FindNextSensor,"ax",%progbits
  96              		.align	2
  97              		.global	CapSense_FindNextSensor
  98              		.thumb
  99              		.thumb_func
 100              		.type	CapSense_FindNextSensor, %function
 101              	CapSense_FindNextSensor:
 102              	.LFB4:
 449:.\Generated_Source\PSoC5/CapSense.c **** }
 450:.\Generated_Source\PSoC5/CapSense.c **** 
 451:.\Generated_Source\PSoC5/CapSense.c **** 
 452:.\Generated_Source\PSoC5/CapSense.c **** /*******************************************************************************
 453:.\Generated_Source\PSoC5/CapSense.c **** * Function Name: CapSense_Start
 454:.\Generated_Source\PSoC5/CapSense.c **** ********************************************************************************
 455:.\Generated_Source\PSoC5/CapSense.c **** *
 456:.\Generated_Source\PSoC5/CapSense.c **** * Summary:
 457:.\Generated_Source\PSoC5/CapSense.c **** *  Initializes registers and starts the CSD method of CapSense component. Reset 
 458:.\Generated_Source\PSoC5/CapSense.c **** *  all sensors to an inactive state. Enables interrupts for sensors scanning.
 459:.\Generated_Source\PSoC5/CapSense.c **** *  When Auto Tuning (SmartSense) mode is selected the tuning procedure is 
 460:.\Generated_Source\PSoC5/CapSense.c **** *  applied for all sensors.
 461:.\Generated_Source\PSoC5/CapSense.c **** *
 462:.\Generated_Source\PSoC5/CapSense.c **** * Parameters:
 463:.\Generated_Source\PSoC5/CapSense.c **** *  None
 464:.\Generated_Source\PSoC5/CapSense.c **** *
 465:.\Generated_Source\PSoC5/CapSense.c **** * Return:
 466:.\Generated_Source\PSoC5/CapSense.c **** *  None
 467:.\Generated_Source\PSoC5/CapSense.c **** *
 468:.\Generated_Source\PSoC5/CapSense.c **** * Global Variables:
ARM GAS  C:\Users\Xwx47\AppData\Local\Temp\ccKXpbtH.s 			page 11


 469:.\Generated_Source\PSoC5/CapSense.c **** *  CapSense_initVar - used to check initial configuration, modified on 
 470:.\Generated_Source\PSoC5/CapSense.c **** *  first function call.
 471:.\Generated_Source\PSoC5/CapSense.c **** *  CapSense_lowLevelTuningDone - used to notify the Tuner GUI that 
 472:.\Generated_Source\PSoC5/CapSense.c **** *  tuning of scanning parameters are done.
 473:.\Generated_Source\PSoC5/CapSense.c **** *
 474:.\Generated_Source\PSoC5/CapSense.c **** * Reentrant:
 475:.\Generated_Source\PSoC5/CapSense.c **** *  No
 476:.\Generated_Source\PSoC5/CapSense.c **** *
 477:.\Generated_Source\PSoC5/CapSense.c **** * Note:
 478:.\Generated_Source\PSoC5/CapSense.c **** *  All widgets are enabled by default except proximity widgets. Proximity widgets 
 479:.\Generated_Source\PSoC5/CapSense.c **** *  must be manually enabled as their long scan time is incompatible 
 480:.\Generated_Source\PSoC5/CapSense.c **** *  with the fast response required of other widget types. 
 481:.\Generated_Source\PSoC5/CapSense.c **** *
 482:.\Generated_Source\PSoC5/CapSense.c **** *******************************************************************************/
 483:.\Generated_Source\PSoC5/CapSense.c **** void CapSense_Start(void)  
 484:.\Generated_Source\PSoC5/CapSense.c **** {
 485:.\Generated_Source\PSoC5/CapSense.c ****     if (CapSense_initVar == 0u)
 486:.\Generated_Source\PSoC5/CapSense.c ****     {
 487:.\Generated_Source\PSoC5/CapSense.c ****         CapSense_Init();
 488:.\Generated_Source\PSoC5/CapSense.c ****         CapSense_initVar = 1u;
 489:.\Generated_Source\PSoC5/CapSense.c ****     }
 490:.\Generated_Source\PSoC5/CapSense.c ****     CapSense_Enable();
 491:.\Generated_Source\PSoC5/CapSense.c ****     
 492:.\Generated_Source\PSoC5/CapSense.c ****     /* AutoTunning start */
 493:.\Generated_Source\PSoC5/CapSense.c ****     #if (CapSense_TUNING_METHOD == CapSense_AUTO_TUNING)
 494:.\Generated_Source\PSoC5/CapSense.c ****         /* AutoTune by sensor or pair of sensor basis */
 495:.\Generated_Source\PSoC5/CapSense.c ****         CapSense_AutoTune();
 496:.\Generated_Source\PSoC5/CapSense.c ****         CapSense_lowLevelTuningDone = 1u;
 497:.\Generated_Source\PSoC5/CapSense.c ****     #endif /* (CapSense_TUNING_METHOD == CapSense_AUTO_TUNING) */
 498:.\Generated_Source\PSoC5/CapSense.c **** }
 499:.\Generated_Source\PSoC5/CapSense.c **** 
 500:.\Generated_Source\PSoC5/CapSense.c **** 
 501:.\Generated_Source\PSoC5/CapSense.c **** /*******************************************************************************
 502:.\Generated_Source\PSoC5/CapSense.c **** * Function Name: CapSense_Stop
 503:.\Generated_Source\PSoC5/CapSense.c **** ********************************************************************************
 504:.\Generated_Source\PSoC5/CapSense.c **** *
 505:.\Generated_Source\PSoC5/CapSense.c **** * Summary:
 506:.\Generated_Source\PSoC5/CapSense.c **** *  Stops the sensors scanner, disables internal interrupts, and resets all 
 507:.\Generated_Source\PSoC5/CapSense.c **** *  sensors to an inactive state. Disables Active mode power template bits for 
 508:.\Generated_Source\PSoC5/CapSense.c **** *  number of component used within CapSense.
 509:.\Generated_Source\PSoC5/CapSense.c **** *
 510:.\Generated_Source\PSoC5/CapSense.c **** * Parameters:
 511:.\Generated_Source\PSoC5/CapSense.c **** *  None
 512:.\Generated_Source\PSoC5/CapSense.c **** *
 513:.\Generated_Source\PSoC5/CapSense.c **** * Return:
 514:.\Generated_Source\PSoC5/CapSense.c **** *  None
 515:.\Generated_Source\PSoC5/CapSense.c **** *
 516:.\Generated_Source\PSoC5/CapSense.c **** * Side Effects:
 517:.\Generated_Source\PSoC5/CapSense.c **** *  This function should be called after scans will be completed.
 518:.\Generated_Source\PSoC5/CapSense.c **** *
 519:.\Generated_Source\PSoC5/CapSense.c **** *******************************************************************************/
 520:.\Generated_Source\PSoC5/CapSense.c **** void CapSense_Stop(void) 
 521:.\Generated_Source\PSoC5/CapSense.c **** {
 522:.\Generated_Source\PSoC5/CapSense.c ****     /* Stop Capsensing */
 523:.\Generated_Source\PSoC5/CapSense.c ****     CapSense_CONTROL_REG &= (uint8)(~CapSense_CTRL_START);
 524:.\Generated_Source\PSoC5/CapSense.c ****     
 525:.\Generated_Source\PSoC5/CapSense.c ****     /* Disable interrupt */
ARM GAS  C:\Users\Xwx47\AppData\Local\Temp\ccKXpbtH.s 			page 12


 526:.\Generated_Source\PSoC5/CapSense.c ****     CyIntDisable(CapSense_IsrCH0_ISR_NUMBER);
 527:.\Generated_Source\PSoC5/CapSense.c ****     #if (CapSense_DESIGN_TYPE == CapSense_TWO_CHANNELS_DESIGN) 
 528:.\Generated_Source\PSoC5/CapSense.c ****         CyIntDisable(CapSense_IsrCH1_ISR_NUMBER);
 529:.\Generated_Source\PSoC5/CapSense.c ****     #endif  /* CapSense_DESIGN_TYPE */
 530:.\Generated_Source\PSoC5/CapSense.c ****     
 531:.\Generated_Source\PSoC5/CapSense.c ****     /* Clear all sensors */
 532:.\Generated_Source\PSoC5/CapSense.c ****     CapSense_ClearSensors();
 533:.\Generated_Source\PSoC5/CapSense.c ****     
 534:.\Generated_Source\PSoC5/CapSense.c ****     /* Disable Prescaler */
 535:.\Generated_Source\PSoC5/CapSense.c ****     #if (CapSense_PRESCALER_OPTIONS == CapSense_PRESCALER_UDB)
 536:.\Generated_Source\PSoC5/CapSense.c ****         /* Do nothing  for UDB */
 537:.\Generated_Source\PSoC5/CapSense.c ****     #elif (CapSense_PRESCALER_OPTIONS == CapSense_PRESCALER_FF)        
 538:.\Generated_Source\PSoC5/CapSense.c ****         CapSense_PRESCALER_ACT_PWRMGR_REG  &= ~CapSense_PRESCALER_ACT_PWR_EN;
 539:.\Generated_Source\PSoC5/CapSense.c ****         CapSense_PRESCALER_STBY_PWRMGR_REG &= ~CapSense_PRESCALER_STBY_PWR_EN;
 540:.\Generated_Source\PSoC5/CapSense.c ****         
 541:.\Generated_Source\PSoC5/CapSense.c ****     #else
 542:.\Generated_Source\PSoC5/CapSense.c ****         /* Do nothing = config without prescaler */
 543:.\Generated_Source\PSoC5/CapSense.c ****     #endif  /* (CapSense_PRESCALER_OPTIONS == CapSense_PRESCALER_UDB) */
 544:.\Generated_Source\PSoC5/CapSense.c ****     
 545:.\Generated_Source\PSoC5/CapSense.c ****     /* Disable ScanSpeed */
 546:.\Generated_Source\PSoC5/CapSense.c ****     CapSense_SCANSPEED_AUX_CONTROL_REG &= (uint8)(~CapSense_SCANSPEED_CTRL_ENABLE);
 547:.\Generated_Source\PSoC5/CapSense.c ****     
 548:.\Generated_Source\PSoC5/CapSense.c ****     /* Disable Measure CH0 */
 549:.\Generated_Source\PSoC5/CapSense.c ****     #if (CapSense_IMPLEMENTATION_CH0 == CapSense_MEASURE_IMPLEMENTATION_FF)
 550:.\Generated_Source\PSoC5/CapSense.c ****         /* Window PWM */
 551:.\Generated_Source\PSoC5/CapSense.c ****         CapSense_PWM_CH0_ACT_PWRMGR_REG  &= ~CapSense_PWM_CH0_ACT_PWR_EN;
 552:.\Generated_Source\PSoC5/CapSense.c ****         CapSense_PWM_CH0_STBY_PWRMGR_REG &= ~CapSense_PWM_CH0_STBY_PWR_EN;
 553:.\Generated_Source\PSoC5/CapSense.c **** 
 554:.\Generated_Source\PSoC5/CapSense.c ****         /* Raw Counter */
 555:.\Generated_Source\PSoC5/CapSense.c ****         CapSense_RAW_CH0_ACT_PWRMGR_REG  &= ~CapSense_RAW_CH0_ACT_PWR_EN;
 556:.\Generated_Source\PSoC5/CapSense.c ****         CapSense_RAW_CH0_STBY_PWRMGR_REG &= ~CapSense_RAW_CH0_STBY_PWR_EN;
 557:.\Generated_Source\PSoC5/CapSense.c **** 
 558:.\Generated_Source\PSoC5/CapSense.c ****     #else
 559:.\Generated_Source\PSoC5/CapSense.c ****         /* Window PWM -  Do nothing */
 560:.\Generated_Source\PSoC5/CapSense.c ****         /* Raw Counter - Do nothing */
 561:.\Generated_Source\PSoC5/CapSense.c ****         
 562:.\Generated_Source\PSoC5/CapSense.c ****     #endif  /* (CapSense_IMPLEMENTATION_CH0 == CapSense_MEASURE_IMPLEMENTATION_FF) */ 
 563:.\Generated_Source\PSoC5/CapSense.c ****     
 564:.\Generated_Source\PSoC5/CapSense.c ****     /* Disable Measure CH1 */
 565:.\Generated_Source\PSoC5/CapSense.c ****     #if (CapSense_DESIGN_TYPE == CapSense_TWO_CHANNELS_DESIGN)
 566:.\Generated_Source\PSoC5/CapSense.c ****         #if (CapSense_IMPLEMENTATION_CH1 == CapSense_MEASURE_IMPLEMENTATION_FF)
 567:.\Generated_Source\PSoC5/CapSense.c ****             /* Window PWM */
 568:.\Generated_Source\PSoC5/CapSense.c ****             CapSense_PWM_CH1_ACT_PWRMGR_REG  &= ~CapSense_PWM_CH1_ACT_PWR_EN;
 569:.\Generated_Source\PSoC5/CapSense.c ****             CapSense_PWM_CH1_STBY_PWRMGR_REG &= ~CapSense_PWM_CH1_STBY_PWR_EN;
 570:.\Generated_Source\PSoC5/CapSense.c ****     
 571:.\Generated_Source\PSoC5/CapSense.c ****             /* Raw Counter */
 572:.\Generated_Source\PSoC5/CapSense.c ****             CapSense_RAW_CH1_ACT_PWRMGR_REG  &= ~CapSense_RAW_CH1_ACT_PWR_EN;
 573:.\Generated_Source\PSoC5/CapSense.c ****             CapSense_RAW_CH1_STBY_PWRMGR_REG &= ~CapSense_RAW_CH1_STBY_PWR_EN;
 574:.\Generated_Source\PSoC5/CapSense.c ****            
 575:.\Generated_Source\PSoC5/CapSense.c ****         #else
 576:.\Generated_Source\PSoC5/CapSense.c ****         /* Window PWM -  Do nothing */
 577:.\Generated_Source\PSoC5/CapSense.c ****         /* Raw Counter - Do nothing */
 578:.\Generated_Source\PSoC5/CapSense.c ****         
 579:.\Generated_Source\PSoC5/CapSense.c ****         #endif  /* (CapSense_IMPLEMENTATION_CH1 == CapSense_MEASURE_IMPLEMENTATION_FF) */
 580:.\Generated_Source\PSoC5/CapSense.c ****     
 581:.\Generated_Source\PSoC5/CapSense.c ****     #endif  /* (CapSense_DESIGN_TYPE == TWO_CHANNELS_DESIGN)*/
 582:.\Generated_Source\PSoC5/CapSense.c ****     
ARM GAS  C:\Users\Xwx47\AppData\Local\Temp\ccKXpbtH.s 			page 13


 583:.\Generated_Source\PSoC5/CapSense.c ****     /* Disable the Clock */
 584:.\Generated_Source\PSoC5/CapSense.c ****     #if (CapSense_CLOCK_SOURCE == CapSense_INTERNAL_CLOCK)
 585:.\Generated_Source\PSoC5/CapSense.c ****        CapSense_IntClock_Stop();
 586:.\Generated_Source\PSoC5/CapSense.c ****     #endif  /* CapSense_CLOCK_SOURCE */
 587:.\Generated_Source\PSoC5/CapSense.c ****     
 588:.\Generated_Source\PSoC5/CapSense.c ****     /* Disable power from Cmp and Idac */
 589:.\Generated_Source\PSoC5/CapSense.c ****     CapSense_CompCH0_Stop();
 590:.\Generated_Source\PSoC5/CapSense.c ****     #if (CapSense_CURRENT_SOURCE)
 591:.\Generated_Source\PSoC5/CapSense.c ****         CapSense_IdacCH0_Stop();
 592:.\Generated_Source\PSoC5/CapSense.c ****     #endif  /* CapSense_CURRENT_SOURCE */
 593:.\Generated_Source\PSoC5/CapSense.c ****     
 594:.\Generated_Source\PSoC5/CapSense.c ****     #if (CapSense_DESIGN_TYPE == CapSense_TWO_CHANNELS_DESIGN) 
 595:.\Generated_Source\PSoC5/CapSense.c ****         CapSense_CompCH1_Stop();
 596:.\Generated_Source\PSoC5/CapSense.c ****         #if (CapSense_CURRENT_SOURCE)
 597:.\Generated_Source\PSoC5/CapSense.c ****             CapSense_IdacCH1_Stop();
 598:.\Generated_Source\PSoC5/CapSense.c ****         #endif  /* CapSense_CURRENT_SOURCE */
 599:.\Generated_Source\PSoC5/CapSense.c ****     #endif  /* CapSense_DESIGN_TYPE */    
 600:.\Generated_Source\PSoC5/CapSense.c ****     
 601:.\Generated_Source\PSoC5/CapSense.c ****     /* Disable Vref if as VDAC */
 602:.\Generated_Source\PSoC5/CapSense.c ****     #if (CapSense_VREF_OPTIONS == CapSense_VREF_VDAC)
 603:.\Generated_Source\PSoC5/CapSense.c ****         CapSense_VdacRefCH0_Stop();
 604:.\Generated_Source\PSoC5/CapSense.c ****         #if (CapSense_DESIGN_TYPE == CapSense_TWO_CHANNELS_DESIGN)
 605:.\Generated_Source\PSoC5/CapSense.c ****             CapSense_VdacRefCH1_Stop();
 606:.\Generated_Source\PSoC5/CapSense.c ****         #endif  /* CapSense_DESIGN_TYPE */
 607:.\Generated_Source\PSoC5/CapSense.c ****     #endif  /* CapSense_VREF_OPTIONS */
 608:.\Generated_Source\PSoC5/CapSense.c **** 
 609:.\Generated_Source\PSoC5/CapSense.c ****     #if (CapSense_VREF_VDAC == CapSense_VREF_OPTIONS)
 610:.\Generated_Source\PSoC5/CapSense.c ****         /* The Idac turn off before */
 611:.\Generated_Source\PSoC5/CapSense.c ****     #else
 612:.\Generated_Source\PSoC5/CapSense.c ****         /* Enable CapSense Buf */
 613:.\Generated_Source\PSoC5/CapSense.c ****         CapSense_BufCH0_CAPS_CFG0_REG &= (uint8)(~CapSense_CSBUF_ENABLE);
 614:.\Generated_Source\PSoC5/CapSense.c ****         CapSense_BufCH0_ACT_PWRMGR_REG &= (uint8)(~CapSense_BufCH0_ACT_PWR_EN);
 615:.\Generated_Source\PSoC5/CapSense.c ****         CapSense_BufCH0_STBY_PWRMGR_REG &= (uint8)(~CapSense_BufCH0_STBY_PWR_EN);
 616:.\Generated_Source\PSoC5/CapSense.c ****         
 617:.\Generated_Source\PSoC5/CapSense.c ****         #if (CapSense_DESIGN_TYPE == CapSense_TWO_CHANNELS_DESIGN)
 618:.\Generated_Source\PSoC5/CapSense.c ****             CapSense_BufCH1_CAPS_CFG0_REG &= (uint8)(~CapSense_CSBUF_ENABLE);
 619:.\Generated_Source\PSoC5/CapSense.c ****             CapSense_BufCH1_ACT_PWRMGR_REG &= (uint8)(~CapSense_BufCH1_ACT_PWR_EN);
 620:.\Generated_Source\PSoC5/CapSense.c ****             CapSense_BufCH1_STBY_PWRMGR_REG &= (uint8)(~CapSense_BufCH1_STBY_PWR_EN);
 621:.\Generated_Source\PSoC5/CapSense.c ****         #endif  /*(CapSense_DESIGN_TYPE == CapSense_TWO_CHANNELS_DESIGN) */
 622:.\Generated_Source\PSoC5/CapSense.c ****     #endif  /* (CapSense_VREF_VDAC == CapSense_VREF_OPTIONS) */
 623:.\Generated_Source\PSoC5/CapSense.c ****     
 624:.\Generated_Source\PSoC5/CapSense.c ****     /* Set CapSense Disable state */
 625:.\Generated_Source\PSoC5/CapSense.c ****     CapSense_CONTROL_REG &= (uint8)(~CapSense_CTRL_CAPSENSE_EN);
 626:.\Generated_Source\PSoC5/CapSense.c **** }
 627:.\Generated_Source\PSoC5/CapSense.c **** 
 628:.\Generated_Source\PSoC5/CapSense.c **** 
 629:.\Generated_Source\PSoC5/CapSense.c **** #if (CapSense_DESIGN_TYPE == CapSense_ONE_CHANNEL_DESIGN)
 630:.\Generated_Source\PSoC5/CapSense.c ****     /*******************************************************************************
 631:.\Generated_Source\PSoC5/CapSense.c ****     * Function Name: CapSense_FindNextSensor
 632:.\Generated_Source\PSoC5/CapSense.c ****     ********************************************************************************
 633:.\Generated_Source\PSoC5/CapSense.c ****     *
 634:.\Generated_Source\PSoC5/CapSense.c ****     * Summary:
 635:.\Generated_Source\PSoC5/CapSense.c ****     *  Finds next sensor to scan. 
 636:.\Generated_Source\PSoC5/CapSense.c ****     *
 637:.\Generated_Source\PSoC5/CapSense.c ****     * Parameters:
 638:.\Generated_Source\PSoC5/CapSense.c ****     *  snsIndex:  Current index of sensor.
 639:.\Generated_Source\PSoC5/CapSense.c ****     *
ARM GAS  C:\Users\Xwx47\AppData\Local\Temp\ccKXpbtH.s 			page 14


 640:.\Generated_Source\PSoC5/CapSense.c ****     * Return:
 641:.\Generated_Source\PSoC5/CapSense.c ****     *  Returns the next sensor index to scan.
 642:.\Generated_Source\PSoC5/CapSense.c ****     *
 643:.\Generated_Source\PSoC5/CapSense.c ****     * Global Variables:
 644:.\Generated_Source\PSoC5/CapSense.c ****     *  CapSense_sensorEnableMask[ ] - used to store bit masks of enabled 
 645:.\Generated_Source\PSoC5/CapSense.c ****     *  sensors.
 646:.\Generated_Source\PSoC5/CapSense.c ****     *  CapSense_sensorEnableMask[0] contains the masked bits for sensors 0
 647:.\Generated_Source\PSoC5/CapSense.c ****     *  through 7 (sensor 0 is bit 0, sensor 1 is bit 1).
 648:.\Generated_Source\PSoC5/CapSense.c ****     *  CapSense_sensorEnableMask[1] contains the masked bits for sensors 
 649:.\Generated_Source\PSoC5/CapSense.c ****     *  8 through 15 (if needed), and so on.
 650:.\Generated_Source\PSoC5/CapSense.c ****     *    0 - sensor doesn't scan by CapSense_ScanEnabledWidgets().
 651:.\Generated_Source\PSoC5/CapSense.c ****     *    1 - sensor scans by CapSense_ScanEnabledWidgets().
 652:.\Generated_Source\PSoC5/CapSense.c ****     *
 653:.\Generated_Source\PSoC5/CapSense.c ****     * Note: 
 654:.\Generated_Source\PSoC5/CapSense.c ****     *  This function has effect on current scanning scanning and should not
 655:.\Generated_Source\PSoC5/CapSense.c ****     *  be used outisde of component.
 656:.\Generated_Source\PSoC5/CapSense.c ****     *
 657:.\Generated_Source\PSoC5/CapSense.c ****     *******************************************************************************/
 658:.\Generated_Source\PSoC5/CapSense.c ****     uint8 CapSense_FindNextSensor(uint8 snsIndex) CYREENTRANT
 659:.\Generated_Source\PSoC5/CapSense.c ****     {
 103              		.loc 1 659 0
 104              		.cfi_startproc
 105              		@ args = 0, pretend = 0, frame = 0
 106              		@ frame_needed = 0, uses_anonymous_args = 0
 107              		@ link register save eliminated.
 108              	.LVL7:
 109 0000 10B4     		push	{r4}
 110              		.cfi_def_cfa_offset 4
 111              		.cfi_offset 4, -4
 660:.\Generated_Source\PSoC5/CapSense.c ****         uint8 pos;
 661:.\Generated_Source\PSoC5/CapSense.c ****         uint8 enMask;
 662:.\Generated_Source\PSoC5/CapSense.c ****         
 663:.\Generated_Source\PSoC5/CapSense.c ****         /* Check if sensor enabled */
 664:.\Generated_Source\PSoC5/CapSense.c ****         do
 665:.\Generated_Source\PSoC5/CapSense.c ****         {
 666:.\Generated_Source\PSoC5/CapSense.c ****             /* Proceed with the next sensor */
 667:.\Generated_Source\PSoC5/CapSense.c ****             snsIndex++;
 668:.\Generated_Source\PSoC5/CapSense.c ****             if(snsIndex == CapSense_TOTAL_SENSOR_COUNT)
 669:.\Generated_Source\PSoC5/CapSense.c ****             {
 670:.\Generated_Source\PSoC5/CapSense.c ****                 break;
 671:.\Generated_Source\PSoC5/CapSense.c ****             }
 672:.\Generated_Source\PSoC5/CapSense.c ****             pos = (snsIndex >> 3u);
 673:.\Generated_Source\PSoC5/CapSense.c ****             enMask = 0x01u << (snsIndex & 0x07u);
 112              		.loc 1 673 0
 113 0002 0124     		movs	r4, #1
 674:.\Generated_Source\PSoC5/CapSense.c ****         }    
 675:.\Generated_Source\PSoC5/CapSense.c ****         while((CapSense_sensorEnableMask[pos] & enMask) == 0u);
 114              		.loc 1 675 0
 115 0004 0749     		ldr	r1, .L9
 116              	.LVL8:
 117              	.L6:
 667:.\Generated_Source\PSoC5/CapSense.c ****             snsIndex++;
 118              		.loc 1 667 0
 119 0006 0130     		adds	r0, r0, #1
 120              	.LVL9:
 121 0008 C0B2     		uxtb	r0, r0
 122              	.LVL10:
ARM GAS  C:\Users\Xwx47\AppData\Local\Temp\ccKXpbtH.s 			page 15


 668:.\Generated_Source\PSoC5/CapSense.c ****             if(snsIndex == CapSense_TOTAL_SENSOR_COUNT)
 123              		.loc 1 668 0
 124 000a 0328     		cmp	r0, #3
 125 000c 07D0     		beq	.L5
 672:.\Generated_Source\PSoC5/CapSense.c ****             pos = (snsIndex >> 3u);
 126              		.loc 1 672 0
 127 000e C308     		lsrs	r3, r0, #3
 673:.\Generated_Source\PSoC5/CapSense.c ****             enMask = 0x01u << (snsIndex & 0x07u);
 128              		.loc 1 673 0
 129 0010 00F00702 		and	r2, r0, #7
 130 0014 04FA02F2 		lsl	r2, r4, r2
 131              	.LVL11:
 132              		.loc 1 675 0
 133 0018 CB5C     		ldrb	r3, [r1, r3]	@ zero_extendqisi2
 134 001a 1A42     		tst	r2, r3
 135 001c F3D0     		beq	.L6
 136              	.LVL12:
 137              	.L5:
 676:.\Generated_Source\PSoC5/CapSense.c ****         
 677:.\Generated_Source\PSoC5/CapSense.c ****         return snsIndex;
 678:.\Generated_Source\PSoC5/CapSense.c ****     }
 138              		.loc 1 678 0
 139 001e 5DF8044B 		ldr	r4, [sp], #4
 140 0022 7047     		bx	lr
 141              	.L10:
 142              		.align	2
 143              	.L9:
 144 0024 00000000 		.word	.LANCHOR0
 145              		.cfi_endproc
 146              	.LFE4:
 147              		.size	CapSense_FindNextSensor, .-CapSense_FindNextSensor
 148              		.section	.text.CapSense_IsBusy,"ax",%progbits
 149              		.align	2
 150              		.global	CapSense_IsBusy
 151              		.thumb
 152              		.thumb_func
 153              		.type	CapSense_IsBusy, %function
 154              	CapSense_IsBusy:
 155              	.LFB8:
 679:.\Generated_Source\PSoC5/CapSense.c ****  #endif  /* CapSense_DESIGN_TYPE == CapSense_ONE_CHANNEL_DESIGN */
 680:.\Generated_Source\PSoC5/CapSense.c ****  
 681:.\Generated_Source\PSoC5/CapSense.c ****  
 682:.\Generated_Source\PSoC5/CapSense.c **** #if (CapSense_DESIGN_TYPE == CapSense_TWO_CHANNELS_DESIGN)
 683:.\Generated_Source\PSoC5/CapSense.c ****     /*******************************************************************************
 684:.\Generated_Source\PSoC5/CapSense.c ****     * Function Name: CapSense_FindNextPair
 685:.\Generated_Source\PSoC5/CapSense.c ****     ********************************************************************************
 686:.\Generated_Source\PSoC5/CapSense.c ****     *
 687:.\Generated_Source\PSoC5/CapSense.c ****     * Summary:
 688:.\Generated_Source\PSoC5/CapSense.c ****     *  Finds next pair or sensor to scan. Sets condition bits to skip scanning.
 689:.\Generated_Source\PSoC5/CapSense.c ****     *  
 690:.\Generated_Source\PSoC5/CapSense.c ****     * Parameters:
 691:.\Generated_Source\PSoC5/CapSense.c ****     *  snsIndex:  Current index pair of sensors.
 692:.\Generated_Source\PSoC5/CapSense.c ****     *
 693:.\Generated_Source\PSoC5/CapSense.c ****     * Return:
 694:.\Generated_Source\PSoC5/CapSense.c ****     *  Returns the next pair of sensors index to scan.
 695:.\Generated_Source\PSoC5/CapSense.c ****     *
 696:.\Generated_Source\PSoC5/CapSense.c ****     * Global Variables:
ARM GAS  C:\Users\Xwx47\AppData\Local\Temp\ccKXpbtH.s 			page 16


 697:.\Generated_Source\PSoC5/CapSense.c ****     *  CapSense_sensorEnableMask[ ] - used to store bit masks of enabled 
 698:.\Generated_Source\PSoC5/CapSense.c ****     *  sensors.
 699:.\Generated_Source\PSoC5/CapSense.c ****     *  CapSense_sensorEnableMask[0] contains the masked bits for sensors 0
 700:.\Generated_Source\PSoC5/CapSense.c ****     *  through 7 (sensor 0 is bit 0, sensor 1 is bit 1).
 701:.\Generated_Source\PSoC5/CapSense.c ****     *  CapSense_sensorEnableMask[1] contains the masked bits for sensors 
 702:.\Generated_Source\PSoC5/CapSense.c ****     *  8 through 15 (if needed), and so on.
 703:.\Generated_Source\PSoC5/CapSense.c ****     *    0 - sensor doesn't scan by CapSense_ScanEnabledWidgets().
 704:.\Generated_Source\PSoC5/CapSense.c ****     *    1 - sensor scans by CapSense_ScanEnabledWidgets().
 705:.\Generated_Source\PSoC5/CapSense.c ****     *
 706:.\Generated_Source\PSoC5/CapSense.c ****     * Note: 
 707:.\Generated_Source\PSoC5/CapSense.c ****     *  This function has effect on control signals set for scanning and should not
 708:.\Generated_Source\PSoC5/CapSense.c ****     *  be used outisde of component.
 709:.\Generated_Source\PSoC5/CapSense.c ****     *
 710:.\Generated_Source\PSoC5/CapSense.c ****     *******************************************************************************/
 711:.\Generated_Source\PSoC5/CapSense.c ****     uint8 CapSense_FindNextPair(uint8 snsIndex) CYREENTRANT
 712:.\Generated_Source\PSoC5/CapSense.c ****     {
 713:.\Generated_Source\PSoC5/CapSense.c ****         uint8 posCh;
 714:.\Generated_Source\PSoC5/CapSense.c ****         uint8 enMaskCh;
 715:.\Generated_Source\PSoC5/CapSense.c ****         uint8 newRegValue;
 716:.\Generated_Source\PSoC5/CapSense.c ****         uint8 indexCh0 = snsIndex;
 717:.\Generated_Source\PSoC5/CapSense.c ****         uint8 indexCh1 = snsIndex + CapSense_TOTAL_SENSOR_COUNT__CH0;
 718:.\Generated_Source\PSoC5/CapSense.c ****         
 719:.\Generated_Source\PSoC5/CapSense.c ****         /* Find enabled sensor on channel 0 */
 720:.\Generated_Source\PSoC5/CapSense.c ****         do
 721:.\Generated_Source\PSoC5/CapSense.c ****         {
 722:.\Generated_Source\PSoC5/CapSense.c ****             /* Procced the scanning */
 723:.\Generated_Source\PSoC5/CapSense.c ****             indexCh0++;
 724:.\Generated_Source\PSoC5/CapSense.c ****             if (indexCh0 >= CapSense_TOTAL_SENSOR_COUNT__CH0)
 725:.\Generated_Source\PSoC5/CapSense.c ****             {
 726:.\Generated_Source\PSoC5/CapSense.c ****                 /* Lets hadle now all from CH1 */
 727:.\Generated_Source\PSoC5/CapSense.c ****                 indexCh0 = CapSense_END_OF_SCAN__CH0;
 728:.\Generated_Source\PSoC5/CapSense.c ****                 break;
 729:.\Generated_Source\PSoC5/CapSense.c ****             }
 730:.\Generated_Source\PSoC5/CapSense.c ****             
 731:.\Generated_Source\PSoC5/CapSense.c ****             posCh = (indexCh0 >> 3u);
 732:.\Generated_Source\PSoC5/CapSense.c ****             enMaskCh = 0x01u << (indexCh0 & 0x07u);
 733:.\Generated_Source\PSoC5/CapSense.c ****         }
 734:.\Generated_Source\PSoC5/CapSense.c ****         while((CapSense_sensorEnableMask[posCh] & enMaskCh) == 0u);
 735:.\Generated_Source\PSoC5/CapSense.c ****         
 736:.\Generated_Source\PSoC5/CapSense.c ****         /* Find enabled sensor on channel 1 */
 737:.\Generated_Source\PSoC5/CapSense.c ****         do
 738:.\Generated_Source\PSoC5/CapSense.c ****         {
 739:.\Generated_Source\PSoC5/CapSense.c ****             /* Procced the scanning */
 740:.\Generated_Source\PSoC5/CapSense.c ****             indexCh1++;        
 741:.\Generated_Source\PSoC5/CapSense.c ****             if (indexCh1 >= CapSense_TOTAL_SENSOR_COUNT)
 742:.\Generated_Source\PSoC5/CapSense.c ****             {
 743:.\Generated_Source\PSoC5/CapSense.c ****                 /* Lets hadle now all from CH0 */
 744:.\Generated_Source\PSoC5/CapSense.c ****                 indexCh1 = CapSense_END_OF_SCAN__CH1;
 745:.\Generated_Source\PSoC5/CapSense.c ****                 break;
 746:.\Generated_Source\PSoC5/CapSense.c ****             }
 747:.\Generated_Source\PSoC5/CapSense.c ****             
 748:.\Generated_Source\PSoC5/CapSense.c ****             posCh = (indexCh1 >> 3u);
 749:.\Generated_Source\PSoC5/CapSense.c ****             enMaskCh = 0x01u << (indexCh1 & 0x07u);
 750:.\Generated_Source\PSoC5/CapSense.c ****         } 
 751:.\Generated_Source\PSoC5/CapSense.c ****         while((CapSense_sensorEnableMask[posCh] & enMaskCh) == 0u);
 752:.\Generated_Source\PSoC5/CapSense.c ****         
 753:.\Generated_Source\PSoC5/CapSense.c ****         indexCh1 -= CapSense_TOTAL_SENSOR_COUNT__CH0;
ARM GAS  C:\Users\Xwx47\AppData\Local\Temp\ccKXpbtH.s 			page 17


 754:.\Generated_Source\PSoC5/CapSense.c ****         
 755:.\Generated_Source\PSoC5/CapSense.c ****         /* Find the pair to scan */
 756:.\Generated_Source\PSoC5/CapSense.c ****         if(indexCh0 == indexCh1)
 757:.\Generated_Source\PSoC5/CapSense.c ****         {
 758:.\Generated_Source\PSoC5/CapSense.c ****             /* Scans TWO Channels */
 759:.\Generated_Source\PSoC5/CapSense.c ****             snsIndex = indexCh0;
 760:.\Generated_Source\PSoC5/CapSense.c ****             
 761:.\Generated_Source\PSoC5/CapSense.c ****             CapSense_CONTROL_REG |= (CapSense_CTRL_WINDOW_EN__CH0 | 
 762:.\Generated_Source\PSoC5/CapSense.c ****                                              CapSense_CTRL_WINDOW_EN__CH1);
 763:.\Generated_Source\PSoC5/CapSense.c ****         }
 764:.\Generated_Source\PSoC5/CapSense.c ****         else if(indexCh0 < indexCh1)
 765:.\Generated_Source\PSoC5/CapSense.c ****         {
 766:.\Generated_Source\PSoC5/CapSense.c ****            /* Scans Channel ONE only */
 767:.\Generated_Source\PSoC5/CapSense.c ****            snsIndex = indexCh0;
 768:.\Generated_Source\PSoC5/CapSense.c ****            
 769:.\Generated_Source\PSoC5/CapSense.c ****             newRegValue = CapSense_CONTROL_REG;
 770:.\Generated_Source\PSoC5/CapSense.c ****             newRegValue |= CapSense_CTRL_WINDOW_EN__CH0;
 771:.\Generated_Source\PSoC5/CapSense.c ****             newRegValue &= ~CapSense_CTRL_WINDOW_EN__CH1;
 772:.\Generated_Source\PSoC5/CapSense.c ****             CapSense_CONTROL_REG = newRegValue;
 773:.\Generated_Source\PSoC5/CapSense.c ****         }
 774:.\Generated_Source\PSoC5/CapSense.c ****         else
 775:.\Generated_Source\PSoC5/CapSense.c ****         {
 776:.\Generated_Source\PSoC5/CapSense.c ****             /* Scans Channel TWO only */
 777:.\Generated_Source\PSoC5/CapSense.c ****             snsIndex = indexCh1;
 778:.\Generated_Source\PSoC5/CapSense.c ****             
 779:.\Generated_Source\PSoC5/CapSense.c ****             newRegValue = CapSense_CONTROL_REG;
 780:.\Generated_Source\PSoC5/CapSense.c ****             newRegValue |= CapSense_CTRL_WINDOW_EN__CH1;
 781:.\Generated_Source\PSoC5/CapSense.c ****             newRegValue &= ~CapSense_CTRL_WINDOW_EN__CH0;
 782:.\Generated_Source\PSoC5/CapSense.c ****             CapSense_CONTROL_REG = newRegValue;
 783:.\Generated_Source\PSoC5/CapSense.c ****         }
 784:.\Generated_Source\PSoC5/CapSense.c ****         
 785:.\Generated_Source\PSoC5/CapSense.c ****         return (snsIndex);
 786:.\Generated_Source\PSoC5/CapSense.c ****     }
 787:.\Generated_Source\PSoC5/CapSense.c **** #endif  /* CapSense_DESIGN_TYPE == CapSense_TWO_CHANNELS_DESIGN */
 788:.\Generated_Source\PSoC5/CapSense.c **** 
 789:.\Generated_Source\PSoC5/CapSense.c **** 
 790:.\Generated_Source\PSoC5/CapSense.c **** /*******************************************************************************
 791:.\Generated_Source\PSoC5/CapSense.c **** * Function Name: CapSense_SetScanSlotSettings
 792:.\Generated_Source\PSoC5/CapSense.c **** ********************************************************************************
 793:.\Generated_Source\PSoC5/CapSense.c **** *
 794:.\Generated_Source\PSoC5/CapSense.c **** * Summary:
 795:.\Generated_Source\PSoC5/CapSense.c **** *  Sets the scan settings of the selected scan slot (sensor or pair of sensors). 
 796:.\Generated_Source\PSoC5/CapSense.c **** *  The scan settings incorporate IDAC value (for IDAC configurations) for every 
 797:.\Generated_Source\PSoC5/CapSense.c **** *  sensor and resolution. The resolution is the same for all sensors within 
 798:.\Generated_Source\PSoC5/CapSense.c **** *  widget.
 799:.\Generated_Source\PSoC5/CapSense.c **** *
 800:.\Generated_Source\PSoC5/CapSense.c **** * Parameters:
 801:.\Generated_Source\PSoC5/CapSense.c **** *  slot:  Scan slot number (sensor or pair of sensors).
 802:.\Generated_Source\PSoC5/CapSense.c **** *
 803:.\Generated_Source\PSoC5/CapSense.c **** * Return:
 804:.\Generated_Source\PSoC5/CapSense.c **** *  None
 805:.\Generated_Source\PSoC5/CapSense.c **** *
 806:.\Generated_Source\PSoC5/CapSense.c **** * Global Variables:
 807:.\Generated_Source\PSoC5/CapSense.c **** *  CapSense_idacSettings[] - used to store idac value for every sensor.
 808:.\Generated_Source\PSoC5/CapSense.c **** *  CapSense_widgetResolution[] - used to store scan resolution of every 
 809:.\Generated_Source\PSoC5/CapSense.c **** *  widget.
 810:.\Generated_Source\PSoC5/CapSense.c **** *
ARM GAS  C:\Users\Xwx47\AppData\Local\Temp\ccKXpbtH.s 			page 18


 811:.\Generated_Source\PSoC5/CapSense.c **** *******************************************************************************/
 812:.\Generated_Source\PSoC5/CapSense.c **** void CapSense_SetScanSlotSettings(uint8 slot) CYREENTRANT
 813:.\Generated_Source\PSoC5/CapSense.c **** {
 814:.\Generated_Source\PSoC5/CapSense.c ****     uint8 widget;
 815:.\Generated_Source\PSoC5/CapSense.c ****     
 816:.\Generated_Source\PSoC5/CapSense.c ****     #if (CapSense_DESIGN_TYPE == CapSense_ONE_CHANNEL_DESIGN)
 817:.\Generated_Source\PSoC5/CapSense.c ****         /* Define widget sensor belongs to */
 818:.\Generated_Source\PSoC5/CapSense.c ****         widget = CapSense_widgetNumber[slot];
 819:.\Generated_Source\PSoC5/CapSense.c ****         
 820:.\Generated_Source\PSoC5/CapSense.c ****         /* Set Idac Value */
 821:.\Generated_Source\PSoC5/CapSense.c ****         #if (CapSense_CURRENT_SOURCE)
 822:.\Generated_Source\PSoC5/CapSense.c ****             CapSense_IdacCH0_SetValue(CapSense_idacSettings[slot]);
 823:.\Generated_Source\PSoC5/CapSense.c ****         #endif  /* CapSense_CURRENT_SOURCE */
 824:.\Generated_Source\PSoC5/CapSense.c ****         
 825:.\Generated_Source\PSoC5/CapSense.c ****         /* Window PWM */
 826:.\Generated_Source\PSoC5/CapSense.c ****         #if (CapSense_IMPLEMENTATION_CH0 == CapSense_MEASURE_IMPLEMENTATION_FF)
 827:.\Generated_Source\PSoC5/CapSense.c ****             CY_SET_REG16(CapSense_PWM_CH0_PERIOD_PTR,
 828:.\Generated_Source\PSoC5/CapSense.c ****                 ((uint16) CapSense_widgetResolution[widget] << 8u) | CapSense_MEASURE_FULL_RANGE_LO
 829:.\Generated_Source\PSoC5/CapSense.c ****         #else
 830:.\Generated_Source\PSoC5/CapSense.c ****             CapSense_PWM_CH0_PERIOD_HI_REG = CapSense_widgetResolution[widget];
 831:.\Generated_Source\PSoC5/CapSense.c ****         #endif  /* (CapSense_IMPLEMENTATION_CH0 == CapSense_MEASURE_IMPLEMENTATION_FF) */ 
 832:.\Generated_Source\PSoC5/CapSense.c **** 
 833:.\Generated_Source\PSoC5/CapSense.c ****         #if ( (CapSense_MULTIPLE_PRESCALER_ENABLED) || \
 834:.\Generated_Source\PSoC5/CapSense.c ****               (CapSense_TUNING_METHOD == CapSense_AUTO_TUNING) )
 835:.\Generated_Source\PSoC5/CapSense.c ****             CapSense_SetPrescaler(CapSense_analogSwitchDivider[slot]);
 836:.\Generated_Source\PSoC5/CapSense.c ****         #elif (CapSense_PRESCALER_OPTIONS)
 837:.\Generated_Source\PSoC5/CapSense.c ****             CapSense_SetPrescaler(CapSense_analogSwitchDivider);
 838:.\Generated_Source\PSoC5/CapSense.c ****         #endif /* ((CapSense_MULTIPLE_PRESCALER_ENABLED) || \
 839:.\Generated_Source\PSoC5/CapSense.c ****                *   (CapSense_TUNING_METHOD == CapSense_AUTO_TUNING))
 840:.\Generated_Source\PSoC5/CapSense.c ****                */
 841:.\Generated_Source\PSoC5/CapSense.c **** 
 842:.\Generated_Source\PSoC5/CapSense.c ****     #else
 843:.\Generated_Source\PSoC5/CapSense.c ****         if(slot < CapSense_TOTAL_SENSOR_COUNT__CH0)
 844:.\Generated_Source\PSoC5/CapSense.c ****         {
 845:.\Generated_Source\PSoC5/CapSense.c ****             /* Define widget sensor belongs to */
 846:.\Generated_Source\PSoC5/CapSense.c ****             widget = CapSense_widgetNumber[slot];
 847:.\Generated_Source\PSoC5/CapSense.c ****             
 848:.\Generated_Source\PSoC5/CapSense.c ****             /* Set Idac Value */
 849:.\Generated_Source\PSoC5/CapSense.c ****             #if (CapSense_CURRENT_SOURCE)
 850:.\Generated_Source\PSoC5/CapSense.c ****                 CapSense_IdacCH0_SetValue(CapSense_idacSettings[slot]);
 851:.\Generated_Source\PSoC5/CapSense.c ****             #endif  /* CapSense_CURRENT_SOURCE */
 852:.\Generated_Source\PSoC5/CapSense.c ****             
 853:.\Generated_Source\PSoC5/CapSense.c ****             /* Set Pwm Resolution */
 854:.\Generated_Source\PSoC5/CapSense.c ****             #if (CapSense_IMPLEMENTATION_CH0 == CapSense_MEASURE_IMPLEMENTATION_FF)
 855:.\Generated_Source\PSoC5/CapSense.c ****                 CY_SET_REG16(CapSense_PWM_CH0_PERIOD_PTR,
 856:.\Generated_Source\PSoC5/CapSense.c ****                   ((uint16) CapSense_widgetResolution[widget] << 8u) | CapSense_MEASURE_FULL_RANGE_
 857:.\Generated_Source\PSoC5/CapSense.c ****             #else
 858:.\Generated_Source\PSoC5/CapSense.c ****                 CapSense_PWM_CH0_PERIOD_HI_REG = CapSense_widgetResolution[widget];
 859:.\Generated_Source\PSoC5/CapSense.c ****             #endif  /* (CapSense_IMPLEMENTATION_CH0 == CapSense_MEASURE_IMPLEMENTATION_FF)*/ 
 860:.\Generated_Source\PSoC5/CapSense.c ****         }
 861:.\Generated_Source\PSoC5/CapSense.c ****         
 862:.\Generated_Source\PSoC5/CapSense.c ****         if(slot < CapSense_TOTAL_SENSOR_COUNT__CH1)
 863:.\Generated_Source\PSoC5/CapSense.c ****         {
 864:.\Generated_Source\PSoC5/CapSense.c ****             widget = CapSense_widgetNumber[slot+CapSense_TOTAL_SENSOR_COUNT__CH0];
 865:.\Generated_Source\PSoC5/CapSense.c ****         
 866:.\Generated_Source\PSoC5/CapSense.c ****             /* Set Idac Value */
 867:.\Generated_Source\PSoC5/CapSense.c ****             #if (CapSense_CURRENT_SOURCE)
ARM GAS  C:\Users\Xwx47\AppData\Local\Temp\ccKXpbtH.s 			page 19


 868:.\Generated_Source\PSoC5/CapSense.c ****                 CapSense_IdacCH1_SetValue(CapSense_idacSettings[slot+
 869:.\Generated_Source\PSoC5/CapSense.c ****                                                                              CapSense_TOTAL_SENSOR_
 870:.\Generated_Source\PSoC5/CapSense.c ****             #endif  /* CapSense_CURRENT_SOURCE */
 871:.\Generated_Source\PSoC5/CapSense.c ****             
 872:.\Generated_Source\PSoC5/CapSense.c ****             /* Set Pwm Resolution */
 873:.\Generated_Source\PSoC5/CapSense.c ****             #if (CapSense_IMPLEMENTATION_CH1 == CapSense_MEASURE_IMPLEMENTATION_FF)
 874:.\Generated_Source\PSoC5/CapSense.c ****                 CY_SET_REG16(CapSense_PWM_CH1_PERIOD_PTR,
 875:.\Generated_Source\PSoC5/CapSense.c ****                   ((uint16) CapSense_widgetResolution[widget] << 8u) | CapSense_MEASURE_FULL_RANGE_
 876:.\Generated_Source\PSoC5/CapSense.c ****             #else
 877:.\Generated_Source\PSoC5/CapSense.c ****                 CapSense_PWM_CH1_PERIOD_HI_REG = CapSense_widgetResolution[widget];
 878:.\Generated_Source\PSoC5/CapSense.c ****             #endif  /* (CapSense_IMPLEMENTATION_CH1 == CapSense_MEASURE_IMPLEMENTATION_FF)*/ 
 879:.\Generated_Source\PSoC5/CapSense.c ****         }
 880:.\Generated_Source\PSoC5/CapSense.c **** 
 881:.\Generated_Source\PSoC5/CapSense.c ****         #if ( (CapSense_MULTIPLE_PRESCALER_ENABLED) || \
 882:.\Generated_Source\PSoC5/CapSense.c ****               (CapSense_TUNING_METHOD == CapSense_AUTO_TUNING) )
 883:.\Generated_Source\PSoC5/CapSense.c ****             CapSense_SetPrescaler(CapSense_analogSwitchDivider[slot]);
 884:.\Generated_Source\PSoC5/CapSense.c ****         #elif (CapSense_PRESCALER_OPTIONS)
 885:.\Generated_Source\PSoC5/CapSense.c ****             CapSense_SetPrescaler(CapSense_analogSwitchDivider);
 886:.\Generated_Source\PSoC5/CapSense.c ****         #endif /* ((CapSense_MULTIPLE_PRESCALER_ENABLED) || \
 887:.\Generated_Source\PSoC5/CapSense.c ****                *   (CapSense_TUNING_METHOD == CapSense_AUTO_TUNING))
 888:.\Generated_Source\PSoC5/CapSense.c ****                */
 889:.\Generated_Source\PSoC5/CapSense.c **** 
 890:.\Generated_Source\PSoC5/CapSense.c ****     #endif  /* CapSense_DESIGN_TYPE */
 891:.\Generated_Source\PSoC5/CapSense.c **** }
 892:.\Generated_Source\PSoC5/CapSense.c **** 
 893:.\Generated_Source\PSoC5/CapSense.c **** 
 894:.\Generated_Source\PSoC5/CapSense.c **** /*******************************************************************************
 895:.\Generated_Source\PSoC5/CapSense.c **** * Function Name: CapSense_ScanSensor
 896:.\Generated_Source\PSoC5/CapSense.c **** ********************************************************************************
 897:.\Generated_Source\PSoC5/CapSense.c **** *
 898:.\Generated_Source\PSoC5/CapSense.c **** * Summary:
 899:.\Generated_Source\PSoC5/CapSense.c **** *  Sets scan settings and starts scanning a sensor or pair of combined sensors
 900:.\Generated_Source\PSoC5/CapSense.c **** *  on each channel. If two channels are configured, two sensors may be scanned 
 901:.\Generated_Source\PSoC5/CapSense.c **** *  at the same time. After scanning is complete the isr copies the measured 
 902:.\Generated_Source\PSoC5/CapSense.c **** *  sensor raw data to the global array. Use of the isr ensures this function 
 903:.\Generated_Source\PSoC5/CapSense.c **** *  is non-blocking. Each sensor has a unique number within the sensor array. 
 904:.\Generated_Source\PSoC5/CapSense.c **** *  This number is assigned by the CapSense customizer in sequence.
 905:.\Generated_Source\PSoC5/CapSense.c **** *
 906:.\Generated_Source\PSoC5/CapSense.c **** * Parameters:
 907:.\Generated_Source\PSoC5/CapSense.c **** *  sensor:  Sensor number.
 908:.\Generated_Source\PSoC5/CapSense.c **** *
 909:.\Generated_Source\PSoC5/CapSense.c **** * Return:
 910:.\Generated_Source\PSoC5/CapSense.c **** *  None
 911:.\Generated_Source\PSoC5/CapSense.c **** *
 912:.\Generated_Source\PSoC5/CapSense.c **** * Global Variables:
 913:.\Generated_Source\PSoC5/CapSense.c **** *  CapSense_csv - used to provide status and mode of scanning process. 
 914:.\Generated_Source\PSoC5/CapSense.c **** *  Sets busy status(scan in progress) and mode of scan as single scan.
 915:.\Generated_Source\PSoC5/CapSense.c **** *  For two channel design the additional bits are set to define if scan a 
 916:.\Generated_Source\PSoC5/CapSense.c **** *  pair of sensors or single one.
 917:.\Generated_Source\PSoC5/CapSense.c **** *  CapSense_sensorIndex - used to store sensor scanning sensor number.
 918:.\Generated_Source\PSoC5/CapSense.c **** *  Sets to provided sensor argument.
 919:.\Generated_Source\PSoC5/CapSense.c **** *
 920:.\Generated_Source\PSoC5/CapSense.c **** * Reentrant:
 921:.\Generated_Source\PSoC5/CapSense.c **** *  No
 922:.\Generated_Source\PSoC5/CapSense.c **** *
 923:.\Generated_Source\PSoC5/CapSense.c **** *******************************************************************************/
 924:.\Generated_Source\PSoC5/CapSense.c **** void CapSense_ScanSensor(uint8 sensor)  
ARM GAS  C:\Users\Xwx47\AppData\Local\Temp\ccKXpbtH.s 			page 20


 925:.\Generated_Source\PSoC5/CapSense.c **** {
 926:.\Generated_Source\PSoC5/CapSense.c ****     /* Clears status/control variable and set sensorIndex */
 927:.\Generated_Source\PSoC5/CapSense.c ****     CapSense_csv = 0u;
 928:.\Generated_Source\PSoC5/CapSense.c ****     CapSense_sensorIndex = sensor;
 929:.\Generated_Source\PSoC5/CapSense.c ****     
 930:.\Generated_Source\PSoC5/CapSense.c ****     #if (CapSense_DESIGN_TYPE == CapSense_ONE_CHANNEL_DESIGN)
 931:.\Generated_Source\PSoC5/CapSense.c ****         /* Start of sensor scan */
 932:.\Generated_Source\PSoC5/CapSense.c ****         CapSense_csv = (CapSense_SW_STS_BUSY | CapSense_SW_CTRL_SINGLE_SCAN);
 933:.\Generated_Source\PSoC5/CapSense.c ****         CapSense_PreScan(sensor);
 934:.\Generated_Source\PSoC5/CapSense.c ****         
 935:.\Generated_Source\PSoC5/CapSense.c ****     #else
 936:.\Generated_Source\PSoC5/CapSense.c ****         /* CH0: check end of scan conditions */
 937:.\Generated_Source\PSoC5/CapSense.c ****         if(sensor < CapSense_TOTAL_SENSOR_COUNT__CH0)
 938:.\Generated_Source\PSoC5/CapSense.c ****         {
 939:.\Generated_Source\PSoC5/CapSense.c ****             CapSense_CONTROL_REG |= CapSense_CTRL_WINDOW_EN__CH0;
 940:.\Generated_Source\PSoC5/CapSense.c ****         }
 941:.\Generated_Source\PSoC5/CapSense.c ****         else
 942:.\Generated_Source\PSoC5/CapSense.c ****         {
 943:.\Generated_Source\PSoC5/CapSense.c ****             CapSense_CONTROL_REG &= ~CapSense_CTRL_WINDOW_EN__CH0;
 944:.\Generated_Source\PSoC5/CapSense.c ****         }
 945:.\Generated_Source\PSoC5/CapSense.c ****         
 946:.\Generated_Source\PSoC5/CapSense.c ****         /* CH1: check end of scan conditions */
 947:.\Generated_Source\PSoC5/CapSense.c ****         if(sensor < CapSense_TOTAL_SENSOR_COUNT__CH1)
 948:.\Generated_Source\PSoC5/CapSense.c ****         {
 949:.\Generated_Source\PSoC5/CapSense.c ****             CapSense_CONTROL_REG |= CapSense_CTRL_WINDOW_EN__CH1;
 950:.\Generated_Source\PSoC5/CapSense.c ****         }
 951:.\Generated_Source\PSoC5/CapSense.c ****         else
 952:.\Generated_Source\PSoC5/CapSense.c ****         {
 953:.\Generated_Source\PSoC5/CapSense.c ****             CapSense_CONTROL_REG &= ~CapSense_CTRL_WINDOW_EN__CH1;
 954:.\Generated_Source\PSoC5/CapSense.c ****         }
 955:.\Generated_Source\PSoC5/CapSense.c ****         
 956:.\Generated_Source\PSoC5/CapSense.c ****         /* Start sensor scan */
 957:.\Generated_Source\PSoC5/CapSense.c ****         if( ((CapSense_CONTROL_REG & CapSense_CTRL_WINDOW_EN__CH0) != 0u) || 
 958:.\Generated_Source\PSoC5/CapSense.c ****             ((CapSense_CONTROL_REG & CapSense_CTRL_WINDOW_EN__CH1) != 0u) )
 959:.\Generated_Source\PSoC5/CapSense.c ****         {
 960:.\Generated_Source\PSoC5/CapSense.c ****         
 961:.\Generated_Source\PSoC5/CapSense.c ****             CapSense_csv |= (CapSense_SW_STS_BUSY | CapSense_SW_CTRL_SINGLE_SCAN);
 962:.\Generated_Source\PSoC5/CapSense.c ****             CapSense_PreScan(sensor);
 963:.\Generated_Source\PSoC5/CapSense.c ****         }
 964:.\Generated_Source\PSoC5/CapSense.c ****         
 965:.\Generated_Source\PSoC5/CapSense.c ****     #endif  /* CapSense_DESIGN_TYPE */
 966:.\Generated_Source\PSoC5/CapSense.c **** }
 967:.\Generated_Source\PSoC5/CapSense.c **** 
 968:.\Generated_Source\PSoC5/CapSense.c **** 
 969:.\Generated_Source\PSoC5/CapSense.c **** /*******************************************************************************
 970:.\Generated_Source\PSoC5/CapSense.c **** * Function Name: CapSense_ScanEnableWidgets
 971:.\Generated_Source\PSoC5/CapSense.c **** ********************************************************************************
 972:.\Generated_Source\PSoC5/CapSense.c **** *
 973:.\Generated_Source\PSoC5/CapSense.c **** * Summary:
 974:.\Generated_Source\PSoC5/CapSense.c **** *  Scans all of the enabled widgets. Starts scanning a sensor or pair of sensors 
 975:.\Generated_Source\PSoC5/CapSense.c **** *  within enabled widget. The isr proceeding scanning next sensor or pair till 
 976:.\Generated_Source\PSoC5/CapSense.c **** *  all enabled widgets will be scanned. Use of the isr ensures this function is 
 977:.\Generated_Source\PSoC5/CapSense.c **** *  non-blocking. All widgets are enabled by default except proximity widgets. 
 978:.\Generated_Source\PSoC5/CapSense.c **** *  Proximity widgets must be manually enabled as their long scan time is 
 979:.\Generated_Source\PSoC5/CapSense.c **** *  incompatible with fast response desired of other widget types.
 980:.\Generated_Source\PSoC5/CapSense.c **** *
 981:.\Generated_Source\PSoC5/CapSense.c **** * Parameters:
ARM GAS  C:\Users\Xwx47\AppData\Local\Temp\ccKXpbtH.s 			page 21


 982:.\Generated_Source\PSoC5/CapSense.c **** *  None
 983:.\Generated_Source\PSoC5/CapSense.c **** *
 984:.\Generated_Source\PSoC5/CapSense.c **** * Return:
 985:.\Generated_Source\PSoC5/CapSense.c **** *  None
 986:.\Generated_Source\PSoC5/CapSense.c **** *
 987:.\Generated_Source\PSoC5/CapSense.c **** * Global Variables:
 988:.\Generated_Source\PSoC5/CapSense.c **** *  CapSense_csv - used to provide status and mode of scanning process. 
 989:.\Generated_Source\PSoC5/CapSense.c **** *  Sets busy status(scan in progress) and clears single scan mode.
 990:.\Generated_Source\PSoC5/CapSense.c **** *  For two channel design the additional bits are set to define if scan a 
 991:.\Generated_Source\PSoC5/CapSense.c **** *  pair of sensors or single one. 
 992:.\Generated_Source\PSoC5/CapSense.c **** *  CapSense_sensorIndex - used to store sensor scanning sensor number.
 993:.\Generated_Source\PSoC5/CapSense.c **** *  Sets to 0xFF and provided to function CapSense_FindNextSensor or
 994:.\Generated_Source\PSoC5/CapSense.c **** *  CapSense_FindNextPair, these functions starts with sensor index
 995:.\Generated_Source\PSoC5/CapSense.c **** *  increment and overflow of uint8 gives desired index 0.
 996:.\Generated_Source\PSoC5/CapSense.c **** *
 997:.\Generated_Source\PSoC5/CapSense.c **** * Reentrant:
 998:.\Generated_Source\PSoC5/CapSense.c **** *  No
 999:.\Generated_Source\PSoC5/CapSense.c **** *
1000:.\Generated_Source\PSoC5/CapSense.c **** *******************************************************************************/
1001:.\Generated_Source\PSoC5/CapSense.c **** void CapSense_ScanEnabledWidgets(void) 
1002:.\Generated_Source\PSoC5/CapSense.c **** {
1003:.\Generated_Source\PSoC5/CapSense.c ****     /* Clears status/control variable and set sensorIndex */
1004:.\Generated_Source\PSoC5/CapSense.c ****     CapSense_csv = 0u;
1005:.\Generated_Source\PSoC5/CapSense.c ****     CapSense_sensorIndex = 0xFFu;
1006:.\Generated_Source\PSoC5/CapSense.c ****     
1007:.\Generated_Source\PSoC5/CapSense.c ****     #if (CapSense_DESIGN_TYPE == CapSense_ONE_CHANNEL_DESIGN)
1008:.\Generated_Source\PSoC5/CapSense.c ****         /* Find next sensor */
1009:.\Generated_Source\PSoC5/CapSense.c ****         CapSense_sensorIndex = CapSense_FindNextSensor(CapSense_sensorIndex);
1010:.\Generated_Source\PSoC5/CapSense.c **** 
1011:.\Generated_Source\PSoC5/CapSense.c ****         /* Check end of scan condition */
1012:.\Generated_Source\PSoC5/CapSense.c ****         if(CapSense_sensorIndex < CapSense_TOTAL_SENSOR_COUNT)
1013:.\Generated_Source\PSoC5/CapSense.c ****         {
1014:.\Generated_Source\PSoC5/CapSense.c ****             CapSense_csv |= CapSense_SW_STS_BUSY;
1015:.\Generated_Source\PSoC5/CapSense.c ****             CapSense_PreScan(CapSense_sensorIndex);
1016:.\Generated_Source\PSoC5/CapSense.c ****         }
1017:.\Generated_Source\PSoC5/CapSense.c ****         
1018:.\Generated_Source\PSoC5/CapSense.c ****     #else
1019:.\Generated_Source\PSoC5/CapSense.c ****         /* Find next sensor and set proper control register */
1020:.\Generated_Source\PSoC5/CapSense.c ****         CapSense_sensorIndex = CapSense_FindNextPair(CapSense_sensorIndex);
1021:.\Generated_Source\PSoC5/CapSense.c ****         
1022:.\Generated_Source\PSoC5/CapSense.c ****         /* Start sensor scan */
1023:.\Generated_Source\PSoC5/CapSense.c ****         if((CapSense_sensorIndex < CapSense_TOTAL_SENSOR_COUNT__CH0) || 
1024:.\Generated_Source\PSoC5/CapSense.c ****            (CapSense_sensorIndex < CapSense_TOTAL_SENSOR_COUNT__CH1))
1025:.\Generated_Source\PSoC5/CapSense.c ****         {
1026:.\Generated_Source\PSoC5/CapSense.c ****             CapSense_csv |= CapSense_SW_STS_BUSY;
1027:.\Generated_Source\PSoC5/CapSense.c ****             CapSense_PreScan(CapSense_sensorIndex);
1028:.\Generated_Source\PSoC5/CapSense.c ****         }
1029:.\Generated_Source\PSoC5/CapSense.c ****         
1030:.\Generated_Source\PSoC5/CapSense.c ****     #endif  /* CapSense_DESIGN_TYPE */
1031:.\Generated_Source\PSoC5/CapSense.c **** }
1032:.\Generated_Source\PSoC5/CapSense.c **** 
1033:.\Generated_Source\PSoC5/CapSense.c **** 
1034:.\Generated_Source\PSoC5/CapSense.c **** /*******************************************************************************
1035:.\Generated_Source\PSoC5/CapSense.c **** * Function Name: CapSense_IsBusy
1036:.\Generated_Source\PSoC5/CapSense.c **** ********************************************************************************
1037:.\Generated_Source\PSoC5/CapSense.c **** *
1038:.\Generated_Source\PSoC5/CapSense.c **** * Summary:
ARM GAS  C:\Users\Xwx47\AppData\Local\Temp\ccKXpbtH.s 			page 22


1039:.\Generated_Source\PSoC5/CapSense.c **** *  Returns the state of CapSense component. The 1 means that scanning in 
1040:.\Generated_Source\PSoC5/CapSense.c **** *  progress and 0 means that scanning is complete.
1041:.\Generated_Source\PSoC5/CapSense.c **** *
1042:.\Generated_Source\PSoC5/CapSense.c **** * Parameters:
1043:.\Generated_Source\PSoC5/CapSense.c **** *  None
1044:.\Generated_Source\PSoC5/CapSense.c **** *
1045:.\Generated_Source\PSoC5/CapSense.c **** * Return:
1046:.\Generated_Source\PSoC5/CapSense.c **** *  Returns the state of scanning. 1 - scanning in progress, 0 - scanning 
1047:.\Generated_Source\PSoC5/CapSense.c **** *  completed.
1048:.\Generated_Source\PSoC5/CapSense.c **** *
1049:.\Generated_Source\PSoC5/CapSense.c **** * Global Variables:
1050:.\Generated_Source\PSoC5/CapSense.c **** *  CapSense_csv - used to provide status and mode of scanning process. 
1051:.\Generated_Source\PSoC5/CapSense.c **** *  Checks the busy status.
1052:.\Generated_Source\PSoC5/CapSense.c **** *
1053:.\Generated_Source\PSoC5/CapSense.c **** *******************************************************************************/
1054:.\Generated_Source\PSoC5/CapSense.c **** uint8 CapSense_IsBusy(void) 
1055:.\Generated_Source\PSoC5/CapSense.c **** {
 156              		.loc 1 1055 0
 157              		.cfi_startproc
 158              		@ args = 0, pretend = 0, frame = 0
 159              		@ frame_needed = 0, uses_anonymous_args = 0
 160              		@ link register save eliminated.
1056:.\Generated_Source\PSoC5/CapSense.c ****     return ((0u != (CapSense_csv & CapSense_SW_STS_BUSY)) ? 1u : 0u);
 161              		.loc 1 1056 0
 162 0000 024B     		ldr	r3, .L12
 163 0002 1878     		ldrb	r0, [r3]	@ zero_extendqisi2
1057:.\Generated_Source\PSoC5/CapSense.c **** }
 164              		.loc 1 1057 0
 165 0004 00F00100 		and	r0, r0, #1
 166 0008 7047     		bx	lr
 167              	.L13:
 168 000a 00BF     		.align	2
 169              	.L12:
 170 000c 00000000 		.word	CapSense_csv
 171              		.cfi_endproc
 172              	.LFE8:
 173              		.size	CapSense_IsBusy, .-CapSense_IsBusy
 174              		.section	.text.CapSense_ReadSensorRaw,"ax",%progbits
 175              		.align	2
 176              		.global	CapSense_ReadSensorRaw
 177              		.thumb
 178              		.thumb_func
 179              		.type	CapSense_ReadSensorRaw, %function
 180              	CapSense_ReadSensorRaw:
 181              	.LFB9:
1058:.\Generated_Source\PSoC5/CapSense.c **** 
1059:.\Generated_Source\PSoC5/CapSense.c **** 
1060:.\Generated_Source\PSoC5/CapSense.c **** /*******************************************************************************
1061:.\Generated_Source\PSoC5/CapSense.c **** * Function Name: CapSense_ReadSensorRaw
1062:.\Generated_Source\PSoC5/CapSense.c **** ********************************************************************************
1063:.\Generated_Source\PSoC5/CapSense.c **** *
1064:.\Generated_Source\PSoC5/CapSense.c **** * Summary:
1065:.\Generated_Source\PSoC5/CapSense.c **** *  Returns scan sensor raw data from the CapSense_sensorRaw[] array. 
1066:.\Generated_Source\PSoC5/CapSense.c **** *  Each scan sensor has a unique number within the sensor array. This number 
1067:.\Generated_Source\PSoC5/CapSense.c **** *  is assigned by the CapSense customizer in sequence.
1068:.\Generated_Source\PSoC5/CapSense.c **** *
1069:.\Generated_Source\PSoC5/CapSense.c **** * Parameters:
ARM GAS  C:\Users\Xwx47\AppData\Local\Temp\ccKXpbtH.s 			page 23


1070:.\Generated_Source\PSoC5/CapSense.c **** *  sensor:  Sensor number.
1071:.\Generated_Source\PSoC5/CapSense.c **** *
1072:.\Generated_Source\PSoC5/CapSense.c **** * Return:
1073:.\Generated_Source\PSoC5/CapSense.c **** *  Returns current raw data value for defined sensor number.
1074:.\Generated_Source\PSoC5/CapSense.c **** *
1075:.\Generated_Source\PSoC5/CapSense.c **** * Global Variables:
1076:.\Generated_Source\PSoC5/CapSense.c **** *  CapSense_sensorRaw[] - used to store sensors raw data.
1077:.\Generated_Source\PSoC5/CapSense.c **** *
1078:.\Generated_Source\PSoC5/CapSense.c **** *******************************************************************************/
1079:.\Generated_Source\PSoC5/CapSense.c **** uint16 CapSense_ReadSensorRaw(uint8 sensor) 
1080:.\Generated_Source\PSoC5/CapSense.c **** {
 182              		.loc 1 1080 0
 183              		.cfi_startproc
 184              		@ args = 0, pretend = 0, frame = 0
 185              		@ frame_needed = 0, uses_anonymous_args = 0
 186              		@ link register save eliminated.
 187              	.LVL13:
1081:.\Generated_Source\PSoC5/CapSense.c ****     return (CapSense_sensorRaw[sensor]);
1082:.\Generated_Source\PSoC5/CapSense.c **** }
 188              		.loc 1 1082 0
 189 0000 014B     		ldr	r3, .L15
 190 0002 33F81000 		ldrh	r0, [r3, r0, lsl #1]
 191              	.LVL14:
 192 0006 7047     		bx	lr
 193              	.L16:
 194              		.align	2
 195              	.L15:
 196 0008 00000000 		.word	CapSense_sensorRaw
 197              		.cfi_endproc
 198              	.LFE9:
 199              		.size	CapSense_ReadSensorRaw, .-CapSense_ReadSensorRaw
 200              		.section	.text.CapSense_EnableSensor,"ax",%progbits
 201              		.align	2
 202              		.global	CapSense_EnableSensor
 203              		.thumb
 204              		.thumb_func
 205              		.type	CapSense_EnableSensor, %function
 206              	CapSense_EnableSensor:
 207              	.LFB11:
1083:.\Generated_Source\PSoC5/CapSense.c **** 
1084:.\Generated_Source\PSoC5/CapSense.c **** 
1085:.\Generated_Source\PSoC5/CapSense.c **** /*******************************************************************************
1086:.\Generated_Source\PSoC5/CapSense.c **** * Function Name: CapSense_ClearSensors
1087:.\Generated_Source\PSoC5/CapSense.c **** ********************************************************************************
1088:.\Generated_Source\PSoC5/CapSense.c **** *
1089:.\Generated_Source\PSoC5/CapSense.c **** * Summary:
1090:.\Generated_Source\PSoC5/CapSense.c **** *  Resets all sensors to the non-sampling state by sequentially disconnecting
1091:.\Generated_Source\PSoC5/CapSense.c **** *  all sensors from Analog MUX Bus and putting them to inactive state.
1092:.\Generated_Source\PSoC5/CapSense.c **** *
1093:.\Generated_Source\PSoC5/CapSense.c **** * Parameters:
1094:.\Generated_Source\PSoC5/CapSense.c **** *  None
1095:.\Generated_Source\PSoC5/CapSense.c **** *
1096:.\Generated_Source\PSoC5/CapSense.c **** * Return:
1097:.\Generated_Source\PSoC5/CapSense.c **** *  None
1098:.\Generated_Source\PSoC5/CapSense.c **** *
1099:.\Generated_Source\PSoC5/CapSense.c **** *******************************************************************************/
1100:.\Generated_Source\PSoC5/CapSense.c **** void CapSense_ClearSensors(void) 
ARM GAS  C:\Users\Xwx47\AppData\Local\Temp\ccKXpbtH.s 			page 24


1101:.\Generated_Source\PSoC5/CapSense.c **** {
1102:.\Generated_Source\PSoC5/CapSense.c ****     uint8 i;
1103:.\Generated_Source\PSoC5/CapSense.c ****    
1104:.\Generated_Source\PSoC5/CapSense.c ****     for (i = 0u; i < CapSense_TOTAL_SENSOR_COUNT; i++)
1105:.\Generated_Source\PSoC5/CapSense.c ****     {
1106:.\Generated_Source\PSoC5/CapSense.c ****         CapSense_DisableScanSlot(i);
1107:.\Generated_Source\PSoC5/CapSense.c ****     }
1108:.\Generated_Source\PSoC5/CapSense.c **** }
1109:.\Generated_Source\PSoC5/CapSense.c **** 
1110:.\Generated_Source\PSoC5/CapSense.c **** 
1111:.\Generated_Source\PSoC5/CapSense.c **** #if (CapSense_IS_COMPLEX_SCANSLOTS)
1112:.\Generated_Source\PSoC5/CapSense.c ****     /*******************************************************************************
1113:.\Generated_Source\PSoC5/CapSense.c ****     * Function Name: CapSense_EnableScanSlot
1114:.\Generated_Source\PSoC5/CapSense.c ****     ********************************************************************************
1115:.\Generated_Source\PSoC5/CapSense.c ****     *
1116:.\Generated_Source\PSoC5/CapSense.c ****     * Summary:
1117:.\Generated_Source\PSoC5/CapSense.c ****     *  Configures the selected slot to measure during the next measurement 
1118:.\Generated_Source\PSoC5/CapSense.c ****     *  cycle. The corresponding pin/pins are set to Analog High-Z mode and 
1119:.\Generated_Source\PSoC5/CapSense.c ****     *  connected to the Analog Mux Bus. This also enables the comparator function.
1120:.\Generated_Source\PSoC5/CapSense.c ****     *
1121:.\Generated_Source\PSoC5/CapSense.c ****     * Parameters:
1122:.\Generated_Source\PSoC5/CapSense.c ****     *  slot:  Slot number.
1123:.\Generated_Source\PSoC5/CapSense.c ****     *
1124:.\Generated_Source\PSoC5/CapSense.c ****     * Return:
1125:.\Generated_Source\PSoC5/CapSense.c ****     *  None
1126:.\Generated_Source\PSoC5/CapSense.c ****     *
1127:.\Generated_Source\PSoC5/CapSense.c ****     * Global Constants:
1128:.\Generated_Source\PSoC5/CapSense.c ****     *  CapSense_portTable[]  - used to store the port number that pin 
1129:.\Generated_Source\PSoC5/CapSense.c ****     *  belongs to for every sensor.
1130:.\Generated_Source\PSoC5/CapSense.c ****     *  CapSense_maskTable[]  - used to store the pin within the port for 
1131:.\Generated_Source\PSoC5/CapSense.c ****     *  every sensor.
1132:.\Generated_Source\PSoC5/CapSense.c ****     *  CapSense_indexTable[] - used to store indexes of complex sensors.
1133:.\Generated_Source\PSoC5/CapSense.c ****     *  The offset and position in this array are stored in port and mask table for 
1134:.\Generated_Source\PSoC5/CapSense.c ****     *  complex sensors.
1135:.\Generated_Source\PSoC5/CapSense.c ****     *  The bit 7 (msb) is used to define the sensor type: single or complex.
1136:.\Generated_Source\PSoC5/CapSense.c ****     *
1137:.\Generated_Source\PSoC5/CapSense.c ****     *******************************************************************************/
1138:.\Generated_Source\PSoC5/CapSense.c ****     void CapSense_EnableScanSlot(uint8 slot) CYREENTRANT
1139:.\Generated_Source\PSoC5/CapSense.c ****     {
1140:.\Generated_Source\PSoC5/CapSense.c ****         uint8 j;
1141:.\Generated_Source\PSoC5/CapSense.c ****         uint8 snsNumber;
1142:.\Generated_Source\PSoC5/CapSense.c ****         const uint8 CYCODE *index;
1143:.\Generated_Source\PSoC5/CapSense.c ****         /* Read the sensor type: single or complex */
1144:.\Generated_Source\PSoC5/CapSense.c ****         uint8 snsType = CapSense_portTable[slot];
1145:.\Generated_Source\PSoC5/CapSense.c ****         
1146:.\Generated_Source\PSoC5/CapSense.c ****         /* Check if sensor is complex */
1147:.\Generated_Source\PSoC5/CapSense.c ****         if ((snsType & CapSense_COMPLEX_SS_FLAG) == 0u)
1148:.\Generated_Source\PSoC5/CapSense.c ****         {
1149:.\Generated_Source\PSoC5/CapSense.c ****             /* Enable sensor (signle) */
1150:.\Generated_Source\PSoC5/CapSense.c ****             CapSense_EnableSensor(slot);
1151:.\Generated_Source\PSoC5/CapSense.c ****         }
1152:.\Generated_Source\PSoC5/CapSense.c ****         else
1153:.\Generated_Source\PSoC5/CapSense.c ****         {
1154:.\Generated_Source\PSoC5/CapSense.c ****             /* Enable complex sensor */
1155:.\Generated_Source\PSoC5/CapSense.c ****             snsType &= ~CapSense_COMPLEX_SS_FLAG;
1156:.\Generated_Source\PSoC5/CapSense.c ****             index = &CapSense_indexTable[snsType];
1157:.\Generated_Source\PSoC5/CapSense.c ****             snsNumber = CapSense_maskTable[slot];
ARM GAS  C:\Users\Xwx47\AppData\Local\Temp\ccKXpbtH.s 			page 25


1158:.\Generated_Source\PSoC5/CapSense.c ****                         
1159:.\Generated_Source\PSoC5/CapSense.c ****             for (j=0u; j < snsNumber; j++)
1160:.\Generated_Source\PSoC5/CapSense.c ****             {
1161:.\Generated_Source\PSoC5/CapSense.c ****                 CapSense_EnableSensor(index[j]);
1162:.\Generated_Source\PSoC5/CapSense.c ****             }
1163:.\Generated_Source\PSoC5/CapSense.c ****         } 
1164:.\Generated_Source\PSoC5/CapSense.c ****     }
1165:.\Generated_Source\PSoC5/CapSense.c ****     
1166:.\Generated_Source\PSoC5/CapSense.c ****     
1167:.\Generated_Source\PSoC5/CapSense.c ****     /*******************************************************************************
1168:.\Generated_Source\PSoC5/CapSense.c ****     * Function Name: CapSense_DisableScanSlot
1169:.\Generated_Source\PSoC5/CapSense.c ****     ********************************************************************************
1170:.\Generated_Source\PSoC5/CapSense.c ****     *
1171:.\Generated_Source\PSoC5/CapSense.c ****     * Summary:
1172:.\Generated_Source\PSoC5/CapSense.c ****     *  Disables the selected slot. The corresponding pin/pis is/are disconnected 
1173:.\Generated_Source\PSoC5/CapSense.c ****     *  from the Analog Mux Bus and connected to GND, High_Z or Shield electrode.
1174:.\Generated_Source\PSoC5/CapSense.c ****     *
1175:.\Generated_Source\PSoC5/CapSense.c ****     * Parameters:
1176:.\Generated_Source\PSoC5/CapSense.c ****     *  slot:  Slot number.
1177:.\Generated_Source\PSoC5/CapSense.c ****     *
1178:.\Generated_Source\PSoC5/CapSense.c ****     * Return:
1179:.\Generated_Source\PSoC5/CapSense.c ****     *  None
1180:.\Generated_Source\PSoC5/CapSense.c ****     *
1181:.\Generated_Source\PSoC5/CapSense.c ****     * Global Variables:
1182:.\Generated_Source\PSoC5/CapSense.c ****     *  CapSense_portTable[]  - used to store the port number that pin 
1183:.\Generated_Source\PSoC5/CapSense.c ****     *  belongs to for every sensor.
1184:.\Generated_Source\PSoC5/CapSense.c ****     *  CapSense_maskTable[]  - used to store the pin within the port for 
1185:.\Generated_Source\PSoC5/CapSense.c ****     *  every sensor.
1186:.\Generated_Source\PSoC5/CapSense.c ****     *  CapSense_indexTable[] - used to store indexes of complex sensors.
1187:.\Generated_Source\PSoC5/CapSense.c ****     *  The offset and position in this array are stored in port and mask table for 
1188:.\Generated_Source\PSoC5/CapSense.c ****     *  complex sensors.
1189:.\Generated_Source\PSoC5/CapSense.c ****     *  The 7bit(msb) is used to define the sensor type: single or complex.
1190:.\Generated_Source\PSoC5/CapSense.c ****     *
1191:.\Generated_Source\PSoC5/CapSense.c ****     *******************************************************************************/
1192:.\Generated_Source\PSoC5/CapSense.c ****     void CapSense_DisableScanSlot(uint8 slot) CYREENTRANT
1193:.\Generated_Source\PSoC5/CapSense.c ****     {
1194:.\Generated_Source\PSoC5/CapSense.c ****         uint8 j;
1195:.\Generated_Source\PSoC5/CapSense.c ****         uint8 snsNumber;
1196:.\Generated_Source\PSoC5/CapSense.c ****         const uint8 CYCODE *index;
1197:.\Generated_Source\PSoC5/CapSense.c ****         /* Read the sensor type: single or complex */
1198:.\Generated_Source\PSoC5/CapSense.c ****         uint8 snsType = CapSense_portTable[slot];
1199:.\Generated_Source\PSoC5/CapSense.c ****         
1200:.\Generated_Source\PSoC5/CapSense.c ****         /* Check if sensor is complex */
1201:.\Generated_Source\PSoC5/CapSense.c ****         if ((snsType & CapSense_COMPLEX_SS_FLAG) == 0u)
1202:.\Generated_Source\PSoC5/CapSense.c ****         {
1203:.\Generated_Source\PSoC5/CapSense.c ****             /* Disable sensor (signle) */
1204:.\Generated_Source\PSoC5/CapSense.c ****             CapSense_DisableSensor(slot);
1205:.\Generated_Source\PSoC5/CapSense.c ****         }
1206:.\Generated_Source\PSoC5/CapSense.c ****         else
1207:.\Generated_Source\PSoC5/CapSense.c ****         {
1208:.\Generated_Source\PSoC5/CapSense.c ****             /* Disable complex sensor */
1209:.\Generated_Source\PSoC5/CapSense.c ****             snsType &= ~CapSense_COMPLEX_SS_FLAG;
1210:.\Generated_Source\PSoC5/CapSense.c ****             index = &CapSense_indexTable[snsType];
1211:.\Generated_Source\PSoC5/CapSense.c ****             snsNumber = CapSense_maskTable[slot];
1212:.\Generated_Source\PSoC5/CapSense.c ****                         
1213:.\Generated_Source\PSoC5/CapSense.c ****             for (j=0u; j < snsNumber; j++)
1214:.\Generated_Source\PSoC5/CapSense.c ****             {
ARM GAS  C:\Users\Xwx47\AppData\Local\Temp\ccKXpbtH.s 			page 26


1215:.\Generated_Source\PSoC5/CapSense.c ****                 CapSense_DisableSensor(index[j]);
1216:.\Generated_Source\PSoC5/CapSense.c ****             }
1217:.\Generated_Source\PSoC5/CapSense.c ****         } 
1218:.\Generated_Source\PSoC5/CapSense.c ****     }
1219:.\Generated_Source\PSoC5/CapSense.c **** #endif  /* CapSense_IS_COMPLEX_SCANSLOTS */
1220:.\Generated_Source\PSoC5/CapSense.c **** 
1221:.\Generated_Source\PSoC5/CapSense.c **** 
1222:.\Generated_Source\PSoC5/CapSense.c **** /*******************************************************************************
1223:.\Generated_Source\PSoC5/CapSense.c **** * Function Name: CapSense_EnableSensor
1224:.\Generated_Source\PSoC5/CapSense.c **** ********************************************************************************
1225:.\Generated_Source\PSoC5/CapSense.c **** *
1226:.\Generated_Source\PSoC5/CapSense.c **** * Summary:
1227:.\Generated_Source\PSoC5/CapSense.c **** *  Configures the selected sensor to measure during the next measurement cycle.
1228:.\Generated_Source\PSoC5/CapSense.c **** *  The corresponding pins are set to Analog High-Z mode and connected to the
1229:.\Generated_Source\PSoC5/CapSense.c **** *  Analog Mux Bus. This also enables the comparator function.
1230:.\Generated_Source\PSoC5/CapSense.c **** *
1231:.\Generated_Source\PSoC5/CapSense.c **** * Parameters:
1232:.\Generated_Source\PSoC5/CapSense.c **** *  sensor:  Sensor number.
1233:.\Generated_Source\PSoC5/CapSense.c **** *
1234:.\Generated_Source\PSoC5/CapSense.c **** * Return:
1235:.\Generated_Source\PSoC5/CapSense.c **** *  None
1236:.\Generated_Source\PSoC5/CapSense.c **** *
1237:.\Generated_Source\PSoC5/CapSense.c **** * Global Variables:
1238:.\Generated_Source\PSoC5/CapSense.c **** *  CapSense_portTable[] - used to store the port number that pin 
1239:.\Generated_Source\PSoC5/CapSense.c **** *  belongs to for every sensor.
1240:.\Generated_Source\PSoC5/CapSense.c **** *  CapSense_maskTable[] - used to store the pin within the port for 
1241:.\Generated_Source\PSoC5/CapSense.c **** *  every sensor.
1242:.\Generated_Source\PSoC5/CapSense.c **** *  CapSense_csTable[]   - used to store the pointers to CAPS_SEL 
1243:.\Generated_Source\PSoC5/CapSense.c **** *  registers for every port.
1244:.\Generated_Source\PSoC5/CapSense.c **** *  CapSense_pcTable[]   - used to store the pointers to PC pin 
1245:.\Generated_Source\PSoC5/CapSense.c **** *  register for every sensor.
1246:.\Generated_Source\PSoC5/CapSense.c **** *  CapSense_amuxIndex[] - used to store corrected AMUX index when 
1247:.\Generated_Source\PSoC5/CapSense.c **** *  complex sensors are defeined.
1248:.\Generated_Source\PSoC5/CapSense.c **** *
1249:.\Generated_Source\PSoC5/CapSense.c **** *******************************************************************************/
1250:.\Generated_Source\PSoC5/CapSense.c **** void CapSense_EnableSensor(uint8 sensor) CYREENTRANT
1251:.\Generated_Source\PSoC5/CapSense.c **** {
 208              		.loc 1 1251 0
 209              		.cfi_startproc
 210              		@ args = 0, pretend = 0, frame = 0
 211              		@ frame_needed = 0, uses_anonymous_args = 0
 212              	.LVL15:
 213 0000 10B5     		push	{r4, lr}
 214              		.cfi_def_cfa_offset 8
 215              		.cfi_offset 4, -8
 216              		.cfi_offset 14, -4
1252:.\Generated_Source\PSoC5/CapSense.c ****     uint8 port = CapSense_portTable[sensor];
 217              		.loc 1 1252 0
 218 0002 0B4B     		ldr	r3, .L20
 219 0004 1A5C     		ldrb	r2, [r3, r0]	@ zero_extendqisi2
 220              	.LVL16:
1253:.\Generated_Source\PSoC5/CapSense.c ****     uint8 mask = CapSense_maskTable[sensor];
 221              		.loc 1 1253 0
 222 0006 1918     		adds	r1, r3, r0
 223              	.LVL17:
 224 0008 0979     		ldrb	r1, [r1, #4]	@ zero_extendqisi2
 225              	.LVL18:
ARM GAS  C:\Users\Xwx47\AppData\Local\Temp\ccKXpbtH.s 			page 27


1254:.\Generated_Source\PSoC5/CapSense.c ****     
1255:.\Generated_Source\PSoC5/CapSense.c ****     #if ((CapSense_DESIGN_TYPE == CapSense_TWO_CHANNELS_DESIGN) && \
1256:.\Generated_Source\PSoC5/CapSense.c ****          (CapSense_IS_COMPLEX_SCANSLOTS))
1257:.\Generated_Source\PSoC5/CapSense.c ****         uint8 amuxCh = CapSense_amuxIndex[sensor];
1258:.\Generated_Source\PSoC5/CapSense.c ****     #endif  /* ((CapSense_DESIGN_TYPE == CapSense_TWO_CHANNELS_DESIGN) && \
1259:.\Generated_Source\PSoC5/CapSense.c ****             *   (CapSense_IS_COMPLEX_SCANSLOTS))
1260:.\Generated_Source\PSoC5/CapSense.c ****             */
1261:.\Generated_Source\PSoC5/CapSense.c ****     
1262:.\Generated_Source\PSoC5/CapSense.c ****     /* Make sensor High-Z */
1263:.\Generated_Source\PSoC5/CapSense.c ****     *CapSense_pcTable[sensor] = CapSense_PRT_PC_HIGHZ;
 226              		.loc 1 1263 0
 227 000a 03EB8003 		add	r3, r3, r0, lsl #2
 228              	.LVL19:
 229 000e 9B68     		ldr	r3, [r3, #8]
 230 0010 0924     		movs	r4, #9
 231 0012 1C70     		strb	r4, [r3]
1264:.\Generated_Source\PSoC5/CapSense.c ****     
1265:.\Generated_Source\PSoC5/CapSense.c ****     /* Connect to DSI output */
1266:.\Generated_Source\PSoC5/CapSense.c **** 	if(port == 15u)
 232              		.loc 1 1266 0
 233 0014 0F2A     		cmp	r2, #15
 234 0016 00D1     		bne	.L18
1267:.\Generated_Source\PSoC5/CapSense.c **** 	{
1268:.\Generated_Source\PSoC5/CapSense.c **** 		port = 7u;
 235              		.loc 1 1268 0
 236 0018 0722     		movs	r2, #7
 237              	.L18:
 238              	.LVL20:
1269:.\Generated_Source\PSoC5/CapSense.c **** 	}
1270:.\Generated_Source\PSoC5/CapSense.c ****     *CapSense_csTable[port] |= mask;
 239              		.loc 1 1270 0
 240 001a 054B     		ldr	r3, .L20
 241              	.LVL21:
 242 001c 03EB8202 		add	r2, r3, r2, lsl #2
 243              	.LVL22:
 244 0020 5369     		ldr	r3, [r2, #20]
 245              	.LVL23:
 246 0022 1A78     		ldrb	r2, [r3]	@ zero_extendqisi2
 247 0024 0A43     		orrs	r2, r2, r1
 248 0026 1A70     		strb	r2, [r3]
1271:.\Generated_Source\PSoC5/CapSense.c ****     
1272:.\Generated_Source\PSoC5/CapSense.c ****     /* Connect to AMUX */
1273:.\Generated_Source\PSoC5/CapSense.c ****     #if (CapSense_DESIGN_TYPE == CapSense_ONE_CHANNEL_DESIGN)
1274:.\Generated_Source\PSoC5/CapSense.c ****         #if (CapSense_IS_COMPLEX_SCANSLOTS)
1275:.\Generated_Source\PSoC5/CapSense.c ****             CapSense_AMuxCH0_Connect(CapSense_amuxIndex[sensor]);
1276:.\Generated_Source\PSoC5/CapSense.c ****         #else
1277:.\Generated_Source\PSoC5/CapSense.c ****             CapSense_AMuxCH0_Connect(sensor);
 249              		.loc 1 1277 0
 250 0028 FFF7FEFF 		bl	CapSense_AMuxCH0_Set
 251              	.LVL24:
 252 002c 10BD     		pop	{r4, pc}
 253              	.L21:
 254 002e 00BF     		.align	2
 255              	.L20:
 256 0030 00000000 		.word	.LANCHOR1
 257              		.cfi_endproc
 258              	.LFE11:
ARM GAS  C:\Users\Xwx47\AppData\Local\Temp\ccKXpbtH.s 			page 28


 259              		.size	CapSense_EnableSensor, .-CapSense_EnableSensor
 260              		.section	.text.CapSense_DisableSensor,"ax",%progbits
 261              		.align	2
 262              		.global	CapSense_DisableSensor
 263              		.thumb
 264              		.thumb_func
 265              		.type	CapSense_DisableSensor, %function
 266              	CapSense_DisableSensor:
 267              	.LFB12:
1278:.\Generated_Source\PSoC5/CapSense.c ****         #endif  /* CapSense_IS_COMPLEX_SCANSLOTS */
1279:.\Generated_Source\PSoC5/CapSense.c ****                 
1280:.\Generated_Source\PSoC5/CapSense.c ****     #else
1281:.\Generated_Source\PSoC5/CapSense.c ****         #if (CapSense_IS_COMPLEX_SCANSLOTS)
1282:.\Generated_Source\PSoC5/CapSense.c ****             if ((amuxCh & CapSense_CHANNEL1_FLAG) == 0u)
1283:.\Generated_Source\PSoC5/CapSense.c ****             {
1284:.\Generated_Source\PSoC5/CapSense.c ****                 CapSense_AMuxCH0_Connect(amuxCh);
1285:.\Generated_Source\PSoC5/CapSense.c ****             } 
1286:.\Generated_Source\PSoC5/CapSense.c ****             else
1287:.\Generated_Source\PSoC5/CapSense.c ****             {
1288:.\Generated_Source\PSoC5/CapSense.c ****                 amuxCh &= ~ CapSense_CHANNEL1_FLAG;
1289:.\Generated_Source\PSoC5/CapSense.c ****                 CapSense_AMuxCH1_Connect(amuxCh);
1290:.\Generated_Source\PSoC5/CapSense.c ****             }
1291:.\Generated_Source\PSoC5/CapSense.c ****             
1292:.\Generated_Source\PSoC5/CapSense.c ****         #else
1293:.\Generated_Source\PSoC5/CapSense.c ****             if (sensor < CapSense_TOTAL_SENSOR_COUNT__CH0) 
1294:.\Generated_Source\PSoC5/CapSense.c ****             {
1295:.\Generated_Source\PSoC5/CapSense.c ****                 CapSense_AMuxCH0_Connect(sensor);
1296:.\Generated_Source\PSoC5/CapSense.c ****             } 
1297:.\Generated_Source\PSoC5/CapSense.c ****             else
1298:.\Generated_Source\PSoC5/CapSense.c ****             {
1299:.\Generated_Source\PSoC5/CapSense.c ****                 CapSense_AMuxCH1_Connect(sensor - CapSense_TOTAL_SENSOR_COUNT__CH0);
1300:.\Generated_Source\PSoC5/CapSense.c ****             }
1301:.\Generated_Source\PSoC5/CapSense.c ****             
1302:.\Generated_Source\PSoC5/CapSense.c ****         #endif  /* CapSense_IS_COMPLEX_SCANSLOTS */
1303:.\Generated_Source\PSoC5/CapSense.c ****         
1304:.\Generated_Source\PSoC5/CapSense.c ****     #endif  /* CapSense_DESIGN_TYPE == CapSense_ONE_CHANNEL_DESIGN */
1305:.\Generated_Source\PSoC5/CapSense.c **** }
1306:.\Generated_Source\PSoC5/CapSense.c **** 
1307:.\Generated_Source\PSoC5/CapSense.c **** 
1308:.\Generated_Source\PSoC5/CapSense.c **** /*******************************************************************************
1309:.\Generated_Source\PSoC5/CapSense.c **** * Function Name: CapSense_DisableSensor
1310:.\Generated_Source\PSoC5/CapSense.c **** ********************************************************************************
1311:.\Generated_Source\PSoC5/CapSense.c **** *
1312:.\Generated_Source\PSoC5/CapSense.c **** * Summary:
1313:.\Generated_Source\PSoC5/CapSense.c **** *  Disables the selected sensor. The corresponding pin is disconnected from the
1314:.\Generated_Source\PSoC5/CapSense.c **** *  Analog Mux Bus and connected to GND, High_Z or Shield electrode.
1315:.\Generated_Source\PSoC5/CapSense.c **** *
1316:.\Generated_Source\PSoC5/CapSense.c **** * Parameters:
1317:.\Generated_Source\PSoC5/CapSense.c **** *  sensor:  Sensor number
1318:.\Generated_Source\PSoC5/CapSense.c **** *
1319:.\Generated_Source\PSoC5/CapSense.c **** * Return:
1320:.\Generated_Source\PSoC5/CapSense.c **** *  None
1321:.\Generated_Source\PSoC5/CapSense.c **** *
1322:.\Generated_Source\PSoC5/CapSense.c **** * Global Variables:
1323:.\Generated_Source\PSoC5/CapSense.c **** *  CapSense_portTable[] - used to store the port number that pin 
1324:.\Generated_Source\PSoC5/CapSense.c **** *  belongs to for every sensor.
1325:.\Generated_Source\PSoC5/CapSense.c **** *  CapSense_maskTable[] - used to store the pin within the port for 
ARM GAS  C:\Users\Xwx47\AppData\Local\Temp\ccKXpbtH.s 			page 29


1326:.\Generated_Source\PSoC5/CapSense.c **** *  every sensor.
1327:.\Generated_Source\PSoC5/CapSense.c **** *  CapSense_csTable[]   - used to store the pointers to CAPS_SEL 
1328:.\Generated_Source\PSoC5/CapSense.c **** *  registers for every port.
1329:.\Generated_Source\PSoC5/CapSense.c **** *  CapSense_pcTable[]   - used to store the pointers to PC pin 
1330:.\Generated_Source\PSoC5/CapSense.c **** *  register for every sensor.
1331:.\Generated_Source\PSoC5/CapSense.c **** *  CapSense_amuxIndex[] - used to store corrected AMUX index when 
1332:.\Generated_Source\PSoC5/CapSense.c **** *  complex sensors are defeined.
1333:.\Generated_Source\PSoC5/CapSense.c **** *
1334:.\Generated_Source\PSoC5/CapSense.c **** *******************************************************************************/
1335:.\Generated_Source\PSoC5/CapSense.c **** void CapSense_DisableSensor(uint8 sensor) CYREENTRANT
1336:.\Generated_Source\PSoC5/CapSense.c **** {
 268              		.loc 1 1336 0
 269              		.cfi_startproc
 270              		@ args = 0, pretend = 0, frame = 0
 271              		@ frame_needed = 0, uses_anonymous_args = 0
 272              	.LVL25:
 273 0000 70B5     		push	{r4, r5, r6, lr}
 274              		.cfi_def_cfa_offset 16
 275              		.cfi_offset 4, -16
 276              		.cfi_offset 5, -12
 277              		.cfi_offset 6, -8
 278              		.cfi_offset 14, -4
 279 0002 0446     		mov	r4, r0
1337:.\Generated_Source\PSoC5/CapSense.c ****     uint8 port = CapSense_portTable[sensor];
 280              		.loc 1 1337 0
 281 0004 0B4B     		ldr	r3, .L25
 282 0006 1D5C     		ldrb	r5, [r3, r0]	@ zero_extendqisi2
 283              	.LVL26:
1338:.\Generated_Source\PSoC5/CapSense.c ****     uint8 mask = CapSense_maskTable[sensor];
 284              		.loc 1 1338 0
 285 0008 0344     		add	r3, r3, r0
 286              	.LVL27:
 287 000a 1E79     		ldrb	r6, [r3, #4]	@ zero_extendqisi2
 288              	.LVL28:
1339:.\Generated_Source\PSoC5/CapSense.c ****     
1340:.\Generated_Source\PSoC5/CapSense.c ****     #if ((CapSense_DESIGN_TYPE == CapSense_TWO_CHANNELS_DESIGN) && \
1341:.\Generated_Source\PSoC5/CapSense.c ****          (CapSense_IS_COMPLEX_SCANSLOTS))
1342:.\Generated_Source\PSoC5/CapSense.c ****         uint8 amuxCh = CapSense_amuxIndex[sensor];
1343:.\Generated_Source\PSoC5/CapSense.c ****     #endif  /* ((CapSense_DESIGN_TYPE == CapSense_TWO_CHANNELS_DESIGN) && \
1344:.\Generated_Source\PSoC5/CapSense.c ****             *   (CapSense_IS_COMPLEX_SCANSLOTS))
1345:.\Generated_Source\PSoC5/CapSense.c ****             */
1346:.\Generated_Source\PSoC5/CapSense.c ****     
1347:.\Generated_Source\PSoC5/CapSense.c ****     /* Disconnect from AMUX */
1348:.\Generated_Source\PSoC5/CapSense.c ****     #if (CapSense_DESIGN_TYPE == CapSense_ONE_CHANNEL_DESIGN)
1349:.\Generated_Source\PSoC5/CapSense.c ****         #if (CapSense_IS_COMPLEX_SCANSLOTS)
1350:.\Generated_Source\PSoC5/CapSense.c ****             CapSense_AMuxCH0_Disconnect(CapSense_amuxIndex[sensor]);
1351:.\Generated_Source\PSoC5/CapSense.c ****         #else
1352:.\Generated_Source\PSoC5/CapSense.c ****             CapSense_AMuxCH0_Disconnect(sensor);
 289              		.loc 1 1352 0
 290 000c FFF7FEFF 		bl	CapSense_AMuxCH0_Unset
 291              	.LVL29:
1353:.\Generated_Source\PSoC5/CapSense.c ****         #endif  /* CapSense_IS_COMPLEX_SCANSLOTS */
1354:.\Generated_Source\PSoC5/CapSense.c ****                 
1355:.\Generated_Source\PSoC5/CapSense.c ****     #else
1356:.\Generated_Source\PSoC5/CapSense.c ****         #if (CapSense_IS_COMPLEX_SCANSLOTS)
1357:.\Generated_Source\PSoC5/CapSense.c ****             if ((amuxCh & CapSense_CHANNEL1_FLAG) == 0u)
1358:.\Generated_Source\PSoC5/CapSense.c ****             {
ARM GAS  C:\Users\Xwx47\AppData\Local\Temp\ccKXpbtH.s 			page 30


1359:.\Generated_Source\PSoC5/CapSense.c ****                 CapSense_AMuxCH0_Disconnect(amuxCh);
1360:.\Generated_Source\PSoC5/CapSense.c ****             } 
1361:.\Generated_Source\PSoC5/CapSense.c ****             else
1362:.\Generated_Source\PSoC5/CapSense.c ****             {
1363:.\Generated_Source\PSoC5/CapSense.c ****                 amuxCh &= ~ CapSense_CHANNEL1_FLAG;
1364:.\Generated_Source\PSoC5/CapSense.c ****                 CapSense_AMuxCH1_Disconnect(amuxCh);
1365:.\Generated_Source\PSoC5/CapSense.c ****             }
1366:.\Generated_Source\PSoC5/CapSense.c ****             
1367:.\Generated_Source\PSoC5/CapSense.c ****         #else
1368:.\Generated_Source\PSoC5/CapSense.c ****             if (sensor < CapSense_TOTAL_SENSOR_COUNT__CH0) 
1369:.\Generated_Source\PSoC5/CapSense.c ****             {
1370:.\Generated_Source\PSoC5/CapSense.c ****                 CapSense_AMuxCH0_Disconnect(sensor);
1371:.\Generated_Source\PSoC5/CapSense.c ****             } 
1372:.\Generated_Source\PSoC5/CapSense.c ****             else
1373:.\Generated_Source\PSoC5/CapSense.c ****             {
1374:.\Generated_Source\PSoC5/CapSense.c ****                 CapSense_AMuxCH1_Disconnect(sensor - CapSense_TOTAL_SENSOR_COUNT__CH0);
1375:.\Generated_Source\PSoC5/CapSense.c ****             }
1376:.\Generated_Source\PSoC5/CapSense.c ****             
1377:.\Generated_Source\PSoC5/CapSense.c ****         #endif  /* CapSense_IS_COMPLEX_SCANSLOTS */
1378:.\Generated_Source\PSoC5/CapSense.c ****         
1379:.\Generated_Source\PSoC5/CapSense.c ****     #endif  /* CapSense_DESIGN_TYPE */
1380:.\Generated_Source\PSoC5/CapSense.c ****     
1381:.\Generated_Source\PSoC5/CapSense.c ****     /* Disconnect from DSI output */
1382:.\Generated_Source\PSoC5/CapSense.c **** 	if(port == 15u)
 292              		.loc 1 1382 0
 293 0010 0F2D     		cmp	r5, #15
 294 0012 00D1     		bne	.L23
1383:.\Generated_Source\PSoC5/CapSense.c **** 	{
1384:.\Generated_Source\PSoC5/CapSense.c **** 		port = 7u;
 295              		.loc 1 1384 0
 296 0014 0725     		movs	r5, #7
 297              	.L23:
 298              	.LVL30:
1385:.\Generated_Source\PSoC5/CapSense.c **** 	}
1386:.\Generated_Source\PSoC5/CapSense.c ****     *CapSense_csTable[port] &= (uint8)~mask;
 299              		.loc 1 1386 0
 300 0016 074B     		ldr	r3, .L25
 301              	.LVL31:
 302 0018 03EB8505 		add	r5, r3, r5, lsl #2
 303              	.LVL32:
 304 001c 6A69     		ldr	r2, [r5, #20]
 305 001e 1178     		ldrb	r1, [r2]	@ zero_extendqisi2
 306 0020 21EA0606 		bic	r6, r1, r6
 307 0024 1670     		strb	r6, [r2]
1387:.\Generated_Source\PSoC5/CapSense.c ****     
1388:.\Generated_Source\PSoC5/CapSense.c ****     /* Set sensor to inactive state */
1389:.\Generated_Source\PSoC5/CapSense.c ****     #if (CapSense_CONNECT_INACTIVE_SNS == CapSense_CIS_GND)
1390:.\Generated_Source\PSoC5/CapSense.c ****         *CapSense_pcTable[sensor] = CapSense_PRT_PC_GND;
 308              		.loc 1 1390 0
 309 0026 03EB8404 		add	r4, r3, r4, lsl #2
 310              	.LVL33:
 311 002a A368     		ldr	r3, [r4, #8]
 312 002c 0822     		movs	r2, #8
 313 002e 1A70     		strb	r2, [r3]
 314 0030 70BD     		pop	{r4, r5, r6, pc}
 315              	.L26:
 316 0032 00BF     		.align	2
ARM GAS  C:\Users\Xwx47\AppData\Local\Temp\ccKXpbtH.s 			page 31


 317              	.L25:
 318 0034 00000000 		.word	.LANCHOR1
 319              		.cfi_endproc
 320              	.LFE12:
 321              		.size	CapSense_DisableSensor, .-CapSense_DisableSensor
 322              		.section	.text.CapSense_ClearSensors,"ax",%progbits
 323              		.align	2
 324              		.global	CapSense_ClearSensors
 325              		.thumb
 326              		.thumb_func
 327              		.type	CapSense_ClearSensors, %function
 328              	CapSense_ClearSensors:
 329              	.LFB10:
1101:.\Generated_Source\PSoC5/CapSense.c **** {
 330              		.loc 1 1101 0
 331              		.cfi_startproc
 332              		@ args = 0, pretend = 0, frame = 0
 333              		@ frame_needed = 0, uses_anonymous_args = 0
 334 0000 10B5     		push	{r4, lr}
 335              		.cfi_def_cfa_offset 8
 336              		.cfi_offset 4, -8
 337              		.cfi_offset 14, -4
 338              	.LVL34:
1104:.\Generated_Source\PSoC5/CapSense.c ****     for (i = 0u; i < CapSense_TOTAL_SENSOR_COUNT; i++)
 339              		.loc 1 1104 0
 340 0002 0024     		movs	r4, #0
 341 0004 04E0     		b	.L28
 342              	.LVL35:
 343              	.L29:
1106:.\Generated_Source\PSoC5/CapSense.c ****         CapSense_DisableScanSlot(i);
 344              		.loc 1 1106 0 discriminator 2
 345 0006 2046     		mov	r0, r4
 346 0008 FFF7FEFF 		bl	CapSense_DisableSensor
 347              	.LVL36:
1104:.\Generated_Source\PSoC5/CapSense.c ****     for (i = 0u; i < CapSense_TOTAL_SENSOR_COUNT; i++)
 348              		.loc 1 1104 0 discriminator 2
 349 000c 0134     		adds	r4, r4, #1
 350              	.LVL37:
 351 000e E4B2     		uxtb	r4, r4
 352              	.LVL38:
 353              	.L28:
1104:.\Generated_Source\PSoC5/CapSense.c ****     for (i = 0u; i < CapSense_TOTAL_SENSOR_COUNT; i++)
 354              		.loc 1 1104 0 is_stmt 0 discriminator 1
 355 0010 022C     		cmp	r4, #2
 356 0012 F8D9     		bls	.L29
1108:.\Generated_Source\PSoC5/CapSense.c **** }
 357              		.loc 1 1108 0 is_stmt 1
 358 0014 10BD     		pop	{r4, pc}
 359              		.cfi_endproc
 360              	.LFE10:
 361              		.size	CapSense_ClearSensors, .-CapSense_ClearSensors
 362 0016 00BF     		.section	.text.CapSense_Stop,"ax",%progbits
 363              		.align	2
 364              		.global	CapSense_Stop
 365              		.thumb
 366              		.thumb_func
 367              		.type	CapSense_Stop, %function
ARM GAS  C:\Users\Xwx47\AppData\Local\Temp\ccKXpbtH.s 			page 32


 368              	CapSense_Stop:
 369              	.LFB3:
 521:.\Generated_Source\PSoC5/CapSense.c **** {
 370              		.loc 1 521 0
 371              		.cfi_startproc
 372              		@ args = 0, pretend = 0, frame = 0
 373              		@ frame_needed = 0, uses_anonymous_args = 0
 374 0000 10B5     		push	{r4, lr}
 375              		.cfi_def_cfa_offset 8
 376              		.cfi_offset 4, -8
 377              		.cfi_offset 14, -4
 523:.\Generated_Source\PSoC5/CapSense.c ****     CapSense_CONTROL_REG &= (uint8)(~CapSense_CTRL_START);
 378              		.loc 1 523 0
 379 0002 154C     		ldr	r4, .L31
 380 0004 2378     		ldrb	r3, [r4]	@ zero_extendqisi2
 381 0006 03F0FD03 		and	r3, r3, #253
 382 000a 2370     		strb	r3, [r4]
 526:.\Generated_Source\PSoC5/CapSense.c ****     CyIntDisable(CapSense_IsrCH0_ISR_NUMBER);
 383              		.loc 1 526 0
 384 000c 0122     		movs	r2, #1
 385 000e 134B     		ldr	r3, .L31+4
 386 0010 1A60     		str	r2, [r3]
 532:.\Generated_Source\PSoC5/CapSense.c ****     CapSense_ClearSensors();
 387              		.loc 1 532 0
 388 0012 FFF7FEFF 		bl	CapSense_ClearSensors
 389              	.LVL39:
 546:.\Generated_Source\PSoC5/CapSense.c ****     CapSense_SCANSPEED_AUX_CONTROL_REG &= (uint8)(~CapSense_SCANSPEED_CTRL_ENABLE);
 390              		.loc 1 546 0
 391 0016 124B     		ldr	r3, .L31+8
 392 0018 1A78     		ldrb	r2, [r3]	@ zero_extendqisi2
 393 001a 02F0DF02 		and	r2, r2, #223
 394 001e 1A70     		strb	r2, [r3]
 585:.\Generated_Source\PSoC5/CapSense.c ****        CapSense_IntClock_Stop();
 395              		.loc 1 585 0
 396 0020 FFF7FEFF 		bl	CapSense_IntClock_Stop
 397              	.LVL40:
 589:.\Generated_Source\PSoC5/CapSense.c ****     CapSense_CompCH0_Stop();
 398              		.loc 1 589 0
 399 0024 FFF7FEFF 		bl	CapSense_CompCH0_Stop
 400              	.LVL41:
 591:.\Generated_Source\PSoC5/CapSense.c ****         CapSense_IdacCH0_Stop();
 401              		.loc 1 591 0
 402 0028 FFF7FEFF 		bl	CapSense_IdacCH0_Stop
 403              	.LVL42:
 613:.\Generated_Source\PSoC5/CapSense.c ****         CapSense_BufCH0_CAPS_CFG0_REG &= (uint8)(~CapSense_CSBUF_ENABLE);
 404              		.loc 1 613 0
 405 002c 0D4B     		ldr	r3, .L31+12
 406 002e 1A78     		ldrb	r2, [r3]	@ zero_extendqisi2
 407 0030 02F0FE02 		and	r2, r2, #254
 408 0034 1A70     		strb	r2, [r3]
 614:.\Generated_Source\PSoC5/CapSense.c ****         CapSense_BufCH0_ACT_PWRMGR_REG &= (uint8)(~CapSense_BufCH0_ACT_PWR_EN);
 409              		.loc 1 614 0
 410 0036 A3F5A653 		sub	r3, r3, #5312
 411 003a 053B     		subs	r3, r3, #5
 412 003c 1A78     		ldrb	r2, [r3]	@ zero_extendqisi2
 413 003e 02F0EF02 		and	r2, r2, #239
 414 0042 1A70     		strb	r2, [r3]
ARM GAS  C:\Users\Xwx47\AppData\Local\Temp\ccKXpbtH.s 			page 33


 615:.\Generated_Source\PSoC5/CapSense.c ****         CapSense_BufCH0_STBY_PWRMGR_REG &= (uint8)(~CapSense_BufCH0_STBY_PWR_EN);
 415              		.loc 1 615 0
 416 0044 1033     		adds	r3, r3, #16
 417 0046 1A78     		ldrb	r2, [r3]	@ zero_extendqisi2
 418 0048 02F0EF02 		and	r2, r2, #239
 419 004c 1A70     		strb	r2, [r3]
 625:.\Generated_Source\PSoC5/CapSense.c ****     CapSense_CONTROL_REG &= (uint8)(~CapSense_CTRL_CAPSENSE_EN);
 420              		.loc 1 625 0
 421 004e 2378     		ldrb	r3, [r4]	@ zero_extendqisi2
 422 0050 03F07F03 		and	r3, r3, #127
 423 0054 2370     		strb	r3, [r4]
 424 0056 10BD     		pop	{r4, pc}
 425              	.L32:
 426              		.align	2
 427              	.L31:
 428 0058 7A640040 		.word	1073767546
 429 005c 80E100E0 		.word	-536813184
 430 0060 99640040 		.word	1073767577
 431 0064 70580040 		.word	1073764464
 432              		.cfi_endproc
 433              	.LFE3:
 434              		.size	CapSense_Stop, .-CapSense_Stop
 435              		.section	.text.CapSense_PostScan,"ax",%progbits
 436              		.align	2
 437              		.global	CapSense_PostScan
 438              		.thumb
 439              		.thumb_func
 440              		.type	CapSense_PostScan, %function
 441              	CapSense_PostScan:
 442              	.LFB14:
1391:.\Generated_Source\PSoC5/CapSense.c ****     #elif (CapSense_CONNECT_INACTIVE_SNS == CapSense_CIS_HIGHZ)
1392:.\Generated_Source\PSoC5/CapSense.c ****         *CapSense_pcTable[sensor] = CapSense_PRT_PC_HIGHZ;
1393:.\Generated_Source\PSoC5/CapSense.c ****     #else
1394:.\Generated_Source\PSoC5/CapSense.c ****         *CapSense_pcTable[sensor] = CapSense_PRT_PC_SHIELD;
1395:.\Generated_Source\PSoC5/CapSense.c ****     #endif  /* (CapSense_CONNECT_INACTIVE_SNS == CapSense_CIS_GND) */
1396:.\Generated_Source\PSoC5/CapSense.c **** }
1397:.\Generated_Source\PSoC5/CapSense.c **** 
1398:.\Generated_Source\PSoC5/CapSense.c **** 
1399:.\Generated_Source\PSoC5/CapSense.c **** /*******************************************************************************
1400:.\Generated_Source\PSoC5/CapSense.c **** * Function Name: CapSense_PreScan
1401:.\Generated_Source\PSoC5/CapSense.c **** ********************************************************************************
1402:.\Generated_Source\PSoC5/CapSense.c **** *
1403:.\Generated_Source\PSoC5/CapSense.c **** * Summary:
1404:.\Generated_Source\PSoC5/CapSense.c **** *  Set required settings, enable sensor, remove Vref from AMUX and start the 
1405:.\Generated_Source\PSoC5/CapSense.c **** *  scanning process of the sensor.
1406:.\Generated_Source\PSoC5/CapSense.c **** *
1407:.\Generated_Source\PSoC5/CapSense.c **** * Parameters:
1408:.\Generated_Source\PSoC5/CapSense.c **** *  sensor:  Sensor number.
1409:.\Generated_Source\PSoC5/CapSense.c **** *
1410:.\Generated_Source\PSoC5/CapSense.c **** * Return:
1411:.\Generated_Source\PSoC5/CapSense.c **** *  None
1412:.\Generated_Source\PSoC5/CapSense.c **** *
1413:.\Generated_Source\PSoC5/CapSense.c **** * Global Variables:
1414:.\Generated_Source\PSoC5/CapSense.c **** *  CapSense_rbTable[] - used to store pointers to PC pin registers for 
1415:.\Generated_Source\PSoC5/CapSense.c **** *  every bleed resistor (Rb). Only available when Current Source is External 
1416:.\Generated_Source\PSoC5/CapSense.c **** *  resistor.
1417:.\Generated_Source\PSoC5/CapSense.c **** *
ARM GAS  C:\Users\Xwx47\AppData\Local\Temp\ccKXpbtH.s 			page 34


1418:.\Generated_Source\PSoC5/CapSense.c **** *******************************************************************************/
1419:.\Generated_Source\PSoC5/CapSense.c **** void CapSense_PreScan(uint8 sensor) CYREENTRANT
1420:.\Generated_Source\PSoC5/CapSense.c **** {
1421:.\Generated_Source\PSoC5/CapSense.c ****     /* Set Sensor Settings */
1422:.\Generated_Source\PSoC5/CapSense.c ****     CapSense_SetScanSlotSettings(sensor);
1423:.\Generated_Source\PSoC5/CapSense.c ****     
1424:.\Generated_Source\PSoC5/CapSense.c ****     /* Place disable interrupts here to eliminate influence on start of scanning */
1425:.\Generated_Source\PSoC5/CapSense.c ****     /* `#START CapSense_PreScan_DisableInt` */
1426:.\Generated_Source\PSoC5/CapSense.c **** 
1427:.\Generated_Source\PSoC5/CapSense.c ****     /* `#END` */
1428:.\Generated_Source\PSoC5/CapSense.c ****     
1429:.\Generated_Source\PSoC5/CapSense.c ****     /* Resets digital and pre-charge clocks */
1430:.\Generated_Source\PSoC5/CapSense.c ****     CapSense_CONTROL_REG |= CapSense_CTRL_SYNC_EN;
1431:.\Generated_Source\PSoC5/CapSense.c ****         
1432:.\Generated_Source\PSoC5/CapSense.c ****     #if (CapSense_DESIGN_TYPE == CapSense_ONE_CHANNEL_DESIGN)
1433:.\Generated_Source\PSoC5/CapSense.c ****         #if (CapSense_CURRENT_SOURCE == CapSense_IDAC_SOURCE)
1434:.\Generated_Source\PSoC5/CapSense.c ****             /* Disable Vref from AMux */
1435:.\Generated_Source\PSoC5/CapSense.c ****             #if (CapSense_VREF_VDAC == CapSense_VREF_OPTIONS)
1436:.\Generated_Source\PSoC5/CapSense.c ****                 CapSense_AMuxCH0_Disconnect(CapSense_AMuxCH0_VREF_CHANNEL);
1437:.\Generated_Source\PSoC5/CapSense.c ****             #else
1438:.\Generated_Source\PSoC5/CapSense.c ****                 CapSense_BufCH0_CAPS_CFG0_REG &= ~CapSense_CSBUF_ENABLE;
1439:.\Generated_Source\PSoC5/CapSense.c ****             #endif  /* (CapSense_VREF_VDAC != CapSense_VREF_OPTIONS) */
1440:.\Generated_Source\PSoC5/CapSense.c **** 
1441:.\Generated_Source\PSoC5/CapSense.c ****             /* Enable Sensor */
1442:.\Generated_Source\PSoC5/CapSense.c ****             CapSense_EnableScanSlot(sensor);
1443:.\Generated_Source\PSoC5/CapSense.c ****             
1444:.\Generated_Source\PSoC5/CapSense.c ****         #elif (CapSense_CURRENT_SOURCE == CapSense_IDAC_SINK)
1445:.\Generated_Source\PSoC5/CapSense.c ****             /* Connect IDAC */
1446:.\Generated_Source\PSoC5/CapSense.c ****             CapSense_AMuxCH0_Connect(CapSense_AMuxCH0_IDAC_CHANNEL);
1447:.\Generated_Source\PSoC5/CapSense.c ****             
1448:.\Generated_Source\PSoC5/CapSense.c ****             /* Enable Sensor */
1449:.\Generated_Source\PSoC5/CapSense.c ****             CapSense_EnableScanSlot(sensor);
1450:.\Generated_Source\PSoC5/CapSense.c ****                 
1451:.\Generated_Source\PSoC5/CapSense.c ****             /* Disable CapSense Buffer */
1452:.\Generated_Source\PSoC5/CapSense.c ****             CapSense_BufCH0_CAPS_CFG0_REG &= (uint8)~CapSense_CSBUF_ENABLE;
1453:.\Generated_Source\PSoC5/CapSense.c ****             
1454:.\Generated_Source\PSoC5/CapSense.c ****         #else
1455:.\Generated_Source\PSoC5/CapSense.c ****             /* Connect DSI output to Rb */
1456:.\Generated_Source\PSoC5/CapSense.c ****             *CapSense_rbTable[CapSense_extRbCh0Cur] |= CapSense_BYP_MASK;
1457:.\Generated_Source\PSoC5/CapSense.c ****             
1458:.\Generated_Source\PSoC5/CapSense.c ****             /* Enable Sensor */
1459:.\Generated_Source\PSoC5/CapSense.c ****             CapSense_EnableScanSlot(sensor);
1460:.\Generated_Source\PSoC5/CapSense.c ****              
1461:.\Generated_Source\PSoC5/CapSense.c ****             /* Disable CapSense Buffer */
1462:.\Generated_Source\PSoC5/CapSense.c ****             CapSense_BufCH0_CAPS_CFG0_REG &= ~CapSense_CSBUF_ENABLE;
1463:.\Generated_Source\PSoC5/CapSense.c ****         
1464:.\Generated_Source\PSoC5/CapSense.c ****         #endif  /* (CapSense_CURRENT_SOURCE == CapSense_IDAC_SOURCE) */
1465:.\Generated_Source\PSoC5/CapSense.c ****         
1466:.\Generated_Source\PSoC5/CapSense.c ****     #else
1467:.\Generated_Source\PSoC5/CapSense.c **** 
1468:.\Generated_Source\PSoC5/CapSense.c ****         if((CapSense_CONTROL_REG & CapSense_CTRL_WINDOW_EN__CH0) != 0u)
1469:.\Generated_Source\PSoC5/CapSense.c ****         {
1470:.\Generated_Source\PSoC5/CapSense.c ****             #if (CapSense_CURRENT_SOURCE == CapSense_IDAC_SOURCE)
1471:.\Generated_Source\PSoC5/CapSense.c ****                 /* Disable Vref from AMux */
1472:.\Generated_Source\PSoC5/CapSense.c ****                 #if (CapSense_VREF_VDAC == CapSense_VREF_OPTIONS)
1473:.\Generated_Source\PSoC5/CapSense.c ****                     CapSense_AMuxCH0_Disconnect(CapSense_AMuxCH0_VREF_CHANNEL);
1474:.\Generated_Source\PSoC5/CapSense.c ****                 #else
ARM GAS  C:\Users\Xwx47\AppData\Local\Temp\ccKXpbtH.s 			page 35


1475:.\Generated_Source\PSoC5/CapSense.c ****                     CapSense_BufCH0_CAPS_CFG0_REG &= ~CapSense_CSBUF_ENABLE;
1476:.\Generated_Source\PSoC5/CapSense.c ****                 #endif  /* (CapSense_VREF_VDAC != CapSense_VREF_OPTIONS) */
1477:.\Generated_Source\PSoC5/CapSense.c ****                 
1478:.\Generated_Source\PSoC5/CapSense.c ****                 /* Enable Sensor */
1479:.\Generated_Source\PSoC5/CapSense.c ****                 CapSense_EnableScanSlot(sensor);
1480:.\Generated_Source\PSoC5/CapSense.c ****                 
1481:.\Generated_Source\PSoC5/CapSense.c ****             #elif (CapSense_CURRENT_SOURCE == CapSense_IDAC_SINK)
1482:.\Generated_Source\PSoC5/CapSense.c ****                 /* Connect IDAC */
1483:.\Generated_Source\PSoC5/CapSense.c ****                 CapSense_AMuxCH0_Connect(CapSense_AMuxCH0_IDAC_CHANNEL);
1484:.\Generated_Source\PSoC5/CapSense.c ****                 
1485:.\Generated_Source\PSoC5/CapSense.c ****                 /* Enable Sensor */
1486:.\Generated_Source\PSoC5/CapSense.c ****                 CapSense_EnableScanSlot(sensor);
1487:.\Generated_Source\PSoC5/CapSense.c ****                     
1488:.\Generated_Source\PSoC5/CapSense.c ****                 /* Disable Vref from AMux */
1489:.\Generated_Source\PSoC5/CapSense.c ****                 CapSense_BufCH0_CAPS_CFG0_REG &= ~CapSense_CSBUF_ENABLE;
1490:.\Generated_Source\PSoC5/CapSense.c ****                 
1491:.\Generated_Source\PSoC5/CapSense.c ****             #else
1492:.\Generated_Source\PSoC5/CapSense.c ****                 /* Connect DSI output to Rb */
1493:.\Generated_Source\PSoC5/CapSense.c ****                 *CapSense_rbTable[CapSense_extRbCh0Cur] |= CapSense_BYP_MASK;
1494:.\Generated_Source\PSoC5/CapSense.c ****                 
1495:.\Generated_Source\PSoC5/CapSense.c ****                 /* Enable Sensor */
1496:.\Generated_Source\PSoC5/CapSense.c ****                 CapSense_EnableScanSlot(sensor);
1497:.\Generated_Source\PSoC5/CapSense.c ****                     
1498:.\Generated_Source\PSoC5/CapSense.c ****                 /* Disable Vref from AMux */
1499:.\Generated_Source\PSoC5/CapSense.c ****                 CapSense_BufCH0_CAPS_CFG0_REG &= ~CapSense_CSBUF_ENABLE;
1500:.\Generated_Source\PSoC5/CapSense.c ****             
1501:.\Generated_Source\PSoC5/CapSense.c ****             #endif  /* (CapSense_CURRENT_SOURCE == CapSense_IDAC_SOURCE) */
1502:.\Generated_Source\PSoC5/CapSense.c ****             
1503:.\Generated_Source\PSoC5/CapSense.c ****         }
1504:.\Generated_Source\PSoC5/CapSense.c ****         
1505:.\Generated_Source\PSoC5/CapSense.c ****         if((CapSense_CONTROL_REG & CapSense_CTRL_WINDOW_EN__CH1) != 0u)
1506:.\Generated_Source\PSoC5/CapSense.c ****         {
1507:.\Generated_Source\PSoC5/CapSense.c ****             sensor += CapSense_TOTAL_SENSOR_COUNT__CH0;
1508:.\Generated_Source\PSoC5/CapSense.c ****             
1509:.\Generated_Source\PSoC5/CapSense.c ****             #if (CapSense_CURRENT_SOURCE == CapSense_IDAC_SOURCE)
1510:.\Generated_Source\PSoC5/CapSense.c ****                 /* Disable Vref from AMux */
1511:.\Generated_Source\PSoC5/CapSense.c ****                 #if (CapSense_VREF_VDAC == CapSense_VREF_OPTIONS)
1512:.\Generated_Source\PSoC5/CapSense.c ****                    CapSense_AMuxCH1_Disconnect(CapSense_AMuxCH1_VREF_CHANNEL);
1513:.\Generated_Source\PSoC5/CapSense.c ****                 #else 
1514:.\Generated_Source\PSoC5/CapSense.c ****                     CapSense_BufCH1_CAPS_CFG0_REG &= ~CapSense_CSBUF_ENABLE;
1515:.\Generated_Source\PSoC5/CapSense.c ****                 #endif  /* (CapSense_VREF_VDAC == CapSense_VREF_OPTIONS) */
1516:.\Generated_Source\PSoC5/CapSense.c ****                 
1517:.\Generated_Source\PSoC5/CapSense.c ****                 /* Enable Sensor */
1518:.\Generated_Source\PSoC5/CapSense.c ****                 CapSense_EnableScanSlot(sensor);
1519:.\Generated_Source\PSoC5/CapSense.c ****                 
1520:.\Generated_Source\PSoC5/CapSense.c ****             #elif (CapSense_CURRENT_SOURCE == CapSense_IDAC_SINK)
1521:.\Generated_Source\PSoC5/CapSense.c ****                 /* Connect IDAC */
1522:.\Generated_Source\PSoC5/CapSense.c ****                 CapSense_AMuxCH1_Connect(CapSense_AMuxCH1_IDAC_CHANNEL);
1523:.\Generated_Source\PSoC5/CapSense.c ****                 
1524:.\Generated_Source\PSoC5/CapSense.c ****                 /* Enable Sensor */
1525:.\Generated_Source\PSoC5/CapSense.c ****                 CapSense_EnableScanSlot(sensor);
1526:.\Generated_Source\PSoC5/CapSense.c ****                     
1527:.\Generated_Source\PSoC5/CapSense.c ****                 /* Disable Vref from AMux */
1528:.\Generated_Source\PSoC5/CapSense.c ****                 CapSense_BufCH1_CAPS_CFG0_REG &= ~CapSense_CSBUF_ENABLE;
1529:.\Generated_Source\PSoC5/CapSense.c ****                 
1530:.\Generated_Source\PSoC5/CapSense.c ****             #else
1531:.\Generated_Source\PSoC5/CapSense.c ****                 /* Connect DSI output to Rb */
ARM GAS  C:\Users\Xwx47\AppData\Local\Temp\ccKXpbtH.s 			page 36


1532:.\Generated_Source\PSoC5/CapSense.c ****                 *CapSense_rbTable[CapSense_extRbCh1Cur] |= CapSense_BYP_MASK;
1533:.\Generated_Source\PSoC5/CapSense.c ****                 
1534:.\Generated_Source\PSoC5/CapSense.c ****                 /* Enable Sensor */
1535:.\Generated_Source\PSoC5/CapSense.c ****                 CapSense_EnableScanSlot(sensor);
1536:.\Generated_Source\PSoC5/CapSense.c ****                 
1537:.\Generated_Source\PSoC5/CapSense.c ****                 /* Disable Vref from AMux */
1538:.\Generated_Source\PSoC5/CapSense.c ****                 CapSense_BufCH1_CAPS_CFG0_REG &= ~CapSense_CSBUF_ENABLE;
1539:.\Generated_Source\PSoC5/CapSense.c ****             
1540:.\Generated_Source\PSoC5/CapSense.c ****             #endif  /* (CapSense_CURRENT_SOURCE == CapSense_IDAC_SOURCE) */
1541:.\Generated_Source\PSoC5/CapSense.c ****         }
1542:.\Generated_Source\PSoC5/CapSense.c ****     
1543:.\Generated_Source\PSoC5/CapSense.c ****     #endif  /* (CapSense_DESIGN_TYPE == CapSense_ONE_CHANNEL_DESIGN) */
1544:.\Generated_Source\PSoC5/CapSense.c ****     
1545:.\Generated_Source\PSoC5/CapSense.c ****     /* Start measurament, pre-charge clocks are running and PRS as well */
1546:.\Generated_Source\PSoC5/CapSense.c ****     CapSense_CONTROL_REG |= CapSense_CTRL_START;
1547:.\Generated_Source\PSoC5/CapSense.c ****     
1548:.\Generated_Source\PSoC5/CapSense.c ****     /* Place enable interrupts here to eliminate influence on start of scanning */
1549:.\Generated_Source\PSoC5/CapSense.c ****     /* `#START CapSense_PreScan_EnableInt` */
1550:.\Generated_Source\PSoC5/CapSense.c **** 
1551:.\Generated_Source\PSoC5/CapSense.c ****     /* `#END` */
1552:.\Generated_Source\PSoC5/CapSense.c **** }
1553:.\Generated_Source\PSoC5/CapSense.c **** 
1554:.\Generated_Source\PSoC5/CapSense.c **** 
1555:.\Generated_Source\PSoC5/CapSense.c **** #if (CapSense_DESIGN_TYPE == CapSense_ONE_CHANNEL_DESIGN)
1556:.\Generated_Source\PSoC5/CapSense.c ****     /*******************************************************************************
1557:.\Generated_Source\PSoC5/CapSense.c ****     * Function Name: CapSense_PostScan
1558:.\Generated_Source\PSoC5/CapSense.c ****     ********************************************************************************
1559:.\Generated_Source\PSoC5/CapSense.c ****     *
1560:.\Generated_Source\PSoC5/CapSense.c ****     * Summary:
1561:.\Generated_Source\PSoC5/CapSense.c ****     *  Store results of measurament in CapSense_SensorResult[] array,
1562:.\Generated_Source\PSoC5/CapSense.c ****     *  sets scan sensor in none sampling state, turn off Idac(Current Source IDAC),
1563:.\Generated_Source\PSoC5/CapSense.c ****     *  disconnect IDAC(Sink mode) or bleed resistor (Rb) and apply Vref on AMUX.
1564:.\Generated_Source\PSoC5/CapSense.c ****     *  Only one channel designs.
1565:.\Generated_Source\PSoC5/CapSense.c ****     *
1566:.\Generated_Source\PSoC5/CapSense.c ****     * Parameters:
1567:.\Generated_Source\PSoC5/CapSense.c ****     *  sensor:  Sensor number.
1568:.\Generated_Source\PSoC5/CapSense.c ****     *
1569:.\Generated_Source\PSoC5/CapSense.c ****     * Return:
1570:.\Generated_Source\PSoC5/CapSense.c ****     *  None
1571:.\Generated_Source\PSoC5/CapSense.c ****     *
1572:.\Generated_Source\PSoC5/CapSense.c ****     * Global Variables:
1573:.\Generated_Source\PSoC5/CapSense.c ****     *  CapSense_sensorRaw[] - used to store sensors raw data.
1574:.\Generated_Source\PSoC5/CapSense.c ****     *
1575:.\Generated_Source\PSoC5/CapSense.c ****     * Reentrant:
1576:.\Generated_Source\PSoC5/CapSense.c ****     *  No
1577:.\Generated_Source\PSoC5/CapSense.c ****     *
1578:.\Generated_Source\PSoC5/CapSense.c ****     *******************************************************************************/
1579:.\Generated_Source\PSoC5/CapSense.c ****     void CapSense_PostScan(uint8 sensor) CYREENTRANT
1580:.\Generated_Source\PSoC5/CapSense.c ****     {
 443              		.loc 1 1580 0
 444              		.cfi_startproc
 445              		@ args = 0, pretend = 0, frame = 0
 446              		@ frame_needed = 0, uses_anonymous_args = 0
 447              	.LVL43:
 448 0000 10B5     		push	{r4, lr}
 449              		.cfi_def_cfa_offset 8
 450              		.cfi_offset 4, -8
ARM GAS  C:\Users\Xwx47\AppData\Local\Temp\ccKXpbtH.s 			page 37


 451              		.cfi_offset 14, -4
1581:.\Generated_Source\PSoC5/CapSense.c ****         /* Stop Capsensing and rearm sync */
1582:.\Generated_Source\PSoC5/CapSense.c ****         CapSense_CONTROL_REG &= (uint8)~(CapSense_CTRL_START | CapSense_CTRL_SYNC_EN);
 452              		.loc 1 1582 0
 453 0002 0E4B     		ldr	r3, .L34
 454 0004 1978     		ldrb	r1, [r3]	@ zero_extendqisi2
 455 0006 01F0FC01 		and	r1, r1, #252
 456 000a 1970     		strb	r1, [r3]
1583:.\Generated_Source\PSoC5/CapSense.c ****         
1584:.\Generated_Source\PSoC5/CapSense.c ****         /* Read SlotResult from Raw Counter */
1585:.\Generated_Source\PSoC5/CapSense.c ****         #if (CapSense_IMPLEMENTATION_CH0 == CapSense_MEASURE_IMPLEMENTATION_FF)
1586:.\Generated_Source\PSoC5/CapSense.c ****             CapSense_sensorRaw[sensor]  = CapSense_MEASURE_FULL_RANGE - 
1587:.\Generated_Source\PSoC5/CapSense.c ****                                                       CY_GET_REG16(CapSense_RAW_CH0_COUNTER_PTR);
1588:.\Generated_Source\PSoC5/CapSense.c ****         #else
1589:.\Generated_Source\PSoC5/CapSense.c ****             CapSense_sensorRaw[sensor]  = ((uint16) CapSense_RAW_CH0_COUNTER_HI_REG << 8u);
 457              		.loc 1 1589 0
 458 000c 5D3B     		subs	r3, r3, #93
 459 000e 1978     		ldrb	r1, [r3]	@ zero_extendqisi2
 460 0010 0902     		lsls	r1, r1, #8
 461 0012 0B4B     		ldr	r3, .L34+4
 462 0014 23F81010 		strh	r1, [r3, r0, lsl #1]	@ movhi
1590:.\Generated_Source\PSoC5/CapSense.c ****             CapSense_sensorRaw[sensor] |= (uint16) CapSense_RAW_CH0_COUNTER_LO_REG;
 463              		.loc 1 1590 0
 464 0018 0A4C     		ldr	r4, .L34+8
 465 001a 2478     		ldrb	r4, [r4]	@ zero_extendqisi2
 466 001c 2143     		orrs	r1, r1, r4
1591:.\Generated_Source\PSoC5/CapSense.c ****             CapSense_sensorRaw[sensor]  = CapSense_MEASURE_FULL_RANGE -
 467              		.loc 1 1591 0
 468 001e C943     		mvns	r1, r1
 469 0020 23F81010 		strh	r1, [r3, r0, lsl #1]	@ movhi
1592:.\Generated_Source\PSoC5/CapSense.c ****                                                       CapSense_sensorRaw[sensor];
1593:.\Generated_Source\PSoC5/CapSense.c ****         #endif  /* (CapSense_IMPLEMENTATION == CapSense_MEASURE_IMPLEMENTATION_FF) */
1594:.\Generated_Source\PSoC5/CapSense.c ****         
1595:.\Generated_Source\PSoC5/CapSense.c ****         /* Disable Sensor */
1596:.\Generated_Source\PSoC5/CapSense.c ****         CapSense_DisableScanSlot(sensor);
 470              		.loc 1 1596 0
 471 0024 FFF7FEFF 		bl	CapSense_DisableSensor
 472              	.LVL44:
1597:.\Generated_Source\PSoC5/CapSense.c ****         
1598:.\Generated_Source\PSoC5/CapSense.c ****         #if(CapSense_CURRENT_SOURCE)
1599:.\Generated_Source\PSoC5/CapSense.c ****             /* Turn off IDAC */
1600:.\Generated_Source\PSoC5/CapSense.c ****             CapSense_IdacCH0_SetValue(CapSense_TURN_OFF_IDAC);
 473              		.loc 1 1600 0
 474 0028 0020     		movs	r0, #0
 475 002a FFF7FEFF 		bl	CapSense_IdacCH0_SetValue
 476              	.LVL45:
1601:.\Generated_Source\PSoC5/CapSense.c ****             #if (CapSense_CURRENT_SOURCE == CapSense_IDAC_SINK)
1602:.\Generated_Source\PSoC5/CapSense.c ****                 /* Disconnect IDAC */
1603:.\Generated_Source\PSoC5/CapSense.c ****                 CapSense_AMuxCH0_Disconnect(CapSense_AMuxCH0_IDAC_CHANNEL);
1604:.\Generated_Source\PSoC5/CapSense.c ****             #endif  /* (CapSense_CURRENT_SOURCE == CapSense_IDAC_SINK) */
1605:.\Generated_Source\PSoC5/CapSense.c ****         #else
1606:.\Generated_Source\PSoC5/CapSense.c ****             /* Disconnect DSI output from Rb */
1607:.\Generated_Source\PSoC5/CapSense.c ****             *CapSense_rbTable[CapSense_extRbCh0Cur] &= ~CapSense_BYP_MASK; 
1608:.\Generated_Source\PSoC5/CapSense.c ****         #endif  /* (CapSense_CURRENT_SOURCE)*/
1609:.\Generated_Source\PSoC5/CapSense.c ****             
1610:.\Generated_Source\PSoC5/CapSense.c ****         /* Enable Vref on AMUX */
1611:.\Generated_Source\PSoC5/CapSense.c ****         #if (CapSense_VREF_OPTIONS == CapSense_VREF_VDAC)
ARM GAS  C:\Users\Xwx47\AppData\Local\Temp\ccKXpbtH.s 			page 38


1612:.\Generated_Source\PSoC5/CapSense.c ****             CapSense_AMuxCH0_Connect(CapSense_AMuxCH0_VREF_CHANNEL);
1613:.\Generated_Source\PSoC5/CapSense.c ****         #else
1614:.\Generated_Source\PSoC5/CapSense.c ****             CapSense_BufCH0_CAPS_CFG0_REG |= CapSense_CSBUF_ENABLE;
 477              		.loc 1 1614 0
 478 002e 064B     		ldr	r3, .L34+12
 479 0030 1A78     		ldrb	r2, [r3]	@ zero_extendqisi2
 480 0032 42F00102 		orr	r2, r2, #1
 481 0036 1A70     		strb	r2, [r3]
 482 0038 10BD     		pop	{r4, pc}
 483              	.L35:
 484 003a 00BF     		.align	2
 485              	.L34:
 486 003c 7A640040 		.word	1073767546
 487 0040 00000000 		.word	CapSense_sensorRaw
 488 0044 0D640040 		.word	1073767437
 489 0048 70580040 		.word	1073764464
 490              		.cfi_endproc
 491              	.LFE14:
 492              		.size	CapSense_PostScan, .-CapSense_PostScan
 493              		.section	.text.CapSense_SetPrescaler,"ax",%progbits
 494              		.align	2
 495              		.global	CapSense_SetPrescaler
 496              		.thumb
 497              		.thumb_func
 498              		.type	CapSense_SetPrescaler, %function
 499              	CapSense_SetPrescaler:
 500              	.LFB15:
1615:.\Generated_Source\PSoC5/CapSense.c ****         #endif  /* (CapSense_VREF_VDAC == CapSense_VREF_OPTIONS) */
1616:.\Generated_Source\PSoC5/CapSense.c ****     }
1617:.\Generated_Source\PSoC5/CapSense.c ****     
1618:.\Generated_Source\PSoC5/CapSense.c **** #else
1619:.\Generated_Source\PSoC5/CapSense.c **** 
1620:.\Generated_Source\PSoC5/CapSense.c ****     /*******************************************************************************
1621:.\Generated_Source\PSoC5/CapSense.c ****     * Function Name: CapSense_PostScan
1622:.\Generated_Source\PSoC5/CapSense.c ****     ********************************************************************************
1623:.\Generated_Source\PSoC5/CapSense.c ****     *
1624:.\Generated_Source\PSoC5/CapSense.c ****     * Summary:
1625:.\Generated_Source\PSoC5/CapSense.c ****     *  Store results of measurament in CapSense_SensorResult[] array,
1626:.\Generated_Source\PSoC5/CapSense.c ****     *  sets scan sensor in none sampling state, turn off Idac(Current Source IDAC),
1627:.\Generated_Source\PSoC5/CapSense.c ****     *  disconnect IDAC(Sink mode) or bleed resistor (Rb) and apply Vref on AMUX.
1628:.\Generated_Source\PSoC5/CapSense.c ****     *  Only used for channel 0 in two channes designs.
1629:.\Generated_Source\PSoC5/CapSense.c ****     *
1630:.\Generated_Source\PSoC5/CapSense.c ****     * Parameters:
1631:.\Generated_Source\PSoC5/CapSense.c ****     *  sensor:  Sensor number.
1632:.\Generated_Source\PSoC5/CapSense.c ****     *
1633:.\Generated_Source\PSoC5/CapSense.c ****     * Return:
1634:.\Generated_Source\PSoC5/CapSense.c ****     *  None
1635:.\Generated_Source\PSoC5/CapSense.c ****     *
1636:.\Generated_Source\PSoC5/CapSense.c ****     * Global Variables:
1637:.\Generated_Source\PSoC5/CapSense.c ****     *  CapSense_sensorRaw[] - used to store sensors raw data.
1638:.\Generated_Source\PSoC5/CapSense.c ****     *
1639:.\Generated_Source\PSoC5/CapSense.c ****     * Reentrant:
1640:.\Generated_Source\PSoC5/CapSense.c ****     *  No
1641:.\Generated_Source\PSoC5/CapSense.c ****     *
1642:.\Generated_Source\PSoC5/CapSense.c ****     *******************************************************************************/
1643:.\Generated_Source\PSoC5/CapSense.c ****     void CapSense_PostScanCh0(uint8 sensor) CYREENTRANT
1644:.\Generated_Source\PSoC5/CapSense.c ****     {
ARM GAS  C:\Users\Xwx47\AppData\Local\Temp\ccKXpbtH.s 			page 39


1645:.\Generated_Source\PSoC5/CapSense.c ****         if (((CapSense_CONTROL_REG & CapSense_CTRL_WINDOW_EN__CH0) == 0u) && 
1646:.\Generated_Source\PSoC5/CapSense.c ****             ((CapSense_CONTROL_REG & CapSense_CTRL_WINDOW_EN__CH1) == 0u)) 
1647:.\Generated_Source\PSoC5/CapSense.c ****         {
1648:.\Generated_Source\PSoC5/CapSense.c ****             /* Stop Capsensing and rearm sync */
1649:.\Generated_Source\PSoC5/CapSense.c ****             CapSense_CONTROL_REG &= ~(CapSense_CTRL_START | CapSense_CTRL_SYNC_EN);
1650:.\Generated_Source\PSoC5/CapSense.c ****         }
1651:.\Generated_Source\PSoC5/CapSense.c ****         
1652:.\Generated_Source\PSoC5/CapSense.c ****         /* Read SlotResult from Raw Counter */
1653:.\Generated_Source\PSoC5/CapSense.c ****         #if (CapSense_IMPLEMENTATION_CH0 == CapSense_MEASURE_IMPLEMENTATION_FF)
1654:.\Generated_Source\PSoC5/CapSense.c ****             CapSense_sensorRaw[sensor]  = CapSense_MEASURE_FULL_RANGE - 
1655:.\Generated_Source\PSoC5/CapSense.c ****                                                       CY_GET_REG16(CapSense_RAW_CH0_COUNTER_PTR);
1656:.\Generated_Source\PSoC5/CapSense.c ****         #else
1657:.\Generated_Source\PSoC5/CapSense.c ****             CapSense_sensorRaw[sensor]  = ((uint16) CapSense_RAW_CH0_COUNTER_HI_REG << 8u);
1658:.\Generated_Source\PSoC5/CapSense.c ****             CapSense_sensorRaw[sensor] |= (uint16) CapSense_RAW_CH0_COUNTER_LO_REG;
1659:.\Generated_Source\PSoC5/CapSense.c ****             CapSense_sensorRaw[sensor]  = CapSense_MEASURE_FULL_RANGE - 
1660:.\Generated_Source\PSoC5/CapSense.c ****                                                       CapSense_sensorRaw[sensor];
1661:.\Generated_Source\PSoC5/CapSense.c ****         #endif  /* (CapSense_IMPLEMENTATION_CH0 == CapSense_MEASURE_IMPLEMENTATION_FF)*/
1662:.\Generated_Source\PSoC5/CapSense.c ****         
1663:.\Generated_Source\PSoC5/CapSense.c ****         /* Disable Sensor */
1664:.\Generated_Source\PSoC5/CapSense.c ****         CapSense_DisableScanSlot(sensor);
1665:.\Generated_Source\PSoC5/CapSense.c ****         
1666:.\Generated_Source\PSoC5/CapSense.c ****         #if (CapSense_CURRENT_SOURCE)
1667:.\Generated_Source\PSoC5/CapSense.c ****             /* Turn off IDAC */
1668:.\Generated_Source\PSoC5/CapSense.c ****             CapSense_IdacCH0_SetValue(CapSense_TURN_OFF_IDAC);
1669:.\Generated_Source\PSoC5/CapSense.c ****             #if (CapSense_CURRENT_SOURCE == CapSense_IDAC_SINK)
1670:.\Generated_Source\PSoC5/CapSense.c ****                 /* Disconnect IDAC */
1671:.\Generated_Source\PSoC5/CapSense.c ****                 CapSense_AMuxCH0_Disconnect(CapSense_AMuxCH0_IDAC_CHANNEL);
1672:.\Generated_Source\PSoC5/CapSense.c ****             #endif  /* (CapSense_CURRENT_SOURCE == CapSense_IDAC_SINK) */
1673:.\Generated_Source\PSoC5/CapSense.c ****         #else
1674:.\Generated_Source\PSoC5/CapSense.c ****             /* Disconnect DSI output from Rb */
1675:.\Generated_Source\PSoC5/CapSense.c ****             *CapSense_rbTable[CapSense_extRbCh0Cur] &= ~CapSense_BYP_MASK; 
1676:.\Generated_Source\PSoC5/CapSense.c ****         #endif  /* (CapSense_CURRENT_SOURCE)*/
1677:.\Generated_Source\PSoC5/CapSense.c ****         
1678:.\Generated_Source\PSoC5/CapSense.c ****         /* Enable Vref on AMUX */
1679:.\Generated_Source\PSoC5/CapSense.c ****         #if (CapSense_VREF_OPTIONS == CapSense_VREF_VDAC)
1680:.\Generated_Source\PSoC5/CapSense.c ****             CapSense_AMuxCH0_Connect(CapSense_AMuxCH0_VREF_CHANNEL);
1681:.\Generated_Source\PSoC5/CapSense.c ****         #else
1682:.\Generated_Source\PSoC5/CapSense.c ****             CapSense_BufCH0_CAPS_CFG0_REG |= CapSense_CSBUF_ENABLE;
1683:.\Generated_Source\PSoC5/CapSense.c ****         #endif  /* (CapSense_VREF_VDAC == CapSense_VREF_OPTIONS) */
1684:.\Generated_Source\PSoC5/CapSense.c ****     }
1685:.\Generated_Source\PSoC5/CapSense.c ****     
1686:.\Generated_Source\PSoC5/CapSense.c ****     
1687:.\Generated_Source\PSoC5/CapSense.c ****     /*******************************************************************************
1688:.\Generated_Source\PSoC5/CapSense.c ****     * Function Name: CapSense_PostScanCh1
1689:.\Generated_Source\PSoC5/CapSense.c ****     ********************************************************************************
1690:.\Generated_Source\PSoC5/CapSense.c ****     *
1691:.\Generated_Source\PSoC5/CapSense.c ****     * Summary:
1692:.\Generated_Source\PSoC5/CapSense.c ****     *  Store results of measurament in CapSense_SensorResult[] array,
1693:.\Generated_Source\PSoC5/CapSense.c ****     *  sets scan sensor in none sampling state, turn off Idac(Current Source IDAC), 
1694:.\Generated_Source\PSoC5/CapSense.c ****     *  disconnect IDAC(Sink mode) or bleed resistor (Rb) and apply Vref on AMUX.
1695:.\Generated_Source\PSoC5/CapSense.c ****     *  Only used for channel 1 in two channes designs.
1696:.\Generated_Source\PSoC5/CapSense.c ****     *
1697:.\Generated_Source\PSoC5/CapSense.c ****     * Parameters:
1698:.\Generated_Source\PSoC5/CapSense.c ****     *  sensor:  Sensor number.
1699:.\Generated_Source\PSoC5/CapSense.c ****     *
1700:.\Generated_Source\PSoC5/CapSense.c ****     * Return:
1701:.\Generated_Source\PSoC5/CapSense.c ****     *  None
ARM GAS  C:\Users\Xwx47\AppData\Local\Temp\ccKXpbtH.s 			page 40


1702:.\Generated_Source\PSoC5/CapSense.c ****     *
1703:.\Generated_Source\PSoC5/CapSense.c ****     * Global Variables:
1704:.\Generated_Source\PSoC5/CapSense.c ****     *  CapSense_sensorRaw[] - used to store sensors raw data.
1705:.\Generated_Source\PSoC5/CapSense.c ****     *
1706:.\Generated_Source\PSoC5/CapSense.c ****     * Reentrant:
1707:.\Generated_Source\PSoC5/CapSense.c ****     *  No
1708:.\Generated_Source\PSoC5/CapSense.c ****     *
1709:.\Generated_Source\PSoC5/CapSense.c ****     *******************************************************************************/
1710:.\Generated_Source\PSoC5/CapSense.c ****     void CapSense_PostScanCh1(uint8 sensor) CYREENTRANT
1711:.\Generated_Source\PSoC5/CapSense.c ****     {
1712:.\Generated_Source\PSoC5/CapSense.c ****         if (((CapSense_CONTROL_REG & CapSense_CTRL_WINDOW_EN__CH0) == 0u) && 
1713:.\Generated_Source\PSoC5/CapSense.c ****             ((CapSense_CONTROL_REG & CapSense_CTRL_WINDOW_EN__CH1) == 0u))
1714:.\Generated_Source\PSoC5/CapSense.c ****         {
1715:.\Generated_Source\PSoC5/CapSense.c ****             /* Stop Capsensing and rearm sync */
1716:.\Generated_Source\PSoC5/CapSense.c ****             CapSense_CONTROL_REG &= ~(CapSense_CTRL_START | CapSense_CTRL_SYNC_EN);
1717:.\Generated_Source\PSoC5/CapSense.c ****         }
1718:.\Generated_Source\PSoC5/CapSense.c ****         
1719:.\Generated_Source\PSoC5/CapSense.c ****         /* Read SlotResult from Raw Counter */
1720:.\Generated_Source\PSoC5/CapSense.c ****         #if (CapSense_IMPLEMENTATION_CH1 == CapSense_MEASURE_IMPLEMENTATION_FF)
1721:.\Generated_Source\PSoC5/CapSense.c ****             CapSense_sensorRaw[sensor]  = CapSense_MEASURE_FULL_RANGE - 
1722:.\Generated_Source\PSoC5/CapSense.c ****                                                       CY_GET_REG16(CapSense_RAW_CH1_COUNTER_PTR);
1723:.\Generated_Source\PSoC5/CapSense.c ****         #else
1724:.\Generated_Source\PSoC5/CapSense.c ****             CapSense_sensorRaw[sensor]  = ((uint16) CapSense_RAW_CH1_COUNTER_HI_REG << 8u);
1725:.\Generated_Source\PSoC5/CapSense.c ****             CapSense_sensorRaw[sensor] |= (uint16) CapSense_RAW_CH1_COUNTER_LO_REG;
1726:.\Generated_Source\PSoC5/CapSense.c ****             CapSense_sensorRaw[sensor]  = CapSense_MEASURE_FULL_RANGE - 
1727:.\Generated_Source\PSoC5/CapSense.c ****                                                       CapSense_sensorRaw[sensor];
1728:.\Generated_Source\PSoC5/CapSense.c ****         #endif  /* (CapSense_IMPLEMENTATION_CH1 == CapSense_MEASURE_IMPLEMENTATION_FF)*/
1729:.\Generated_Source\PSoC5/CapSense.c ****         
1730:.\Generated_Source\PSoC5/CapSense.c ****         /* Disable Sensor */
1731:.\Generated_Source\PSoC5/CapSense.c ****         CapSense_DisableScanSlot(sensor);
1732:.\Generated_Source\PSoC5/CapSense.c ****         
1733:.\Generated_Source\PSoC5/CapSense.c ****         #if (CapSense_CURRENT_SOURCE)
1734:.\Generated_Source\PSoC5/CapSense.c ****             /* Turn off IDAC */
1735:.\Generated_Source\PSoC5/CapSense.c ****             CapSense_IdacCH1_SetValue(CapSense_TURN_OFF_IDAC);
1736:.\Generated_Source\PSoC5/CapSense.c ****             #if (CapSense_CURRENT_SOURCE == CapSense_IDAC_SINK)
1737:.\Generated_Source\PSoC5/CapSense.c ****                 /* Disconnect IDAC */
1738:.\Generated_Source\PSoC5/CapSense.c ****                 CapSense_AMuxCH1_Disconnect(CapSense_AMuxCH1_IDAC_CHANNEL);
1739:.\Generated_Source\PSoC5/CapSense.c ****             #endif  /* (CapSense_CURRENT_SOURCE == CapSense_IDAC_SINK) */
1740:.\Generated_Source\PSoC5/CapSense.c ****         #else
1741:.\Generated_Source\PSoC5/CapSense.c ****             /* Disconnect DSI output from Rb */
1742:.\Generated_Source\PSoC5/CapSense.c ****             *CapSense_rbTable[CapSense_extRbCh1Cur] &= ~CapSense_BYP_MASK; 
1743:.\Generated_Source\PSoC5/CapSense.c ****         #endif  /* (CapSense_CURRENT_SOURCE)*/
1744:.\Generated_Source\PSoC5/CapSense.c **** 
1745:.\Generated_Source\PSoC5/CapSense.c ****         /* Enable Vref on AMUX */
1746:.\Generated_Source\PSoC5/CapSense.c ****         #if (CapSense_VREF_OPTIONS == CapSense_VREF_VDAC)
1747:.\Generated_Source\PSoC5/CapSense.c ****             CapSense_AMuxCH1_Connect(CapSense_AMuxCH1_VREF_CHANNEL);
1748:.\Generated_Source\PSoC5/CapSense.c ****         #else
1749:.\Generated_Source\PSoC5/CapSense.c ****             CapSense_BufCH1_CAPS_CFG0_REG |= CapSense_CSBUF_ENABLE;
1750:.\Generated_Source\PSoC5/CapSense.c ****         #endif  /* (CapSense_VREF_VDAC == CapSense_VREF_OPTIONS) */
1751:.\Generated_Source\PSoC5/CapSense.c ****     }
1752:.\Generated_Source\PSoC5/CapSense.c ****     
1753:.\Generated_Source\PSoC5/CapSense.c **** #endif  /* CapSense_DESIGN_TYPE */
1754:.\Generated_Source\PSoC5/CapSense.c **** 
1755:.\Generated_Source\PSoC5/CapSense.c **** 
1756:.\Generated_Source\PSoC5/CapSense.c **** #if (CapSense_CURRENT_SOURCE == CapSense_EXTERNAL_RB)
1757:.\Generated_Source\PSoC5/CapSense.c ****     /*******************************************************************************
1758:.\Generated_Source\PSoC5/CapSense.c ****     * Function Name:  CapSense_InitRb
ARM GAS  C:\Users\Xwx47\AppData\Local\Temp\ccKXpbtH.s 			page 41


1759:.\Generated_Source\PSoC5/CapSense.c ****     ********************************************************************************
1760:.\Generated_Source\PSoC5/CapSense.c ****     *
1761:.\Generated_Source\PSoC5/CapSense.c ****     * Summary:
1762:.\Generated_Source\PSoC5/CapSense.c ****     *  Sets all Rbleed resistor to High-Z mode. The first Rbleed resistor is active
1763:.\Generated_Source\PSoC5/CapSense.c ****     *  while next measure.
1764:.\Generated_Source\PSoC5/CapSense.c ****     *  This function is available only if Current Source is External Resistor.
1765:.\Generated_Source\PSoC5/CapSense.c ****     *
1766:.\Generated_Source\PSoC5/CapSense.c ****     * Parameters:
1767:.\Generated_Source\PSoC5/CapSense.c ****     *  None
1768:.\Generated_Source\PSoC5/CapSense.c ****     *
1769:.\Generated_Source\PSoC5/CapSense.c ****     * Return:
1770:.\Generated_Source\PSoC5/CapSense.c ****     *  None
1771:.\Generated_Source\PSoC5/CapSense.c ****     *
1772:.\Generated_Source\PSoC5/CapSense.c ****     ********************************************************************************/
1773:.\Generated_Source\PSoC5/CapSense.c ****     void CapSense_InitRb(void) 
1774:.\Generated_Source\PSoC5/CapSense.c ****     {
1775:.\Generated_Source\PSoC5/CapSense.c ****         uint8 i;
1776:.\Generated_Source\PSoC5/CapSense.c ****         
1777:.\Generated_Source\PSoC5/CapSense.c ****         /* Disable all Rb */
1778:.\Generated_Source\PSoC5/CapSense.c ****         for(i = 0u; i < CapSense_TOTAL_RB_NUMBER; i++)
1779:.\Generated_Source\PSoC5/CapSense.c ****         {
1780:.\Generated_Source\PSoC5/CapSense.c ****             /* Make High-Z */
1781:.\Generated_Source\PSoC5/CapSense.c ****             *CapSense_rbTable[i] = CapSense_PRT_PC_HIGHZ;
1782:.\Generated_Source\PSoC5/CapSense.c ****         }
1783:.\Generated_Source\PSoC5/CapSense.c ****     }
1784:.\Generated_Source\PSoC5/CapSense.c ****     
1785:.\Generated_Source\PSoC5/CapSense.c ****     
1786:.\Generated_Source\PSoC5/CapSense.c ****     /*******************************************************************************
1787:.\Generated_Source\PSoC5/CapSense.c ****     * Function Name: CapSense_SetRBleed
1788:.\Generated_Source\PSoC5/CapSense.c ****     ********************************************************************************
1789:.\Generated_Source\PSoC5/CapSense.c ****     *
1790:.\Generated_Source\PSoC5/CapSense.c ****     * Summary:
1791:.\Generated_Source\PSoC5/CapSense.c ****     *  Sets the pin to use for the bleed resistor (Rb) connection. This function
1792:.\Generated_Source\PSoC5/CapSense.c ****     *  can be called at runtime to select the current Rb pin setting from those 
1793:.\Generated_Source\PSoC5/CapSense.c ****     *  defined customizer. The function overwrites the component parameter setting. 
1794:.\Generated_Source\PSoC5/CapSense.c ****     *  This function is available only if Current Source is External Resistor.
1795:.\Generated_Source\PSoC5/CapSense.c ****     * 
1796:.\Generated_Source\PSoC5/CapSense.c ****     * Parameters:
1797:.\Generated_Source\PSoC5/CapSense.c ****     *  rbleed:  Ordering number for bleed resistor terminal defined in CapSense
1798:.\Generated_Source\PSoC5/CapSense.c ****     *  customizer.
1799:.\Generated_Source\PSoC5/CapSense.c ****     *
1800:.\Generated_Source\PSoC5/CapSense.c ****     * Return:
1801:.\Generated_Source\PSoC5/CapSense.c ****     *  None
1802:.\Generated_Source\PSoC5/CapSense.c ****     *
1803:.\Generated_Source\PSoC5/CapSense.c ****     * Global Variables:
1804:.\Generated_Source\PSoC5/CapSense.c ****     *  CapSense_extRbCh0Cur - used to store current number of active 
1805:.\Generated_Source\PSoC5/CapSense.c ****     *  bleed resistor (Rb) of channel 0.
1806:.\Generated_Source\PSoC5/CapSense.c ****     *  CapSense_extRbCh1Cur - used to store current number of active 
1807:.\Generated_Source\PSoC5/CapSense.c ****     *  bleed resistor (Rb) of channel 1.
1808:.\Generated_Source\PSoC5/CapSense.c ****     *  The active bleed resistor (Rb) pin will be used while next measurement  
1809:.\Generated_Source\PSoC5/CapSense.c ****     *  cycle.
1810:.\Generated_Source\PSoC5/CapSense.c ****     *
1811:.\Generated_Source\PSoC5/CapSense.c ****     * Reentrant:
1812:.\Generated_Source\PSoC5/CapSense.c ****     *  No
1813:.\Generated_Source\PSoC5/CapSense.c ****     *
1814:.\Generated_Source\PSoC5/CapSense.c ****     *******************************************************************************/
1815:.\Generated_Source\PSoC5/CapSense.c ****     void CapSense_SetRBleed(uint8 rbleed) 
ARM GAS  C:\Users\Xwx47\AppData\Local\Temp\ccKXpbtH.s 			page 42


1816:.\Generated_Source\PSoC5/CapSense.c ****     {
1817:.\Generated_Source\PSoC5/CapSense.c ****         #if (CapSense_DESIGN_TYPE == CapSense_ONE_CHANNEL_DESIGN)
1818:.\Generated_Source\PSoC5/CapSense.c ****             CapSense_extRbCh0Cur = rbleed;
1819:.\Generated_Source\PSoC5/CapSense.c ****             
1820:.\Generated_Source\PSoC5/CapSense.c ****         #else
1821:.\Generated_Source\PSoC5/CapSense.c ****             if(rbleed < CapSense_TOTAL_RB_NUMBER__CH0)
1822:.\Generated_Source\PSoC5/CapSense.c ****             {
1823:.\Generated_Source\PSoC5/CapSense.c ****                 CapSense_extRbCh0Cur = rbleed;
1824:.\Generated_Source\PSoC5/CapSense.c ****             }
1825:.\Generated_Source\PSoC5/CapSense.c ****             else
1826:.\Generated_Source\PSoC5/CapSense.c ****             {
1827:.\Generated_Source\PSoC5/CapSense.c ****                 CapSense_extRbCh1Cur = (rbleed - CapSense_TOTAL_RB_NUMBER__CH0);   
1828:.\Generated_Source\PSoC5/CapSense.c ****             }
1829:.\Generated_Source\PSoC5/CapSense.c ****     
1830:.\Generated_Source\PSoC5/CapSense.c ****         #endif  /* CapSense_DESIGN_TYPE == CapSense_ONE_CHANNEL_DESIGN */ 
1831:.\Generated_Source\PSoC5/CapSense.c ****     }
1832:.\Generated_Source\PSoC5/CapSense.c **** #endif /* CapSense_CURRENT_SOURCE == CapSense_EXTERNAL_RB */ 
1833:.\Generated_Source\PSoC5/CapSense.c **** 
1834:.\Generated_Source\PSoC5/CapSense.c **** #if (CapSense_PRESCALER_OPTIONS)
1835:.\Generated_Source\PSoC5/CapSense.c ****     /*******************************************************************************
1836:.\Generated_Source\PSoC5/CapSense.c ****     * Function Name: CapSense_SetPrescaler
1837:.\Generated_Source\PSoC5/CapSense.c ****     ********************************************************************************
1838:.\Generated_Source\PSoC5/CapSense.c ****     *
1839:.\Generated_Source\PSoC5/CapSense.c ****     * Summary:
1840:.\Generated_Source\PSoC5/CapSense.c ****     *  Sets analog switch divider.
1841:.\Generated_Source\PSoC5/CapSense.c ****     *
1842:.\Generated_Source\PSoC5/CapSense.c ****     * Parameters:
1843:.\Generated_Source\PSoC5/CapSense.c ****     *  prescaler:  Sets prescaler divider values.
1844:.\Generated_Source\PSoC5/CapSense.c ****     *
1845:.\Generated_Source\PSoC5/CapSense.c ****     * Return:
1846:.\Generated_Source\PSoC5/CapSense.c ****     *  None
1847:.\Generated_Source\PSoC5/CapSense.c ****     *
1848:.\Generated_Source\PSoC5/CapSense.c ****     *******************************************************************************/
1849:.\Generated_Source\PSoC5/CapSense.c ****     void CapSense_SetPrescaler(uint8 prescaler) CYREENTRANT
1850:.\Generated_Source\PSoC5/CapSense.c ****     {
 501              		.loc 1 1850 0
 502              		.cfi_startproc
 503              		@ args = 0, pretend = 0, frame = 0
 504              		@ frame_needed = 0, uses_anonymous_args = 0
 505              		@ link register save eliminated.
 506              	.LVL46:
1851:.\Generated_Source\PSoC5/CapSense.c ****         /* Set Prescaler */
1852:.\Generated_Source\PSoC5/CapSense.c ****         #if (CapSense_PRESCALER_OPTIONS == CapSense_PRESCALER_UDB)
1853:.\Generated_Source\PSoC5/CapSense.c ****             CapSense_PRESCALER_PERIOD_REG = prescaler;
 507              		.loc 1 1853 0
 508 0000 024B     		ldr	r3, .L37
 509 0002 1870     		strb	r0, [r3]
1854:.\Generated_Source\PSoC5/CapSense.c ****             CapSense_PRESCALER_COMPARE_REG = (prescaler >> 1u);
 510              		.loc 1 1854 0
 511 0004 4008     		lsrs	r0, r0, #1
 512              	.LVL47:
 513 0006 1033     		adds	r3, r3, #16
 514              	.LVL48:
 515 0008 1870     		strb	r0, [r3]
 516              	.LVL49:
 517 000a 7047     		bx	lr
 518              	.L38:
ARM GAS  C:\Users\Xwx47\AppData\Local\Temp\ccKXpbtH.s 			page 43


 519              		.align	2
 520              	.L37:
 521 000c 29640040 		.word	1073767465
 522              		.cfi_endproc
 523              	.LFE15:
 524              		.size	CapSense_SetPrescaler, .-CapSense_SetPrescaler
 525              		.section	.text.CapSense_SetScanSlotSettings,"ax",%progbits
 526              		.align	2
 527              		.global	CapSense_SetScanSlotSettings
 528              		.thumb
 529              		.thumb_func
 530              		.type	CapSense_SetScanSlotSettings, %function
 531              	CapSense_SetScanSlotSettings:
 532              	.LFB5:
 813:.\Generated_Source\PSoC5/CapSense.c **** {
 533              		.loc 1 813 0
 534              		.cfi_startproc
 535              		@ args = 0, pretend = 0, frame = 0
 536              		@ frame_needed = 0, uses_anonymous_args = 0
 537              	.LVL50:
 538 0000 70B5     		push	{r4, r5, r6, lr}
 539              		.cfi_def_cfa_offset 16
 540              		.cfi_offset 4, -16
 541              		.cfi_offset 5, -12
 542              		.cfi_offset 6, -8
 543              		.cfi_offset 14, -4
 544 0002 0446     		mov	r4, r0
 818:.\Generated_Source\PSoC5/CapSense.c ****         widget = CapSense_widgetNumber[slot];
 545              		.loc 1 818 0
 546 0004 084B     		ldr	r3, .L40
 547 0006 0344     		add	r3, r3, r0
 548 0008 93F83460 		ldrb	r6, [r3, #52]	@ zero_extendqisi2
 549              	.LVL51:
 822:.\Generated_Source\PSoC5/CapSense.c ****             CapSense_IdacCH0_SetValue(CapSense_idacSettings[slot]);
 550              		.loc 1 822 0
 551 000c 074D     		ldr	r5, .L40+4
 552 000e 2B18     		adds	r3, r5, r0
 553              	.LVL52:
 554 0010 1879     		ldrb	r0, [r3, #4]	@ zero_extendqisi2
 555              	.LVL53:
 556 0012 FFF7FEFF 		bl	CapSense_IdacCH0_SetValue
 557              	.LVL54:
 830:.\Generated_Source\PSoC5/CapSense.c ****             CapSense_PWM_CH0_PERIOD_HI_REG = CapSense_widgetResolution[widget];
 558              		.loc 1 830 0
 559 0016 3544     		add	r5, r5, r6
 560 0018 2A7A     		ldrb	r2, [r5, #8]	@ zero_extendqisi2
 561 001a 054B     		ldr	r3, .L40+8
 562 001c 1A70     		strb	r2, [r3]
 835:.\Generated_Source\PSoC5/CapSense.c ****             CapSense_SetPrescaler(CapSense_analogSwitchDivider[slot]);
 563              		.loc 1 835 0
 564 001e 054B     		ldr	r3, .L40+12
 565 0020 185D     		ldrb	r0, [r3, r4]	@ zero_extendqisi2
 566 0022 FFF7FEFF 		bl	CapSense_SetPrescaler
 567              	.LVL55:
 568 0026 70BD     		pop	{r4, r5, r6, pc}
 569              	.LVL56:
 570              	.L41:
ARM GAS  C:\Users\Xwx47\AppData\Local\Temp\ccKXpbtH.s 			page 44


 571              		.align	2
 572              	.L40:
 573 0028 00000000 		.word	.LANCHOR1
 574 002c 00000000 		.word	.LANCHOR0
 575 0030 5C640040 		.word	1073767516
 576 0034 00000000 		.word	CapSense_analogSwitchDivider
 577              		.cfi_endproc
 578              	.LFE5:
 579              		.size	CapSense_SetScanSlotSettings, .-CapSense_SetScanSlotSettings
 580              		.section	.text.CapSense_PreScan,"ax",%progbits
 581              		.align	2
 582              		.global	CapSense_PreScan
 583              		.thumb
 584              		.thumb_func
 585              		.type	CapSense_PreScan, %function
 586              	CapSense_PreScan:
 587              	.LFB13:
1420:.\Generated_Source\PSoC5/CapSense.c **** {
 588              		.loc 1 1420 0
 589              		.cfi_startproc
 590              		@ args = 0, pretend = 0, frame = 0
 591              		@ frame_needed = 0, uses_anonymous_args = 0
 592              	.LVL57:
 593 0000 38B5     		push	{r3, r4, r5, lr}
 594              		.cfi_def_cfa_offset 16
 595              		.cfi_offset 3, -16
 596              		.cfi_offset 4, -12
 597              		.cfi_offset 5, -8
 598              		.cfi_offset 14, -4
 599 0002 0546     		mov	r5, r0
1422:.\Generated_Source\PSoC5/CapSense.c ****     CapSense_SetScanSlotSettings(sensor);
 600              		.loc 1 1422 0
 601 0004 FFF7FEFF 		bl	CapSense_SetScanSlotSettings
 602              	.LVL58:
1430:.\Generated_Source\PSoC5/CapSense.c ****     CapSense_CONTROL_REG |= CapSense_CTRL_SYNC_EN;
 603              		.loc 1 1430 0
 604 0008 084C     		ldr	r4, .L43
 605 000a 2378     		ldrb	r3, [r4]	@ zero_extendqisi2
 606 000c 43F00103 		orr	r3, r3, #1
 607 0010 2370     		strb	r3, [r4]
1438:.\Generated_Source\PSoC5/CapSense.c ****                 CapSense_BufCH0_CAPS_CFG0_REG &= ~CapSense_CSBUF_ENABLE;
 608              		.loc 1 1438 0
 609 0012 074B     		ldr	r3, .L43+4
 610 0014 1A78     		ldrb	r2, [r3]	@ zero_extendqisi2
 611 0016 02F0FE02 		and	r2, r2, #254
 612 001a 1A70     		strb	r2, [r3]
1442:.\Generated_Source\PSoC5/CapSense.c ****             CapSense_EnableScanSlot(sensor);
 613              		.loc 1 1442 0
 614 001c 2846     		mov	r0, r5
 615 001e FFF7FEFF 		bl	CapSense_EnableSensor
 616              	.LVL59:
1546:.\Generated_Source\PSoC5/CapSense.c ****     CapSense_CONTROL_REG |= CapSense_CTRL_START;
 617              		.loc 1 1546 0
 618 0022 2378     		ldrb	r3, [r4]	@ zero_extendqisi2
 619 0024 43F00203 		orr	r3, r3, #2
 620 0028 2370     		strb	r3, [r4]
 621 002a 38BD     		pop	{r3, r4, r5, pc}
ARM GAS  C:\Users\Xwx47\AppData\Local\Temp\ccKXpbtH.s 			page 45


 622              	.L44:
 623              		.align	2
 624              	.L43:
 625 002c 7A640040 		.word	1073767546
 626 0030 70580040 		.word	1073764464
 627              		.cfi_endproc
 628              	.LFE13:
 629              		.size	CapSense_PreScan, .-CapSense_PreScan
 630              		.section	.text.CapSense_ScanSensor,"ax",%progbits
 631              		.align	2
 632              		.global	CapSense_ScanSensor
 633              		.thumb
 634              		.thumb_func
 635              		.type	CapSense_ScanSensor, %function
 636              	CapSense_ScanSensor:
 637              	.LFB6:
 925:.\Generated_Source\PSoC5/CapSense.c **** {
 638              		.loc 1 925 0
 639              		.cfi_startproc
 640              		@ args = 0, pretend = 0, frame = 0
 641              		@ frame_needed = 0, uses_anonymous_args = 0
 642              	.LVL60:
 643 0000 08B5     		push	{r3, lr}
 644              		.cfi_def_cfa_offset 8
 645              		.cfi_offset 3, -8
 646              		.cfi_offset 14, -4
 927:.\Generated_Source\PSoC5/CapSense.c ****     CapSense_csv = 0u;
 647              		.loc 1 927 0
 648 0002 054B     		ldr	r3, .L46
 649 0004 0022     		movs	r2, #0
 650 0006 1A70     		strb	r2, [r3]
 928:.\Generated_Source\PSoC5/CapSense.c ****     CapSense_sensorIndex = sensor;
 651              		.loc 1 928 0
 652 0008 044A     		ldr	r2, .L46+4
 653 000a 1070     		strb	r0, [r2]
 932:.\Generated_Source\PSoC5/CapSense.c ****         CapSense_csv = (CapSense_SW_STS_BUSY | CapSense_SW_CTRL_SINGLE_SCAN);
 654              		.loc 1 932 0
 655 000c 8122     		movs	r2, #129
 656 000e 1A70     		strb	r2, [r3]
 933:.\Generated_Source\PSoC5/CapSense.c ****         CapSense_PreScan(sensor);
 657              		.loc 1 933 0
 658 0010 FFF7FEFF 		bl	CapSense_PreScan
 659              	.LVL61:
 660 0014 08BD     		pop	{r3, pc}
 661              	.L47:
 662 0016 00BF     		.align	2
 663              	.L46:
 664 0018 00000000 		.word	CapSense_csv
 665 001c 00000000 		.word	CapSense_sensorIndex
 666              		.cfi_endproc
 667              	.LFE6:
 668              		.size	CapSense_ScanSensor, .-CapSense_ScanSensor
 669              		.section	.text.CapSense_ScanEnabledWidgets,"ax",%progbits
 670              		.align	2
 671              		.global	CapSense_ScanEnabledWidgets
 672              		.thumb
 673              		.thumb_func
ARM GAS  C:\Users\Xwx47\AppData\Local\Temp\ccKXpbtH.s 			page 46


 674              		.type	CapSense_ScanEnabledWidgets, %function
 675              	CapSense_ScanEnabledWidgets:
 676              	.LFB7:
1002:.\Generated_Source\PSoC5/CapSense.c **** {
 677              		.loc 1 1002 0
 678              		.cfi_startproc
 679              		@ args = 0, pretend = 0, frame = 0
 680              		@ frame_needed = 0, uses_anonymous_args = 0
 681 0000 10B5     		push	{r4, lr}
 682              		.cfi_def_cfa_offset 8
 683              		.cfi_offset 4, -8
 684              		.cfi_offset 14, -4
1004:.\Generated_Source\PSoC5/CapSense.c ****     CapSense_csv = 0u;
 685              		.loc 1 1004 0
 686 0002 0022     		movs	r2, #0
 687 0004 0A4B     		ldr	r3, .L50
 688 0006 1A70     		strb	r2, [r3]
1005:.\Generated_Source\PSoC5/CapSense.c ****     CapSense_sensorIndex = 0xFFu;
 689              		.loc 1 1005 0
 690 0008 0A4C     		ldr	r4, .L50+4
 691 000a FF23     		movs	r3, #255
 692 000c 2370     		strb	r3, [r4]
1009:.\Generated_Source\PSoC5/CapSense.c ****         CapSense_sensorIndex = CapSense_FindNextSensor(CapSense_sensorIndex);
 693              		.loc 1 1009 0
 694 000e 2078     		ldrb	r0, [r4]	@ zero_extendqisi2
 695 0010 FFF7FEFF 		bl	CapSense_FindNextSensor
 696              	.LVL62:
 697 0014 2070     		strb	r0, [r4]
1012:.\Generated_Source\PSoC5/CapSense.c ****         if(CapSense_sensorIndex < CapSense_TOTAL_SENSOR_COUNT)
 698              		.loc 1 1012 0
 699 0016 2378     		ldrb	r3, [r4]	@ zero_extendqisi2
 700 0018 DBB2     		uxtb	r3, r3
 701 001a 022B     		cmp	r3, #2
 702 001c 07D8     		bhi	.L48
1014:.\Generated_Source\PSoC5/CapSense.c ****             CapSense_csv |= CapSense_SW_STS_BUSY;
 703              		.loc 1 1014 0
 704 001e 044B     		ldr	r3, .L50
 705 0020 1A78     		ldrb	r2, [r3]	@ zero_extendqisi2
 706 0022 42F00102 		orr	r2, r2, #1
 707 0026 1A70     		strb	r2, [r3]
1015:.\Generated_Source\PSoC5/CapSense.c ****             CapSense_PreScan(CapSense_sensorIndex);
 708              		.loc 1 1015 0
 709 0028 2078     		ldrb	r0, [r4]	@ zero_extendqisi2
 710 002a FFF7FEFF 		bl	CapSense_PreScan
 711              	.LVL63:
 712              	.L48:
 713 002e 10BD     		pop	{r4, pc}
 714              	.L51:
 715              		.align	2
 716              	.L50:
 717 0030 00000000 		.word	CapSense_csv
 718 0034 00000000 		.word	CapSense_sensorIndex
 719              		.cfi_endproc
 720              	.LFE7:
 721              		.size	CapSense_ScanEnabledWidgets, .-CapSense_ScanEnabledWidgets
 722              		.section	.text.CapSense_GetPrescaler,"ax",%progbits
 723              		.align	2
ARM GAS  C:\Users\Xwx47\AppData\Local\Temp\ccKXpbtH.s 			page 47


 724              		.global	CapSense_GetPrescaler
 725              		.thumb
 726              		.thumb_func
 727              		.type	CapSense_GetPrescaler, %function
 728              	CapSense_GetPrescaler:
 729              	.LFB16:
1855:.\Generated_Source\PSoC5/CapSense.c ****         #elif (CapSense_PRESCALER_OPTIONS == CapSense_PRESCALER_FF)
1856:.\Generated_Source\PSoC5/CapSense.c ****             CY_SET_REG16(CapSense_PRESCALER_PERIOD_PTR, (uint16) prescaler);
1857:.\Generated_Source\PSoC5/CapSense.c ****             CY_SET_REG16(CapSense_PRESCALER_COMPARE_PTR, (uint16) (prescaler >> 1u));
1858:.\Generated_Source\PSoC5/CapSense.c ****         #else
1859:.\Generated_Source\PSoC5/CapSense.c ****             /* Do nothing = config without prescaler */
1860:.\Generated_Source\PSoC5/CapSense.c ****         #endif  /* (CapSense_PRESCALER_OPTIONS == CapSense_PRESCALER_UDB) */
1861:.\Generated_Source\PSoC5/CapSense.c ****     }
1862:.\Generated_Source\PSoC5/CapSense.c **** 
1863:.\Generated_Source\PSoC5/CapSense.c **** 
1864:.\Generated_Source\PSoC5/CapSense.c ****     /*******************************************************************************
1865:.\Generated_Source\PSoC5/CapSense.c ****     * Function Name: CapSense_GetPrescaler
1866:.\Generated_Source\PSoC5/CapSense.c ****     ********************************************************************************
1867:.\Generated_Source\PSoC5/CapSense.c ****     *
1868:.\Generated_Source\PSoC5/CapSense.c ****     * Summary:
1869:.\Generated_Source\PSoC5/CapSense.c ****     *  Gets analog switch divider.
1870:.\Generated_Source\PSoC5/CapSense.c ****     *
1871:.\Generated_Source\PSoC5/CapSense.c ****     * Parameters:
1872:.\Generated_Source\PSoC5/CapSense.c ****     *  None
1873:.\Generated_Source\PSoC5/CapSense.c ****     *
1874:.\Generated_Source\PSoC5/CapSense.c ****     * Return:
1875:.\Generated_Source\PSoC5/CapSense.c ****     *   Returns the prescaler divider value.
1876:.\Generated_Source\PSoC5/CapSense.c ****     *
1877:.\Generated_Source\PSoC5/CapSense.c ****     *******************************************************************************/
1878:.\Generated_Source\PSoC5/CapSense.c ****     uint8 CapSense_GetPrescaler(void) 
1879:.\Generated_Source\PSoC5/CapSense.c ****     {
 730              		.loc 1 1879 0
 731              		.cfi_startproc
 732              		@ args = 0, pretend = 0, frame = 0
 733              		@ frame_needed = 0, uses_anonymous_args = 0
 734              		@ link register save eliminated.
 735              	.LVL64:
1880:.\Generated_Source\PSoC5/CapSense.c ****         uint8 prescaler = 0u;
1881:.\Generated_Source\PSoC5/CapSense.c **** 
1882:.\Generated_Source\PSoC5/CapSense.c ****         /* Get Prescaler */
1883:.\Generated_Source\PSoC5/CapSense.c ****         #if (CapSense_PRESCALER_OPTIONS == CapSense_PRESCALER_UDB)
1884:.\Generated_Source\PSoC5/CapSense.c ****             prescaler = CapSense_PRESCALER_PERIOD_REG;
 736              		.loc 1 1884 0
 737 0000 014B     		ldr	r3, .L53
 738 0002 1878     		ldrb	r0, [r3]	@ zero_extendqisi2
 739              	.LVL65:
1885:.\Generated_Source\PSoC5/CapSense.c ****             
1886:.\Generated_Source\PSoC5/CapSense.c ****         #elif (CapSense_PRESCALER_OPTIONS == CapSense_PRESCALER_FF)
1887:.\Generated_Source\PSoC5/CapSense.c ****             prescaler = (uint8) CY_GET_REG16(CapSense_PRESCALER_PERIOD_PTR);
1888:.\Generated_Source\PSoC5/CapSense.c ****             
1889:.\Generated_Source\PSoC5/CapSense.c ****         #else
1890:.\Generated_Source\PSoC5/CapSense.c ****             /* Do nothing = config without prescaler */
1891:.\Generated_Source\PSoC5/CapSense.c ****         #endif  /* (CapSense_PRESCALER_OPTIONS == CapSense_PRESCALER_UDB) */
1892:.\Generated_Source\PSoC5/CapSense.c ****         
1893:.\Generated_Source\PSoC5/CapSense.c ****         return (prescaler);
1894:.\Generated_Source\PSoC5/CapSense.c ****     }
 740              		.loc 1 1894 0
ARM GAS  C:\Users\Xwx47\AppData\Local\Temp\ccKXpbtH.s 			page 48


 741 0004 7047     		bx	lr
 742              	.L54:
 743 0006 00BF     		.align	2
 744              	.L53:
 745 0008 29640040 		.word	1073767465
 746              		.cfi_endproc
 747              	.LFE16:
 748              		.size	CapSense_GetPrescaler, .-CapSense_GetPrescaler
 749              		.section	.text.CapSense_SetScanSpeed,"ax",%progbits
 750              		.align	2
 751              		.global	CapSense_SetScanSpeed
 752              		.thumb
 753              		.thumb_func
 754              		.type	CapSense_SetScanSpeed, %function
 755              	CapSense_SetScanSpeed:
 756              	.LFB17:
1895:.\Generated_Source\PSoC5/CapSense.c **** #endif  /* CapSense_PRESCALER_OPTIONS */
1896:.\Generated_Source\PSoC5/CapSense.c **** 
1897:.\Generated_Source\PSoC5/CapSense.c **** 
1898:.\Generated_Source\PSoC5/CapSense.c **** /*******************************************************************************
1899:.\Generated_Source\PSoC5/CapSense.c **** * Function Name: CapSense_SetScanSpeed
1900:.\Generated_Source\PSoC5/CapSense.c **** ********************************************************************************
1901:.\Generated_Source\PSoC5/CapSense.c **** *
1902:.\Generated_Source\PSoC5/CapSense.c **** * Summary:
1903:.\Generated_Source\PSoC5/CapSense.c **** *  Sets ScanSpeed divider.
1904:.\Generated_Source\PSoC5/CapSense.c **** *
1905:.\Generated_Source\PSoC5/CapSense.c **** * Parameters:
1906:.\Generated_Source\PSoC5/CapSense.c **** *  scanspeed:  Sets ScanSpeed divider.
1907:.\Generated_Source\PSoC5/CapSense.c **** *
1908:.\Generated_Source\PSoC5/CapSense.c **** * Return:
1909:.\Generated_Source\PSoC5/CapSense.c **** *  None
1910:.\Generated_Source\PSoC5/CapSense.c **** *
1911:.\Generated_Source\PSoC5/CapSense.c **** *******************************************************************************/
1912:.\Generated_Source\PSoC5/CapSense.c **** void CapSense_SetScanSpeed(uint8 scanSpeed) 
1913:.\Generated_Source\PSoC5/CapSense.c **** {
 757              		.loc 1 1913 0
 758              		.cfi_startproc
 759              		@ args = 0, pretend = 0, frame = 0
 760              		@ frame_needed = 0, uses_anonymous_args = 0
 761              		@ link register save eliminated.
 762              	.LVL66:
1914:.\Generated_Source\PSoC5/CapSense.c ****     CapSense_SCANSPEED_PERIOD_REG = scanSpeed; 
 763              		.loc 1 1914 0
 764 0000 014B     		ldr	r3, .L56
 765 0002 1870     		strb	r0, [r3]
 766 0004 7047     		bx	lr
 767              	.L57:
 768 0006 00BF     		.align	2
 769              	.L56:
 770 0008 89640040 		.word	1073767561
 771              		.cfi_endproc
 772              	.LFE17:
 773              		.size	CapSense_SetScanSpeed, .-CapSense_SetScanSpeed
 774              		.section	.text.CapSense_SetAnalogSwitchesSource,"ax",%progbits
 775              		.align	2
 776              		.global	CapSense_SetAnalogSwitchesSource
 777              		.thumb
ARM GAS  C:\Users\Xwx47\AppData\Local\Temp\ccKXpbtH.s 			page 49


 778              		.thumb_func
 779              		.type	CapSense_SetAnalogSwitchesSource, %function
 780              	CapSense_SetAnalogSwitchesSource:
 781              	.LFB18:
1915:.\Generated_Source\PSoC5/CapSense.c **** }
1916:.\Generated_Source\PSoC5/CapSense.c **** 
1917:.\Generated_Source\PSoC5/CapSense.c **** 
1918:.\Generated_Source\PSoC5/CapSense.c **** #if (CapSense_PRS_OPTIONS)
1919:.\Generated_Source\PSoC5/CapSense.c ****     /*******************************************************************************
1920:.\Generated_Source\PSoC5/CapSense.c ****     * Function Name: CapSense_SetAnalogSwitchesSource
1921:.\Generated_Source\PSoC5/CapSense.c ****     ********************************************************************************
1922:.\Generated_Source\PSoC5/CapSense.c ****     *
1923:.\Generated_Source\PSoC5/CapSense.c ****     * Summary:
1924:.\Generated_Source\PSoC5/CapSense.c ****     *  Selects the Analog switches source between PRS and prescaler. It is useful
1925:.\Generated_Source\PSoC5/CapSense.c ****     *  for sensor capacitance determination for sensors with low self-capacitance.
1926:.\Generated_Source\PSoC5/CapSense.c ****     *  This function is used in auto-tuning procedure.
1927:.\Generated_Source\PSoC5/CapSense.c ****     *
1928:.\Generated_Source\PSoC5/CapSense.c ****     * Parameters:
1929:.\Generated_Source\PSoC5/CapSense.c ****     *  src:  analog switches source:
1930:.\Generated_Source\PSoC5/CapSense.c ****     *           CapSense_ANALOG_SWITCHES_SRC_PRESCALER - selects prescaler
1931:.\Generated_Source\PSoC5/CapSense.c ****     *           CapSense_ANALOG_SWITCHES_SRC_PRS - selects PRS
1932:.\Generated_Source\PSoC5/CapSense.c ****     *
1933:.\Generated_Source\PSoC5/CapSense.c ****     * Return:
1934:.\Generated_Source\PSoC5/CapSense.c ****     *  None
1935:.\Generated_Source\PSoC5/CapSense.c ****     *
1936:.\Generated_Source\PSoC5/CapSense.c ****     * Reentrant:
1937:.\Generated_Source\PSoC5/CapSense.c ****     *  No
1938:.\Generated_Source\PSoC5/CapSense.c ****     *******************************************************************************/
1939:.\Generated_Source\PSoC5/CapSense.c ****     void CapSense_SetAnalogSwitchesSource(uint8 src)
1940:.\Generated_Source\PSoC5/CapSense.c ****                       
1941:.\Generated_Source\PSoC5/CapSense.c ****     {
 782              		.loc 1 1941 0
 783              		.cfi_startproc
 784              		@ args = 0, pretend = 0, frame = 0
 785              		@ frame_needed = 0, uses_anonymous_args = 0
 786              		@ link register save eliminated.
 787              	.LVL67:
1942:.\Generated_Source\PSoC5/CapSense.c ****         if(src == CapSense_ANALOG_SWITCHES_SRC_PRESCALER)
 788              		.loc 1 1942 0
 789 0000 0128     		cmp	r0, #1
 790 0002 05D1     		bne	.L59
1943:.\Generated_Source\PSoC5/CapSense.c ****         {
1944:.\Generated_Source\PSoC5/CapSense.c ****             CapSense_CONTROL_REG &= (uint8)~0x10u;
 791              		.loc 1 1944 0
 792 0004 054B     		ldr	r3, .L61
 793 0006 1A78     		ldrb	r2, [r3]	@ zero_extendqisi2
 794 0008 02F0EF02 		and	r2, r2, #239
 795 000c 1A70     		strb	r2, [r3]
 796 000e 7047     		bx	lr
 797              	.L59:
1945:.\Generated_Source\PSoC5/CapSense.c ****         }
1946:.\Generated_Source\PSoC5/CapSense.c ****         else
1947:.\Generated_Source\PSoC5/CapSense.c ****         {
1948:.\Generated_Source\PSoC5/CapSense.c ****             CapSense_CONTROL_REG |= 0x10u;
 798              		.loc 1 1948 0
 799 0010 024B     		ldr	r3, .L61
 800 0012 1A78     		ldrb	r2, [r3]	@ zero_extendqisi2
ARM GAS  C:\Users\Xwx47\AppData\Local\Temp\ccKXpbtH.s 			page 50


 801 0014 42F01002 		orr	r2, r2, #16
 802 0018 1A70     		strb	r2, [r3]
 803 001a 7047     		bx	lr
 804              	.L62:
 805              		.align	2
 806              	.L61:
 807 001c 7A640040 		.word	1073767546
 808              		.cfi_endproc
 809              	.LFE18:
 810              		.size	CapSense_SetAnalogSwitchesSource, .-CapSense_SetAnalogSwitchesSource
 811              		.section	.text.CapSense_Init,"ax",%progbits
 812              		.align	2
 813              		.global	CapSense_Init
 814              		.thumb
 815              		.thumb_func
 816              		.type	CapSense_Init, %function
 817              	CapSense_Init:
 818              	.LFB0:
 106:.\Generated_Source\PSoC5/CapSense.c **** {
 819              		.loc 1 106 0
 820              		.cfi_startproc
 821              		@ args = 0, pretend = 0, frame = 0
 822              		@ frame_needed = 0, uses_anonymous_args = 0
 823 0000 38B5     		push	{r3, r4, r5, lr}
 824              		.cfi_def_cfa_offset 16
 825              		.cfi_offset 3, -16
 826              		.cfi_offset 4, -12
 827              		.cfi_offset 5, -8
 828              		.cfi_offset 14, -4
 120:.\Generated_Source\PSoC5/CapSense.c ****     CapSense_ClearSensors();
 829              		.loc 1 120 0
 830 0002 FFF7FEFF 		bl	CapSense_ClearSensors
 831              	.LVL68:
 136:.\Generated_Source\PSoC5/CapSense.c ****         CapSense_SetAnalogSwitchesSource(CapSense_ANALOG_SWITCHES_SRC_PRS);
 832              		.loc 1 136 0
 833 0006 0220     		movs	r0, #2
 834 0008 FFF7FEFF 		bl	CapSense_SetAnalogSwitchesSource
 835              	.LVL69:
 152:.\Generated_Source\PSoC5/CapSense.c ****         enableInterrupts = CyEnterCriticalSection();  
 836              		.loc 1 152 0
 837 000c FFF7FEFF 		bl	CyEnterCriticalSection
 838              	.LVL70:
 153:.\Generated_Source\PSoC5/CapSense.c ****         CapSense_AUX_CONTROL_A_REG |= CapSense_AUXCTRL_FIFO_SINGLE_REG;
 839              		.loc 1 153 0
 840 0010 2E4B     		ldr	r3, .L64
 841 0012 1A78     		ldrb	r2, [r3]	@ zero_extendqisi2
 842 0014 42F00302 		orr	r2, r2, #3
 843 0018 1A70     		strb	r2, [r3]
 154:.\Generated_Source\PSoC5/CapSense.c ****         CapSense_AUX_CONTROL_B_REG |= CapSense_AUXCTRL_FIFO_SINGLE_REG;
 844              		.loc 1 154 0
 845 001a 0133     		adds	r3, r3, #1
 846 001c 1A78     		ldrb	r2, [r3]	@ zero_extendqisi2
 847 001e 42F00302 		orr	r2, r2, #3
 848 0022 1A70     		strb	r2, [r3]
 155:.\Generated_Source\PSoC5/CapSense.c ****         CyExitCriticalSection(enableInterrupts);
 849              		.loc 1 155 0
 850 0024 FFF7FEFF 		bl	CyExitCriticalSection
ARM GAS  C:\Users\Xwx47\AppData\Local\Temp\ccKXpbtH.s 			page 51


 851              	.LVL71:
 158:.\Generated_Source\PSoC5/CapSense.c ****         CY_SET_REG16(CapSense_POLYNOM_PTR, CapSense_PRS16_DEFAULT_POLYNOM);
 852              		.loc 1 158 0
 853 0028 4FF43442 		mov	r2, #46080
 854 002c 284B     		ldr	r3, .L64+4
 855 002e 1A80     		strh	r2, [r3]	@ movhi
 160:.\Generated_Source\PSoC5/CapSense.c ****         CY_SET_REG16(CapSense_SEED_COPY_PTR, CapSense_MEASURE_FULL_RANGE);
 856              		.loc 1 160 0
 857 0030 4FF6FF75 		movw	r5, #65535
 858 0034 2033     		adds	r3, r3, #32
 859 0036 1D80     		strh	r5, [r3]	@ movhi
 180:.\Generated_Source\PSoC5/CapSense.c ****     CapSense_SCANSPEED_PERIOD_REG = CapSense_SCANSPEED_VALUE;
 860              		.loc 1 180 0
 861 0038 0724     		movs	r4, #7
 862 003a 3F33     		adds	r3, r3, #63
 863 003c 1C70     		strb	r4, [r3]
 196:.\Generated_Source\PSoC5/CapSense.c ****         enableInterrupts = CyEnterCriticalSection();
 864              		.loc 1 196 0
 865 003e FFF7FEFF 		bl	CyEnterCriticalSection
 866              	.LVL72:
 197:.\Generated_Source\PSoC5/CapSense.c ****         CapSense_PWM_CH0_AUX_CONTROL_REG |= CapSense_AUXCTRL_FIFO_SINGLE_REG;
 867              		.loc 1 197 0
 868 0042 244B     		ldr	r3, .L64+8
 869 0044 1A78     		ldrb	r2, [r3]	@ zero_extendqisi2
 870 0046 42F00302 		orr	r2, r2, #3
 871 004a 1A70     		strb	r2, [r3]
 198:.\Generated_Source\PSoC5/CapSense.c ****         CapSense_RAW_CH0_AUX_CONTROL_REG |= CapSense_AUXCTRL_FIFO_SINGLE_REG;
 872              		.loc 1 198 0
 873 004c 0133     		adds	r3, r3, #1
 874 004e 1A78     		ldrb	r2, [r3]	@ zero_extendqisi2
 875 0050 42F00302 		orr	r2, r2, #3
 876 0054 1A70     		strb	r2, [r3]
 199:.\Generated_Source\PSoC5/CapSense.c ****         CyExitCriticalSection(enableInterrupts);
 877              		.loc 1 199 0
 878 0056 FFF7FEFF 		bl	CyExitCriticalSection
 879              	.LVL73:
 202:.\Generated_Source\PSoC5/CapSense.c ****         CapSense_PWM_CH0_ADD_VALUE_REG    = CapSense_MEASURE_FULL_RANGE_LOW;
 880              		.loc 1 202 0
 881 005a FF23     		movs	r3, #255
 882 005c 1E4A     		ldr	r2, .L64+12
 883 005e 1570     		strb	r5, [r2]
 203:.\Generated_Source\PSoC5/CapSense.c ****         CapSense_PWM_CH0_PERIOD_LO_REG    = CapSense_MEASURE_FULL_RANGE_LOW;
 884              		.loc 1 203 0
 885 0060 2032     		adds	r2, r2, #32
 886 0062 1370     		strb	r3, [r2]
 204:.\Generated_Source\PSoC5/CapSense.c ****         CapSense_PWM_CH0_COUNTER_LO_REG   = CapSense_MEASURE_FULL_RANGE_LOW;
 887              		.loc 1 204 0
 888 0064 403A     		subs	r2, r2, #64
 889 0066 1370     		strb	r3, [r2]
 207:.\Generated_Source\PSoC5/CapSense.c ****         CapSense_RAW_CH0_ADD_VALUE_REG    = CapSense_MEASURE_FULL_RANGE_LOW;
 890              		.loc 1 207 0
 891 0068 2132     		adds	r2, r2, #33
 892 006a 1370     		strb	r3, [r2]
 208:.\Generated_Source\PSoC5/CapSense.c ****         CapSense_RAW_CH0_PERIOD_HI_REG    = CapSense_MEASURE_FULL_RANGE_LOW;
 893              		.loc 1 208 0
 894 006c 3032     		adds	r2, r2, #48
 895 006e 1370     		strb	r3, [r2]
ARM GAS  C:\Users\Xwx47\AppData\Local\Temp\ccKXpbtH.s 			page 52


 209:.\Generated_Source\PSoC5/CapSense.c ****         CapSense_RAW_CH0_PERIOD_LO_REG    = CapSense_MEASURE_FULL_RANGE_LOW;
 896              		.loc 1 209 0
 897 0070 103A     		subs	r2, r2, #16
 898 0072 1370     		strb	r3, [r2]
 248:.\Generated_Source\PSoC5/CapSense.c ****     CyIntDisable(CapSense_IsrCH0_ISR_NUMBER);
 899              		.loc 1 248 0
 900 0074 0122     		movs	r2, #1
 901 0076 03F1E023 		add	r3, r3, #-536813568
 902 007a 8133     		adds	r3, r3, #129
 903 007c 1A60     		str	r2, [r3]
 249:.\Generated_Source\PSoC5/CapSense.c ****     (void)CyIntSetVector(CapSense_IsrCH0_ISR_NUMBER, &CapSense_IsrCH0_ISR);
 904              		.loc 1 249 0
 905 007e 0020     		movs	r0, #0
 906 0080 1649     		ldr	r1, .L64+16
 907 0082 FFF7FEFF 		bl	CyIntSetVector
 908              	.LVL74:
 250:.\Generated_Source\PSoC5/CapSense.c ****     CyIntSetPriority(CapSense_IsrCH0_ISR_NUMBER, CapSense_IsrCH0_ISR_PRIORITY);
 909              		.loc 1 250 0
 910 0086 0020     		movs	r0, #0
 911 0088 2146     		mov	r1, r4
 912 008a FFF7FEFF 		bl	CyIntSetPriority
 913              	.LVL75:
 259:.\Generated_Source\PSoC5/CapSense.c ****     CapSense_AMuxCH0_Init();
 914              		.loc 1 259 0
 915 008e FFF7FEFF 		bl	CapSense_AMuxCH0_Init
 916              	.LVL76:
 260:.\Generated_Source\PSoC5/CapSense.c ****     CapSense_AMuxCH0_Connect(CapSense_AMuxCH0_CMOD_CHANNEL);
 917              		.loc 1 260 0
 918 0092 0320     		movs	r0, #3
 919 0094 FFF7FEFF 		bl	CapSense_AMuxCH0_Set
 920              	.LVL77:
 261:.\Generated_Source\PSoC5/CapSense.c ****     CapSense_AMuxCH0_Connect(CapSense_AMuxCH0_CMP_VP_CHANNEL);
 921              		.loc 1 261 0
 922 0098 0420     		movs	r0, #4
 923 009a FFF7FEFF 		bl	CapSense_AMuxCH0_Set
 924              	.LVL78:
 263:.\Generated_Source\PSoC5/CapSense.c ****         CapSense_AMuxCH0_Connect(CapSense_AMuxCH0_IDAC_CHANNEL);
 925              		.loc 1 263 0
 926 009e 0520     		movs	r0, #5
 927 00a0 FFF7FEFF 		bl	CapSense_AMuxCH0_Set
 928              	.LVL79:
 281:.\Generated_Source\PSoC5/CapSense.c ****     CapSense_CONTROL_REG |= CapSense_CTRL_WINDOW_EN__CH0;
 929              		.loc 1 281 0
 930 00a4 0E4B     		ldr	r3, .L64+20
 931 00a6 1A78     		ldrb	r2, [r3]	@ zero_extendqisi2
 932 00a8 42F00402 		orr	r2, r2, #4
 933 00ac 1A70     		strb	r2, [r3]
 287:.\Generated_Source\PSoC5/CapSense.c ****     CapSense_CompCH0_Init();
 934              		.loc 1 287 0
 935 00ae FFF7FEFF 		bl	CapSense_CompCH0_Init
 936              	.LVL80:
 289:.\Generated_Source\PSoC5/CapSense.c ****         CapSense_IdacCH0_Init();
 937              		.loc 1 289 0
 938 00b2 FFF7FEFF 		bl	CapSense_IdacCH0_Init
 939              	.LVL81:
 290:.\Generated_Source\PSoC5/CapSense.c ****         CapSense_IdacCH0_SetPolarity(CapSense_IdacCH0_IDIR);
 940              		.loc 1 290 0
ARM GAS  C:\Users\Xwx47\AppData\Local\Temp\ccKXpbtH.s 			page 53


 941 00b6 0020     		movs	r0, #0
 942 00b8 FFF7FEFF 		bl	CapSense_IdacCH0_SetPolarity
 943              	.LVL82:
 291:.\Generated_Source\PSoC5/CapSense.c ****         CapSense_IdacCH0_SetRange(CapSense_IDAC_RANGE_VALUE);
 944              		.loc 1 291 0
 945 00bc 0420     		movs	r0, #4
 946 00be FFF7FEFF 		bl	CapSense_IdacCH0_SetRange
 947              	.LVL83:
 292:.\Generated_Source\PSoC5/CapSense.c ****         CapSense_IdacCH0_SetValue(CapSense_TURN_OFF_IDAC);
 948              		.loc 1 292 0
 949 00c2 0020     		movs	r0, #0
 950 00c4 FFF7FEFF 		bl	CapSense_IdacCH0_SetValue
 951              	.LVL84:
 952 00c8 38BD     		pop	{r3, r4, r5, pc}
 953              	.L65:
 954 00ca 00BF     		.align	2
 955              	.L64:
 956 00cc 9A640040 		.word	1073767578
 957 00d0 2A640040 		.word	1073767466
 958 00d4 9C640040 		.word	1073767580
 959 00d8 2C640040 		.word	1073767468
 960 00dc 00000000 		.word	CapSense_IsrCH0_ISR
 961 00e0 7A640040 		.word	1073767546
 962              		.cfi_endproc
 963              	.LFE0:
 964              		.size	CapSense_Init, .-CapSense_Init
 965              		.section	.text.CapSense_Start,"ax",%progbits
 966              		.align	2
 967              		.global	CapSense_Start
 968              		.thumb
 969              		.thumb_func
 970              		.type	CapSense_Start, %function
 971              	CapSense_Start:
 972              	.LFB2:
 484:.\Generated_Source\PSoC5/CapSense.c **** {
 973              		.loc 1 484 0
 974              		.cfi_startproc
 975              		@ args = 0, pretend = 0, frame = 0
 976              		@ frame_needed = 0, uses_anonymous_args = 0
 977 0000 08B5     		push	{r3, lr}
 978              		.cfi_def_cfa_offset 8
 979              		.cfi_offset 3, -8
 980              		.cfi_offset 14, -4
 485:.\Generated_Source\PSoC5/CapSense.c ****     if (CapSense_initVar == 0u)
 981              		.loc 1 485 0
 982 0002 084B     		ldr	r3, .L68
 983 0004 1B78     		ldrb	r3, [r3]	@ zero_extendqisi2
 984 0006 23B9     		cbnz	r3, .L67
 487:.\Generated_Source\PSoC5/CapSense.c ****         CapSense_Init();
 985              		.loc 1 487 0
 986 0008 FFF7FEFF 		bl	CapSense_Init
 987              	.LVL85:
 488:.\Generated_Source\PSoC5/CapSense.c ****         CapSense_initVar = 1u;
 988              		.loc 1 488 0
 989 000c 0122     		movs	r2, #1
 990 000e 054B     		ldr	r3, .L68
 991 0010 1A70     		strb	r2, [r3]
ARM GAS  C:\Users\Xwx47\AppData\Local\Temp\ccKXpbtH.s 			page 54


 992              	.L67:
 490:.\Generated_Source\PSoC5/CapSense.c ****     CapSense_Enable();
 993              		.loc 1 490 0
 994 0012 FFF7FEFF 		bl	CapSense_Enable
 995              	.LVL86:
 495:.\Generated_Source\PSoC5/CapSense.c ****         CapSense_AutoTune();
 996              		.loc 1 495 0
 997 0016 FFF7FEFF 		bl	CapSense_AutoTune
 998              	.LVL87:
 496:.\Generated_Source\PSoC5/CapSense.c ****         CapSense_lowLevelTuningDone = 1u;
 999              		.loc 1 496 0
 1000 001a 0122     		movs	r2, #1
 1001 001c 024B     		ldr	r3, .L68+4
 1002 001e DA72     		strb	r2, [r3, #11]
 1003 0020 08BD     		pop	{r3, pc}
 1004              	.L69:
 1005 0022 00BF     		.align	2
 1006              	.L68:
 1007 0024 00000000 		.word	.LANCHOR2
 1008 0028 00000000 		.word	.LANCHOR0
 1009              		.cfi_endproc
 1010              	.LFE2:
 1011              		.size	CapSense_Start, .-CapSense_Start
 1012              		.global	CapSense_widgetNumber
 1013              		.comm	CapSense_analogSwitchDivider,3,4
 1014              		.global	CapSense_widgetResolution
 1015              		.global	CapSense_idacSettings
 1016              		.global	CapSense_csTable
 1017              		.global	CapSense_maskTable
 1018              		.global	CapSense_portTable
 1019              		.global	CapSense_pcTable
 1020              		.global	CapSense_sensorEnableMask
 1021              		.comm	CapSense_sensorRaw,6,4
 1022              		.global	CapSense_lowLevelTuningDone
 1023              		.comm	CapSense_sensorIndex,1,1
 1024              		.comm	CapSense_csv,1,1
 1025              		.section	.rodata
 1026              		.align	2
 1027              		.set	.LANCHOR1,. + 0
 1028              		.type	CapSense_portTable, %object
 1029              		.size	CapSense_portTable, 3
 1030              	CapSense_portTable:
 1031 0000 01       		.byte	1
 1032 0001 01       		.byte	1
 1033 0002 01       		.byte	1
 1034 0003 00       		.space	1
 1035              		.type	CapSense_maskTable, %object
 1036              		.size	CapSense_maskTable, 3
 1037              	CapSense_maskTable:
 1038 0004 40       		.byte	64
 1039 0005 10       		.byte	16
 1040 0006 04       		.byte	4
 1041 0007 00       		.space	1
 1042              		.type	CapSense_pcTable, %object
 1043              		.size	CapSense_pcTable, 12
 1044              	CapSense_pcTable:
 1045 0008 0E500040 		.word	1073762318
ARM GAS  C:\Users\Xwx47\AppData\Local\Temp\ccKXpbtH.s 			page 55


 1046 000c 0C500040 		.word	1073762316
 1047 0010 0A500040 		.word	1073762314
 1048              		.type	CapSense_csTable, %object
 1049              		.size	CapSense_csTable, 32
 1050              	CapSense_csTable:
 1051 0014 06520040 		.word	1073762822
 1052 0018 0E520040 		.word	1073762830
 1053 001c 16520040 		.word	1073762838
 1054 0020 1E520040 		.word	1073762846
 1055 0024 26520040 		.word	1073762854
 1056 0028 2E520040 		.word	1073762862
 1057 002c 36520040 		.word	1073762870
 1058 0030 7E520040 		.word	1073762942
 1059              		.type	CapSense_widgetNumber, %object
 1060              		.size	CapSense_widgetNumber, 3
 1061              	CapSense_widgetNumber:
 1062 0034 00       		.byte	0
 1063 0035 01       		.byte	1
 1064 0036 02       		.byte	2
 1065 0037 00       		.data
 1066              		.align	2
 1067              		.set	.LANCHOR0,. + 0
 1068              		.type	CapSense_sensorEnableMask, %object
 1069              		.size	CapSense_sensorEnableMask, 1
 1070              	CapSense_sensorEnableMask:
 1071 0000 07       		.byte	7
 1072 0001 000000   		.space	3
 1073              		.type	CapSense_idacSettings, %object
 1074              		.size	CapSense_idacSettings, 3
 1075              	CapSense_idacSettings:
 1076 0004 C8       		.byte	-56
 1077 0005 C8       		.byte	-56
 1078 0006 C8       		.byte	-56
 1079 0007 00       		.space	1
 1080              		.type	CapSense_widgetResolution, %object
 1081              		.size	CapSense_widgetResolution, 3
 1082              	CapSense_widgetResolution:
 1083 0008 03       		.byte	3
 1084 0009 03       		.byte	3
 1085 000a 03       		.byte	3
 1086              		.type	CapSense_lowLevelTuningDone, %object
 1087              		.size	CapSense_lowLevelTuningDone, 1
 1088              	CapSense_lowLevelTuningDone:
 1089 000b 01       		.byte	1
 1090              		.bss
 1091              		.set	.LANCHOR2,. + 0
 1092              		.type	CapSense_initVar, %object
 1093              		.size	CapSense_initVar, 1
 1094              	CapSense_initVar:
 1095 0000 00       		.space	1
 1096              		.text
 1097              	.Letext0:
 1098              		.file 2 ".\\Generated_Source\\PSoC5\\cytypes.h"
 1099              		.file 3 ".\\Generated_Source\\PSoC5\\CapSense_IntClock.h"
 1100              		.file 4 ".\\Generated_Source\\PSoC5\\CapSense_CompCH0.h"
 1101              		.file 5 ".\\Generated_Source\\PSoC5\\CapSense_IdacCH0.h"
 1102              		.file 6 ".\\Generated_Source\\PSoC5\\CyLib.h"
ARM GAS  C:\Users\Xwx47\AppData\Local\Temp\ccKXpbtH.s 			page 56


 1103              		.file 7 ".\\Generated_Source\\PSoC5\\cyfitter_cfg.h"
 1104              		.file 8 ".\\Generated_Source\\PSoC5\\CapSense_AMuxCH0.h"
 1105              		.file 9 ".\\Generated_Source\\PSoC5\\CapSense.h"