ARM GAS  C:\Users\Xwx47\AppData\Local\Temp\ccWb8HJO.s 			page 1


   1              		.syntax unified
   2              		.cpu cortex-m3
   3              		.fpu softvfp
   4              		.eabi_attribute 20, 1
   5              		.eabi_attribute 21, 1
   6              		.eabi_attribute 23, 3
   7              		.eabi_attribute 24, 1
   8              		.eabi_attribute 25, 1
   9              		.eabi_attribute 26, 1
  10              		.eabi_attribute 30, 1
  11              		.eabi_attribute 34, 1
  12              		.eabi_attribute 18, 4
  13              		.thumb
  14              		.file	"cyfitter_cfg.c"
  15              		.text
  16              	.Ltext0:
  17              		.cfi_sections	.debug_frame
  18              		.section	.text.CyClockStartupError,"ax",%progbits
  19              		.align	2
  20              		.thumb
  21              		.thumb_func
  22              		.type	CyClockStartupError, %function
  23              	CyClockStartupError:
  24              	.LFB3:
  25              		.file 1 ".\\Generated_Source\\PSoC5\\cyfitter_cfg.c"
   1:.\Generated_Source\PSoC5/cyfitter_cfg.c **** /*******************************************************************************
   2:.\Generated_Source\PSoC5/cyfitter_cfg.c **** * FILENAME: cyfitter_cfg.c
   3:.\Generated_Source\PSoC5/cyfitter_cfg.c **** * 
   4:.\Generated_Source\PSoC5/cyfitter_cfg.c **** * PSoC Creator  3.2 SP1
   5:.\Generated_Source\PSoC5/cyfitter_cfg.c **** *
   6:.\Generated_Source\PSoC5/cyfitter_cfg.c **** * DESCRIPTION:
   7:.\Generated_Source\PSoC5/cyfitter_cfg.c **** * This file contains device initialization code.
   8:.\Generated_Source\PSoC5/cyfitter_cfg.c **** * Except for the user defined sections in CyClockStartupError(), this file should not be modified.
   9:.\Generated_Source\PSoC5/cyfitter_cfg.c **** * This file is automatically generated by PSoC Creator.
  10:.\Generated_Source\PSoC5/cyfitter_cfg.c **** *
  11:.\Generated_Source\PSoC5/cyfitter_cfg.c **** ********************************************************************************
  12:.\Generated_Source\PSoC5/cyfitter_cfg.c **** * Copyright (c) 2007-2015 Cypress Semiconductor.  All rights reserved.
  13:.\Generated_Source\PSoC5/cyfitter_cfg.c **** * You may use this file only in accordance with the license, terms, conditions, 
  14:.\Generated_Source\PSoC5/cyfitter_cfg.c **** * disclaimers, and limitations in the end user license agreement accompanying 
  15:.\Generated_Source\PSoC5/cyfitter_cfg.c **** * the software package with which this file was provided.
  16:.\Generated_Source\PSoC5/cyfitter_cfg.c **** ********************************************************************************/
  17:.\Generated_Source\PSoC5/cyfitter_cfg.c **** 
  18:.\Generated_Source\PSoC5/cyfitter_cfg.c **** #include <string.h>
  19:.\Generated_Source\PSoC5/cyfitter_cfg.c **** #include "cytypes.h"
  20:.\Generated_Source\PSoC5/cyfitter_cfg.c **** #include "cydevice_trm.h"
  21:.\Generated_Source\PSoC5/cyfitter_cfg.c **** #include "cyfitter.h"
  22:.\Generated_Source\PSoC5/cyfitter_cfg.c **** #include "CyLib.h"
  23:.\Generated_Source\PSoC5/cyfitter_cfg.c **** #include "cyfitter_cfg.h"
  24:.\Generated_Source\PSoC5/cyfitter_cfg.c **** 
  25:.\Generated_Source\PSoC5/cyfitter_cfg.c **** #define CY_NEED_CYCLOCKSTARTUPERROR 1
  26:.\Generated_Source\PSoC5/cyfitter_cfg.c **** 
  27:.\Generated_Source\PSoC5/cyfitter_cfg.c **** 
  28:.\Generated_Source\PSoC5/cyfitter_cfg.c **** #if defined(__GNUC__) || defined(__ARMCC_VERSION)
  29:.\Generated_Source\PSoC5/cyfitter_cfg.c ****     #define CYPACKED 
  30:.\Generated_Source\PSoC5/cyfitter_cfg.c ****     #define CYPACKED_ATTR __attribute__ ((packed))
  31:.\Generated_Source\PSoC5/cyfitter_cfg.c ****     #define CYALIGNED __attribute__ ((aligned))
  32:.\Generated_Source\PSoC5/cyfitter_cfg.c ****     #define CY_CFG_UNUSED __attribute__ ((unused))
ARM GAS  C:\Users\Xwx47\AppData\Local\Temp\ccWb8HJO.s 			page 2


  33:.\Generated_Source\PSoC5/cyfitter_cfg.c ****     #define CY_CFG_SECTION __attribute__ ((section(".psocinit")))
  34:.\Generated_Source\PSoC5/cyfitter_cfg.c ****     
  35:.\Generated_Source\PSoC5/cyfitter_cfg.c ****     #if defined(__ARMCC_VERSION)
  36:.\Generated_Source\PSoC5/cyfitter_cfg.c ****         #define CY_CFG_MEMORY_BARRIER() __memory_changed()
  37:.\Generated_Source\PSoC5/cyfitter_cfg.c ****     #else
  38:.\Generated_Source\PSoC5/cyfitter_cfg.c ****         #define CY_CFG_MEMORY_BARRIER() __sync_synchronize()
  39:.\Generated_Source\PSoC5/cyfitter_cfg.c ****     #endif
  40:.\Generated_Source\PSoC5/cyfitter_cfg.c ****     
  41:.\Generated_Source\PSoC5/cyfitter_cfg.c **** #elif defined(__ICCARM__)
  42:.\Generated_Source\PSoC5/cyfitter_cfg.c ****     #include <intrinsics.h>
  43:.\Generated_Source\PSoC5/cyfitter_cfg.c **** 
  44:.\Generated_Source\PSoC5/cyfitter_cfg.c ****     #define CYPACKED __packed
  45:.\Generated_Source\PSoC5/cyfitter_cfg.c ****     #define CYPACKED_ATTR 
  46:.\Generated_Source\PSoC5/cyfitter_cfg.c ****     #define CYALIGNED _Pragma("data_alignment=4")
  47:.\Generated_Source\PSoC5/cyfitter_cfg.c ****     #define CY_CFG_UNUSED _Pragma("diag_suppress=Pe177")
  48:.\Generated_Source\PSoC5/cyfitter_cfg.c ****     #define CY_CFG_SECTION _Pragma("location=\".psocinit\"")
  49:.\Generated_Source\PSoC5/cyfitter_cfg.c ****     
  50:.\Generated_Source\PSoC5/cyfitter_cfg.c ****     #define CY_CFG_MEMORY_BARRIER() __DMB()
  51:.\Generated_Source\PSoC5/cyfitter_cfg.c ****     
  52:.\Generated_Source\PSoC5/cyfitter_cfg.c **** #else
  53:.\Generated_Source\PSoC5/cyfitter_cfg.c ****     #error Unsupported toolchain
  54:.\Generated_Source\PSoC5/cyfitter_cfg.c **** #endif
  55:.\Generated_Source\PSoC5/cyfitter_cfg.c **** 
  56:.\Generated_Source\PSoC5/cyfitter_cfg.c **** 
  57:.\Generated_Source\PSoC5/cyfitter_cfg.c **** CY_CFG_UNUSED
  58:.\Generated_Source\PSoC5/cyfitter_cfg.c **** static void CYMEMZERO(void *s, size_t n);
  59:.\Generated_Source\PSoC5/cyfitter_cfg.c **** CY_CFG_UNUSED
  60:.\Generated_Source\PSoC5/cyfitter_cfg.c **** static void CYMEMZERO(void *s, size_t n)
  61:.\Generated_Source\PSoC5/cyfitter_cfg.c **** {
  62:.\Generated_Source\PSoC5/cyfitter_cfg.c **** 	(void)memset(s, 0, n);
  63:.\Generated_Source\PSoC5/cyfitter_cfg.c **** }
  64:.\Generated_Source\PSoC5/cyfitter_cfg.c **** CY_CFG_UNUSED
  65:.\Generated_Source\PSoC5/cyfitter_cfg.c **** static void CYCONFIGCPY(void *dest, const void *src, size_t n);
  66:.\Generated_Source\PSoC5/cyfitter_cfg.c **** CY_CFG_UNUSED
  67:.\Generated_Source\PSoC5/cyfitter_cfg.c **** static void CYCONFIGCPY(void *dest, const void *src, size_t n)
  68:.\Generated_Source\PSoC5/cyfitter_cfg.c **** {
  69:.\Generated_Source\PSoC5/cyfitter_cfg.c **** 	(void)memcpy(dest, src, n);
  70:.\Generated_Source\PSoC5/cyfitter_cfg.c **** }
  71:.\Generated_Source\PSoC5/cyfitter_cfg.c **** CY_CFG_UNUSED
  72:.\Generated_Source\PSoC5/cyfitter_cfg.c **** static void CYCONFIGCPYCODE(void *dest, const void *src, size_t n);
  73:.\Generated_Source\PSoC5/cyfitter_cfg.c **** CY_CFG_UNUSED
  74:.\Generated_Source\PSoC5/cyfitter_cfg.c **** static void CYCONFIGCPYCODE(void *dest, const void *src, size_t n)
  75:.\Generated_Source\PSoC5/cyfitter_cfg.c **** {
  76:.\Generated_Source\PSoC5/cyfitter_cfg.c **** 	(void)memcpy(dest, src, n);
  77:.\Generated_Source\PSoC5/cyfitter_cfg.c **** }
  78:.\Generated_Source\PSoC5/cyfitter_cfg.c **** 
  79:.\Generated_Source\PSoC5/cyfitter_cfg.c **** 
  80:.\Generated_Source\PSoC5/cyfitter_cfg.c **** 
  81:.\Generated_Source\PSoC5/cyfitter_cfg.c **** /* Clock startup error codes                                                   */
  82:.\Generated_Source\PSoC5/cyfitter_cfg.c **** #define CYCLOCKSTART_NO_ERROR    0u
  83:.\Generated_Source\PSoC5/cyfitter_cfg.c **** #define CYCLOCKSTART_XTAL_ERROR  1u
  84:.\Generated_Source\PSoC5/cyfitter_cfg.c **** #define CYCLOCKSTART_32KHZ_ERROR 2u
  85:.\Generated_Source\PSoC5/cyfitter_cfg.c **** #define CYCLOCKSTART_PLL_ERROR   3u
  86:.\Generated_Source\PSoC5/cyfitter_cfg.c **** 
  87:.\Generated_Source\PSoC5/cyfitter_cfg.c **** #ifdef CY_NEED_CYCLOCKSTARTUPERROR
  88:.\Generated_Source\PSoC5/cyfitter_cfg.c **** /*******************************************************************************
  89:.\Generated_Source\PSoC5/cyfitter_cfg.c **** * Function Name: CyClockStartupError
ARM GAS  C:\Users\Xwx47\AppData\Local\Temp\ccWb8HJO.s 			page 3


  90:.\Generated_Source\PSoC5/cyfitter_cfg.c **** ********************************************************************************
  91:.\Generated_Source\PSoC5/cyfitter_cfg.c **** * Summary:
  92:.\Generated_Source\PSoC5/cyfitter_cfg.c **** *  If an error is encountered during clock configuration (crystal startup error,
  93:.\Generated_Source\PSoC5/cyfitter_cfg.c **** *  PLL lock error, etc.), the system will end up here.  Unless reimplemented by
  94:.\Generated_Source\PSoC5/cyfitter_cfg.c **** *  the customer, this function will stop in an infinite loop.
  95:.\Generated_Source\PSoC5/cyfitter_cfg.c **** *
  96:.\Generated_Source\PSoC5/cyfitter_cfg.c **** * Parameters:
  97:.\Generated_Source\PSoC5/cyfitter_cfg.c **** *   void
  98:.\Generated_Source\PSoC5/cyfitter_cfg.c **** *
  99:.\Generated_Source\PSoC5/cyfitter_cfg.c **** * Return:
 100:.\Generated_Source\PSoC5/cyfitter_cfg.c **** *   void
 101:.\Generated_Source\PSoC5/cyfitter_cfg.c **** *
 102:.\Generated_Source\PSoC5/cyfitter_cfg.c **** *******************************************************************************/
 103:.\Generated_Source\PSoC5/cyfitter_cfg.c **** CY_CFG_UNUSED
 104:.\Generated_Source\PSoC5/cyfitter_cfg.c **** static void CyClockStartupError(uint8 errorCode);
 105:.\Generated_Source\PSoC5/cyfitter_cfg.c **** CY_CFG_UNUSED
 106:.\Generated_Source\PSoC5/cyfitter_cfg.c **** static void CyClockStartupError(uint8 errorCode)
 107:.\Generated_Source\PSoC5/cyfitter_cfg.c **** {
  26              		.loc 1 107 0
  27              		.cfi_startproc
  28              		@ Volatile: function does not return.
  29              		@ args = 0, pretend = 0, frame = 0
  30              		@ frame_needed = 0, uses_anonymous_args = 0
  31              		@ link register save eliminated.
  32              	.LVL0:
  33              	.L2:
  34 0000 FEE7     		b	.L2
  35              		.cfi_endproc
  36              	.LFE3:
  37              		.size	CyClockStartupError, .-CyClockStartupError
  38 0002 00BF     		.section	.text.cfg_write_bytes32,"ax",%progbits
  39              		.align	2
  40              		.thumb
  41              		.thumb_func
  42              		.type	cfg_write_bytes32, %function
  43              	cfg_write_bytes32:
  44              	.LFB4:
 108:.\Generated_Source\PSoC5/cyfitter_cfg.c ****     /* To remove the compiler warning if errorCode not used.                */
 109:.\Generated_Source\PSoC5/cyfitter_cfg.c ****     errorCode = errorCode;
 110:.\Generated_Source\PSoC5/cyfitter_cfg.c **** 
 111:.\Generated_Source\PSoC5/cyfitter_cfg.c ****     /* `#START CyClockStartupError` */
 112:.\Generated_Source\PSoC5/cyfitter_cfg.c **** 
 113:.\Generated_Source\PSoC5/cyfitter_cfg.c ****     /* If we have a clock startup error (bad MHz crystal, PLL lock, etc.),  */
 114:.\Generated_Source\PSoC5/cyfitter_cfg.c ****     /* we will end up here to allow the customer to implement something to  */
 115:.\Generated_Source\PSoC5/cyfitter_cfg.c ****     /* deal with the clock condition.                                       */
 116:.\Generated_Source\PSoC5/cyfitter_cfg.c **** 
 117:.\Generated_Source\PSoC5/cyfitter_cfg.c ****     /* `#END` */
 118:.\Generated_Source\PSoC5/cyfitter_cfg.c **** 
 119:.\Generated_Source\PSoC5/cyfitter_cfg.c ****     /* If nothing else, stop here since the clocks have not started         */
 120:.\Generated_Source\PSoC5/cyfitter_cfg.c ****     /* correctly.                                                           */
 121:.\Generated_Source\PSoC5/cyfitter_cfg.c ****     while(1) {}
 122:.\Generated_Source\PSoC5/cyfitter_cfg.c **** }
 123:.\Generated_Source\PSoC5/cyfitter_cfg.c **** #endif
 124:.\Generated_Source\PSoC5/cyfitter_cfg.c **** 
 125:.\Generated_Source\PSoC5/cyfitter_cfg.c **** #define CY_CFG_BASE_ADDR_COUNT 20u
 126:.\Generated_Source\PSoC5/cyfitter_cfg.c **** CYPACKED typedef struct
 127:.\Generated_Source\PSoC5/cyfitter_cfg.c **** {
ARM GAS  C:\Users\Xwx47\AppData\Local\Temp\ccWb8HJO.s 			page 4


 128:.\Generated_Source\PSoC5/cyfitter_cfg.c **** 	uint8 offset;
 129:.\Generated_Source\PSoC5/cyfitter_cfg.c **** 	uint8 value;
 130:.\Generated_Source\PSoC5/cyfitter_cfg.c **** } CYPACKED_ATTR cy_cfg_addrvalue_t;
 131:.\Generated_Source\PSoC5/cyfitter_cfg.c **** 
 132:.\Generated_Source\PSoC5/cyfitter_cfg.c **** #define cy_cfg_addr_table ((const uint32 CYFAR *)0x48000000u)
 133:.\Generated_Source\PSoC5/cyfitter_cfg.c **** #define cy_cfg_data_table ((const cy_cfg_addrvalue_t CYFAR *)0x48000050u)
 134:.\Generated_Source\PSoC5/cyfitter_cfg.c **** 
 135:.\Generated_Source\PSoC5/cyfitter_cfg.c **** /* IOPINS0_8 Address: CYREG_PRT15_DM0 Size (bytes): 8 */
 136:.\Generated_Source\PSoC5/cyfitter_cfg.c **** #define BS_IOPINS0_8_VAL ((const uint8 CYFAR *)0x480002F8u)
 137:.\Generated_Source\PSoC5/cyfitter_cfg.c **** 
 138:.\Generated_Source\PSoC5/cyfitter_cfg.c **** /* IOPINS0_1 Address: CYREG_PRT1_DM0 Size (bytes): 8 */
 139:.\Generated_Source\PSoC5/cyfitter_cfg.c **** #define BS_IOPINS0_1_VAL ((const uint8 CYFAR *)0x48000300u)
 140:.\Generated_Source\PSoC5/cyfitter_cfg.c **** 
 141:.\Generated_Source\PSoC5/cyfitter_cfg.c **** /* IOPINS0_2 Address: CYREG_PRT2_DM0 Size (bytes): 8 */
 142:.\Generated_Source\PSoC5/cyfitter_cfg.c **** #define BS_IOPINS0_2_VAL ((const uint8 CYFAR *)0x48000308u)
 143:.\Generated_Source\PSoC5/cyfitter_cfg.c **** 
 144:.\Generated_Source\PSoC5/cyfitter_cfg.c **** 
 145:.\Generated_Source\PSoC5/cyfitter_cfg.c **** /*******************************************************************************
 146:.\Generated_Source\PSoC5/cyfitter_cfg.c **** * Function Name: cfg_write_bytes32
 147:.\Generated_Source\PSoC5/cyfitter_cfg.c **** ********************************************************************************
 148:.\Generated_Source\PSoC5/cyfitter_cfg.c **** * Summary:
 149:.\Generated_Source\PSoC5/cyfitter_cfg.c **** *  This function is used for setting up the chip configuration areas that
 150:.\Generated_Source\PSoC5/cyfitter_cfg.c **** *  contain relatively sparse data.
 151:.\Generated_Source\PSoC5/cyfitter_cfg.c **** *
 152:.\Generated_Source\PSoC5/cyfitter_cfg.c **** * Parameters:
 153:.\Generated_Source\PSoC5/cyfitter_cfg.c **** *   void
 154:.\Generated_Source\PSoC5/cyfitter_cfg.c **** *
 155:.\Generated_Source\PSoC5/cyfitter_cfg.c **** * Return:
 156:.\Generated_Source\PSoC5/cyfitter_cfg.c **** *   void
 157:.\Generated_Source\PSoC5/cyfitter_cfg.c **** *
 158:.\Generated_Source\PSoC5/cyfitter_cfg.c **** *******************************************************************************/
 159:.\Generated_Source\PSoC5/cyfitter_cfg.c **** static void cfg_write_bytes32(const uint32 addr_table[], const cy_cfg_addrvalue_t data_table[]);
 160:.\Generated_Source\PSoC5/cyfitter_cfg.c **** static void cfg_write_bytes32(const uint32 addr_table[], const cy_cfg_addrvalue_t data_table[])
 161:.\Generated_Source\PSoC5/cyfitter_cfg.c **** {
  45              		.loc 1 161 0
  46              		.cfi_startproc
  47              		@ args = 0, pretend = 0, frame = 0
  48              		@ frame_needed = 0, uses_anonymous_args = 0
  49              		@ link register save eliminated.
  50              	.LVL1:
  51              		.loc 1 161 0
  52 0000 F0B4     		push	{r4, r5, r6, r7}
  53              		.cfi_def_cfa_offset 16
  54              		.cfi_offset 4, -16
  55              		.cfi_offset 5, -12
  56              		.cfi_offset 6, -8
  57              		.cfi_offset 7, -4
  58              	.LVL2:
 162:.\Generated_Source\PSoC5/cyfitter_cfg.c **** 	/* For 32-bit little-endian architectures */
 163:.\Generated_Source\PSoC5/cyfitter_cfg.c **** 	uint32 i, j = 0u;
  59              		.loc 1 163 0
  60 0002 0023     		movs	r3, #0
 164:.\Generated_Source\PSoC5/cyfitter_cfg.c **** 	for (i = 0u; i < CY_CFG_BASE_ADDR_COUNT; i++)
  61              		.loc 1 164 0
  62 0004 1F46     		mov	r7, r3
  63 0006 11E0     		b	.L4
  64              	.LVL3:
ARM GAS  C:\Users\Xwx47\AppData\Local\Temp\ccWb8HJO.s 			page 5


  65              	.L7:
  66              	.LBB2:
 165:.\Generated_Source\PSoC5/cyfitter_cfg.c **** 	{
 166:.\Generated_Source\PSoC5/cyfitter_cfg.c **** 		uint32 baseAddr = addr_table[i];
  67              		.loc 1 166 0
  68 0008 50F82760 		ldr	r6, [r0, r7, lsl #2]
  69              	.LVL4:
 167:.\Generated_Source\PSoC5/cyfitter_cfg.c **** 		uint8 count = (uint8)baseAddr;
  70              		.loc 1 167 0
  71 000c F2B2     		uxtb	r2, r6
  72              	.LVL5:
 168:.\Generated_Source\PSoC5/cyfitter_cfg.c **** 		baseAddr &= 0xFFFFFF00u;
  73              		.loc 1 168 0
  74 000e 26F0FF06 		bic	r6, r6, #255
  75              	.LVL6:
 169:.\Generated_Source\PSoC5/cyfitter_cfg.c **** 		while (count != 0u)
  76              		.loc 1 169 0
  77 0012 08E0     		b	.L5
  78              	.L6:
 170:.\Generated_Source\PSoC5/cyfitter_cfg.c **** 		{
 171:.\Generated_Source\PSoC5/cyfitter_cfg.c **** 			CY_SET_XTND_REG8((void CYFAR *)(baseAddr + data_table[j].offset), data_table[j].value);
  79              		.loc 1 171 0
  80 0014 01EB4305 		add	r5, r1, r3, lsl #1
  81 0018 11F81340 		ldrb	r4, [r1, r3, lsl #1]	@ zero_extendqisi2
  82 001c 6D78     		ldrb	r5, [r5, #1]	@ zero_extendqisi2
  83 001e A555     		strb	r5, [r4, r6]
 172:.\Generated_Source\PSoC5/cyfitter_cfg.c **** 			j++;
  84              		.loc 1 172 0
  85 0020 0133     		adds	r3, r3, #1
  86              	.LVL7:
 173:.\Generated_Source\PSoC5/cyfitter_cfg.c **** 			count--;
  87              		.loc 1 173 0
  88 0022 013A     		subs	r2, r2, #1
  89              	.LVL8:
  90 0024 D2B2     		uxtb	r2, r2
  91              	.LVL9:
  92              	.L5:
 169:.\Generated_Source\PSoC5/cyfitter_cfg.c **** 		while (count != 0u)
  93              		.loc 1 169 0 discriminator 1
  94 0026 002A     		cmp	r2, #0
  95 0028 F4D1     		bne	.L6
  96              	.LBE2:
 164:.\Generated_Source\PSoC5/cyfitter_cfg.c **** 	for (i = 0u; i < CY_CFG_BASE_ADDR_COUNT; i++)
  97              		.loc 1 164 0
  98 002a 0137     		adds	r7, r7, #1
  99              	.LVL10:
 100              	.L4:
 164:.\Generated_Source\PSoC5/cyfitter_cfg.c **** 	for (i = 0u; i < CY_CFG_BASE_ADDR_COUNT; i++)
 101              		.loc 1 164 0 is_stmt 0 discriminator 1
 102 002c 132F     		cmp	r7, #19
 103 002e EBD9     		bls	.L7
 174:.\Generated_Source\PSoC5/cyfitter_cfg.c **** 		}
 175:.\Generated_Source\PSoC5/cyfitter_cfg.c **** 	}
 176:.\Generated_Source\PSoC5/cyfitter_cfg.c **** }
 104              		.loc 1 176 0 is_stmt 1
 105 0030 F0BC     		pop	{r4, r5, r6, r7}
 106              	.LVL11:
ARM GAS  C:\Users\Xwx47\AppData\Local\Temp\ccWb8HJO.s 			page 6


 107 0032 7047     		bx	lr
 108              		.cfi_endproc
 109              	.LFE4:
 110              		.size	cfg_write_bytes32, .-cfg_write_bytes32
 111              		.section	.text.AnalogSetDefault,"ax",%progbits
 112              		.align	2
 113              		.thumb
 114              		.thumb_func
 115              		.type	AnalogSetDefault, %function
 116              	AnalogSetDefault:
 117              	.LFB6:
 177:.\Generated_Source\PSoC5/cyfitter_cfg.c **** 
 178:.\Generated_Source\PSoC5/cyfitter_cfg.c **** /*******************************************************************************
 179:.\Generated_Source\PSoC5/cyfitter_cfg.c **** * Function Name: ClockSetup
 180:.\Generated_Source\PSoC5/cyfitter_cfg.c **** ********************************************************************************
 181:.\Generated_Source\PSoC5/cyfitter_cfg.c **** *
 182:.\Generated_Source\PSoC5/cyfitter_cfg.c **** * Summary:
 183:.\Generated_Source\PSoC5/cyfitter_cfg.c **** *  Performs the initialization of all of the clocks in the device based on the
 184:.\Generated_Source\PSoC5/cyfitter_cfg.c **** *  settings in the Clock tab of the DWR.  This includes enabling the requested
 185:.\Generated_Source\PSoC5/cyfitter_cfg.c **** *  clocks and setting the necessary dividers to produce the desired frequency. 
 186:.\Generated_Source\PSoC5/cyfitter_cfg.c **** *
 187:.\Generated_Source\PSoC5/cyfitter_cfg.c **** * Parameters:
 188:.\Generated_Source\PSoC5/cyfitter_cfg.c **** *  void
 189:.\Generated_Source\PSoC5/cyfitter_cfg.c **** *
 190:.\Generated_Source\PSoC5/cyfitter_cfg.c **** * Return:
 191:.\Generated_Source\PSoC5/cyfitter_cfg.c **** *  void
 192:.\Generated_Source\PSoC5/cyfitter_cfg.c **** *
 193:.\Generated_Source\PSoC5/cyfitter_cfg.c **** *******************************************************************************/
 194:.\Generated_Source\PSoC5/cyfitter_cfg.c **** static void ClockSetup(void);
 195:.\Generated_Source\PSoC5/cyfitter_cfg.c **** static void ClockSetup(void)
 196:.\Generated_Source\PSoC5/cyfitter_cfg.c **** {
 197:.\Generated_Source\PSoC5/cyfitter_cfg.c **** 	uint32 timeout;
 198:.\Generated_Source\PSoC5/cyfitter_cfg.c **** 	uint8 pllLock;
 199:.\Generated_Source\PSoC5/cyfitter_cfg.c **** 
 200:.\Generated_Source\PSoC5/cyfitter_cfg.c **** 
 201:.\Generated_Source\PSoC5/cyfitter_cfg.c **** 	/* Configure Digital Clocks based on settings from Clock DWR */
 202:.\Generated_Source\PSoC5/cyfitter_cfg.c **** 	CY_SET_XTND_REG16((void CYFAR *)(CYREG_CLKDIST_DCFG0_CFG0), 0x0001u);
 203:.\Generated_Source\PSoC5/cyfitter_cfg.c **** 	CY_SET_XTND_REG8((void CYFAR *)(CYREG_CLKDIST_DCFG0_CFG0 + 0x2u), 0x18u);
 204:.\Generated_Source\PSoC5/cyfitter_cfg.c **** 
 205:.\Generated_Source\PSoC5/cyfitter_cfg.c **** 	/* Configure ILO based on settings from Clock DWR */
 206:.\Generated_Source\PSoC5/cyfitter_cfg.c **** 	CY_SET_XTND_REG8((void CYFAR *)(CYREG_SLOWCLK_ILO_CR0), 0x02u);
 207:.\Generated_Source\PSoC5/cyfitter_cfg.c **** 	CY_SET_XTND_REG8((void CYFAR *)(CYREG_CLKDIST_CR), 0x08u);
 208:.\Generated_Source\PSoC5/cyfitter_cfg.c **** 
 209:.\Generated_Source\PSoC5/cyfitter_cfg.c **** 	/* Configure IMO based on settings from Clock DWR */
 210:.\Generated_Source\PSoC5/cyfitter_cfg.c **** 	CY_SET_XTND_REG8((void CYFAR *)(CYREG_FASTCLK_IMO_CR), 0x03u);
 211:.\Generated_Source\PSoC5/cyfitter_cfg.c **** 	CY_SET_XTND_REG8((void CYFAR *)(CYREG_IMO_TR1), (CY_GET_XTND_REG8((void CYFAR *)CYREG_FLSHID_CUST_
 212:.\Generated_Source\PSoC5/cyfitter_cfg.c **** 
 213:.\Generated_Source\PSoC5/cyfitter_cfg.c **** 	/* Configure PLL based on settings from Clock DWR */
 214:.\Generated_Source\PSoC5/cyfitter_cfg.c **** 	CY_SET_XTND_REG16((void CYFAR *)(CYREG_FASTCLK_PLL_P), 0x0008u);
 215:.\Generated_Source\PSoC5/cyfitter_cfg.c **** 	CY_SET_XTND_REG16((void CYFAR *)(CYREG_FASTCLK_PLL_CFG0), 0x1251u);
 216:.\Generated_Source\PSoC5/cyfitter_cfg.c **** 	/* Wait up to 250us for the PLL to lock */
 217:.\Generated_Source\PSoC5/cyfitter_cfg.c **** 	pllLock = 0u;
 218:.\Generated_Source\PSoC5/cyfitter_cfg.c **** 	for (timeout = 250u / 10u; (timeout > 0u) && (pllLock != 0x03u); timeout--)
 219:.\Generated_Source\PSoC5/cyfitter_cfg.c **** 	{ 
 220:.\Generated_Source\PSoC5/cyfitter_cfg.c **** 		pllLock = 0x03u & ((uint8)((uint8)pllLock << 1) | ((CY_GET_XTND_REG8((void CYFAR *)CYREG_FASTCLK_
 221:.\Generated_Source\PSoC5/cyfitter_cfg.c **** 		CyDelayCycles(10u * 48u); /* Delay 10us based on 48MHz clock */
 222:.\Generated_Source\PSoC5/cyfitter_cfg.c **** 	}
ARM GAS  C:\Users\Xwx47\AppData\Local\Temp\ccWb8HJO.s 			page 7


 223:.\Generated_Source\PSoC5/cyfitter_cfg.c **** 	/* If we ran out of time the PLL didn't lock so go to the error function */
 224:.\Generated_Source\PSoC5/cyfitter_cfg.c **** 	if (timeout == 0u)
 225:.\Generated_Source\PSoC5/cyfitter_cfg.c **** 	{
 226:.\Generated_Source\PSoC5/cyfitter_cfg.c **** 		CyClockStartupError(CYCLOCKSTART_PLL_ERROR);
 227:.\Generated_Source\PSoC5/cyfitter_cfg.c **** 	}
 228:.\Generated_Source\PSoC5/cyfitter_cfg.c **** 
 229:.\Generated_Source\PSoC5/cyfitter_cfg.c **** 	/* Configure Bus/Master Clock based on settings from Clock DWR */
 230:.\Generated_Source\PSoC5/cyfitter_cfg.c **** 	CY_SET_XTND_REG16((void CYFAR *)(CYREG_CLKDIST_MSTR0), 0x0100u);
 231:.\Generated_Source\PSoC5/cyfitter_cfg.c **** 	CY_SET_XTND_REG8((void CYFAR *)(CYREG_CLKDIST_MSTR0), 0x07u);
 232:.\Generated_Source\PSoC5/cyfitter_cfg.c **** 	CY_SET_XTND_REG8((void CYFAR *)(CYREG_CLKDIST_BCFG0), 0x00u);
 233:.\Generated_Source\PSoC5/cyfitter_cfg.c **** 	CY_SET_XTND_REG8((void CYFAR *)(CYREG_CLKDIST_BCFG2), 0x48u);
 234:.\Generated_Source\PSoC5/cyfitter_cfg.c **** 	CY_SET_XTND_REG8((void CYFAR *)(CYREG_CLKDIST_MSTR0), 0x00u);
 235:.\Generated_Source\PSoC5/cyfitter_cfg.c **** 	CY_SET_XTND_REG8((void CYFAR *)(CYREG_CLKDIST_LD), 0x02u);
 236:.\Generated_Source\PSoC5/cyfitter_cfg.c **** 
 237:.\Generated_Source\PSoC5/cyfitter_cfg.c **** 	CY_SET_XTND_REG8((void CYFAR *)(CYREG_PM_ACT_CFG2), ((CY_GET_XTND_REG8((void CYFAR *)CYREG_PM_ACT_
 238:.\Generated_Source\PSoC5/cyfitter_cfg.c **** }
 239:.\Generated_Source\PSoC5/cyfitter_cfg.c **** 
 240:.\Generated_Source\PSoC5/cyfitter_cfg.c **** 
 241:.\Generated_Source\PSoC5/cyfitter_cfg.c **** /* Analog API Functions */
 242:.\Generated_Source\PSoC5/cyfitter_cfg.c **** 
 243:.\Generated_Source\PSoC5/cyfitter_cfg.c **** 
 244:.\Generated_Source\PSoC5/cyfitter_cfg.c **** /*******************************************************************************
 245:.\Generated_Source\PSoC5/cyfitter_cfg.c **** * Function Name: AnalogSetDefault
 246:.\Generated_Source\PSoC5/cyfitter_cfg.c **** ********************************************************************************
 247:.\Generated_Source\PSoC5/cyfitter_cfg.c **** *
 248:.\Generated_Source\PSoC5/cyfitter_cfg.c **** * Summary:
 249:.\Generated_Source\PSoC5/cyfitter_cfg.c **** *  Sets up the analog portions of the chip to default values based on chip
 250:.\Generated_Source\PSoC5/cyfitter_cfg.c **** *  configuration options from the project.
 251:.\Generated_Source\PSoC5/cyfitter_cfg.c **** *
 252:.\Generated_Source\PSoC5/cyfitter_cfg.c **** * Parameters:
 253:.\Generated_Source\PSoC5/cyfitter_cfg.c **** *  void
 254:.\Generated_Source\PSoC5/cyfitter_cfg.c **** *
 255:.\Generated_Source\PSoC5/cyfitter_cfg.c **** * Return:
 256:.\Generated_Source\PSoC5/cyfitter_cfg.c **** *  void
 257:.\Generated_Source\PSoC5/cyfitter_cfg.c **** *
 258:.\Generated_Source\PSoC5/cyfitter_cfg.c **** *******************************************************************************/
 259:.\Generated_Source\PSoC5/cyfitter_cfg.c **** static void AnalogSetDefault(void);
 260:.\Generated_Source\PSoC5/cyfitter_cfg.c **** static void AnalogSetDefault(void)
 261:.\Generated_Source\PSoC5/cyfitter_cfg.c **** {
 118              		.loc 1 261 0
 119              		.cfi_startproc
 120              		@ args = 0, pretend = 0, frame = 0
 121              		@ frame_needed = 0, uses_anonymous_args = 0
 122              		@ link register save eliminated.
 262:.\Generated_Source\PSoC5/cyfitter_cfg.c **** 	uint8 bg_xover_inl_trim = CY_GET_XTND_REG8((void CYFAR *)(CYREG_FLSHID_MFG_CFG_BG_XOVER_INL_TRIM +
 123              		.loc 1 262 0
 124 0000 0E4B     		ldr	r3, .L9
 125 0002 1B78     		ldrb	r3, [r3]	@ zero_extendqisi2
 126 0004 DBB2     		uxtb	r3, r3
 127              	.LVL12:
 263:.\Generated_Source\PSoC5/cyfitter_cfg.c **** 	CY_SET_XTND_REG8((void CYFAR *)(CYREG_BG_DFT0), (bg_xover_inl_trim & 0x07u));
 128              		.loc 1 263 0
 129 0006 03F00701 		and	r1, r3, #7
 130 000a 0D4A     		ldr	r2, .L9+4
 131 000c 1170     		strb	r1, [r2]
 264:.\Generated_Source\PSoC5/cyfitter_cfg.c **** 	CY_SET_XTND_REG8((void CYFAR *)(CYREG_BG_DFT1), ((bg_xover_inl_trim >> 4) & 0x0Fu));
 132              		.loc 1 264 0
ARM GAS  C:\Users\Xwx47\AppData\Local\Temp\ccWb8HJO.s 			page 8


 133 000e 1B09     		lsrs	r3, r3, #4
 134              	.LVL13:
 135 0010 0132     		adds	r2, r2, #1
 136 0012 1370     		strb	r3, [r2]
 265:.\Generated_Source\PSoC5/cyfitter_cfg.c **** 	CY_SET_XTND_REG8((void CYFAR *)CYREG_PRT15_AG, 0x10u);
 137              		.loc 1 265 0
 138 0014 1022     		movs	r2, #16
 139 0016 0B4B     		ldr	r3, .L9+8
 140 0018 1A70     		strb	r2, [r3]
 266:.\Generated_Source\PSoC5/cyfitter_cfg.c **** 	CY_SET_XTND_REG8((void CYFAR *)CYREG_CAPSL_CFG0, 0x00u);
 141              		.loc 1 266 0
 142 001a 0022     		movs	r2, #0
 143 001c 03F27363 		addw	r3, r3, #1651
 144 0020 1A70     		strb	r2, [r3]
 267:.\Generated_Source\PSoC5/cyfitter_cfg.c **** 	CY_SET_XTND_REG8((void CYFAR *)CYREG_CMP1_SW3, 0x20u);
 145              		.loc 1 267 0
 146 0022 2022     		movs	r2, #32
 147 0024 03F25B23 		addw	r3, r3, #603
 148 0028 1A70     		strb	r2, [r3]
 268:.\Generated_Source\PSoC5/cyfitter_cfg.c **** 	CY_SET_XTND_REG8((void CYFAR *)CYREG_BUS_SW3, 0x01u);
 149              		.loc 1 268 0
 150 002a 0122     		movs	r2, #1
 151 002c 9033     		adds	r3, r3, #144
 152 002e 1A70     		strb	r2, [r3]
 269:.\Generated_Source\PSoC5/cyfitter_cfg.c **** 	CY_SET_XTND_REG8((void CYFAR *)CYREG_PUMP_CR0, 0x44u);
 153              		.loc 1 269 0
 154 0030 4422     		movs	r2, #68
 155 0032 A3F2E523 		subw	r3, r3, #741
 156 0036 1A70     		strb	r2, [r3]
 157 0038 7047     		bx	lr
 158              	.L10:
 159 003a 00BF     		.align	2
 160              	.L9:
 161 003c CF010049 		.word	1224737231
 162 0040 6E580040 		.word	1073764462
 163 0044 FD510040 		.word	1073762813
 164              		.cfi_endproc
 165              	.LFE6:
 166              		.size	AnalogSetDefault, .-AnalogSetDefault
 167              		.section	.text.CYMEMZERO,"ax",%progbits
 168              		.align	2
 169              		.thumb
 170              		.thumb_func
 171              		.type	CYMEMZERO, %function
 172              	CYMEMZERO:
 173              	.LFB0:
  61:.\Generated_Source\PSoC5/cyfitter_cfg.c **** {
 174              		.loc 1 61 0
 175              		.cfi_startproc
 176              		@ args = 0, pretend = 0, frame = 0
 177              		@ frame_needed = 0, uses_anonymous_args = 0
 178              	.LVL14:
 179 0000 08B5     		push	{r3, lr}
 180              		.cfi_def_cfa_offset 8
 181              		.cfi_offset 3, -8
 182              		.cfi_offset 14, -4
 183 0002 0A46     		mov	r2, r1
ARM GAS  C:\Users\Xwx47\AppData\Local\Temp\ccWb8HJO.s 			page 9


  62:.\Generated_Source\PSoC5/cyfitter_cfg.c **** 	(void)memset(s, 0, n);
 184              		.loc 1 62 0
 185 0004 0021     		movs	r1, #0
 186              	.LVL15:
 187 0006 FFF7FEFF 		bl	memset
 188              	.LVL16:
 189 000a 08BD     		pop	{r3, pc}
 190              		.cfi_endproc
 191              	.LFE0:
 192              		.size	CYMEMZERO, .-CYMEMZERO
 193              		.section	.text.ClockSetup,"ax",%progbits
 194              		.align	2
 195              		.thumb
 196              		.thumb_func
 197              		.type	ClockSetup, %function
 198              	ClockSetup:
 199              	.LFB5:
 196:.\Generated_Source\PSoC5/cyfitter_cfg.c **** {
 200              		.loc 1 196 0
 201              		.cfi_startproc
 202              		@ args = 0, pretend = 0, frame = 0
 203              		@ frame_needed = 0, uses_anonymous_args = 0
 204 0000 F8B5     		push	{r3, r4, r5, r6, r7, lr}
 205              		.cfi_def_cfa_offset 24
 206              		.cfi_offset 3, -24
 207              		.cfi_offset 4, -20
 208              		.cfi_offset 5, -16
 209              		.cfi_offset 6, -12
 210              		.cfi_offset 7, -8
 211              		.cfi_offset 14, -4
 202:.\Generated_Source\PSoC5/cyfitter_cfg.c **** 	CY_SET_XTND_REG16((void CYFAR *)(CYREG_CLKDIST_DCFG0_CFG0), 0x0001u);
 212              		.loc 1 202 0
 213 0002 0122     		movs	r2, #1
 214 0004 254B     		ldr	r3, .L17
 215 0006 1A80     		strh	r2, [r3]	@ movhi
 203:.\Generated_Source\PSoC5/cyfitter_cfg.c **** 	CY_SET_XTND_REG8((void CYFAR *)(CYREG_CLKDIST_DCFG0_CFG0 + 0x2u), 0x18u);
 216              		.loc 1 203 0
 217 0008 1822     		movs	r2, #24
 218 000a 0233     		adds	r3, r3, #2
 219 000c 1A70     		strb	r2, [r3]
 206:.\Generated_Source\PSoC5/cyfitter_cfg.c **** 	CY_SET_XTND_REG8((void CYFAR *)(CYREG_SLOWCLK_ILO_CR0), 0x02u);
 220              		.loc 1 206 0
 221 000e 0222     		movs	r2, #2
 222 0010 03F27E23 		addw	r3, r3, #638
 223 0014 1A70     		strb	r2, [r3]
 207:.\Generated_Source\PSoC5/cyfitter_cfg.c **** 	CY_SET_XTND_REG8((void CYFAR *)(CYREG_CLKDIST_CR), 0x08u);
 224              		.loc 1 207 0
 225 0016 0823     		movs	r3, #8
 226 0018 4FF04022 		mov	r2, #1073758208
 227 001c 1370     		strb	r3, [r2]
 210:.\Generated_Source\PSoC5/cyfitter_cfg.c **** 	CY_SET_XTND_REG8((void CYFAR *)(CYREG_FASTCLK_IMO_CR), 0x03u);
 228              		.loc 1 210 0
 229 001e 0321     		movs	r1, #3
 230 0020 02F50072 		add	r2, r2, #512
 231 0024 1170     		strb	r1, [r2]
 211:.\Generated_Source\PSoC5/cyfitter_cfg.c **** 	CY_SET_XTND_REG8((void CYFAR *)(CYREG_IMO_TR1), (CY_GET_XTND_REG8((void CYFAR *)CYREG_FLSHID_CUST_
 232              		.loc 1 211 0
ARM GAS  C:\Users\Xwx47\AppData\Local\Temp\ccWb8HJO.s 			page 10


 233 0026 1E4A     		ldr	r2, .L17+4
 234 0028 1178     		ldrb	r1, [r2]	@ zero_extendqisi2
 235 002a C9B2     		uxtb	r1, r1
 236 002c 1D4A     		ldr	r2, .L17+8
 237 002e 1170     		strb	r1, [r2]
 214:.\Generated_Source\PSoC5/cyfitter_cfg.c **** 	CY_SET_XTND_REG16((void CYFAR *)(CYREG_FASTCLK_PLL_P), 0x0008u);
 238              		.loc 1 214 0
 239 0030 A2F27F42 		subw	r2, r2, #1151
 240 0034 1380     		strh	r3, [r2]	@ movhi
 215:.\Generated_Source\PSoC5/cyfitter_cfg.c **** 	CY_SET_XTND_REG16((void CYFAR *)(CYREG_FASTCLK_PLL_CFG0), 0x1251u);
 241              		.loc 1 215 0
 242 0036 41F25122 		movw	r2, #4689
 243 003a 1B4B     		ldr	r3, .L17+12
 244 003c 1A80     		strh	r2, [r3]	@ movhi
 245              	.LVL17:
 217:.\Generated_Source\PSoC5/cyfitter_cfg.c **** 	pllLock = 0u;
 246              		.loc 1 217 0
 247 003e 0025     		movs	r5, #0
 218:.\Generated_Source\PSoC5/cyfitter_cfg.c **** 	for (timeout = 250u / 10u; (timeout > 0u) && (pllLock != 0x03u); timeout--)
 248              		.loc 1 218 0
 249 0040 1924     		movs	r4, #25
 220:.\Generated_Source\PSoC5/cyfitter_cfg.c **** 		pllLock = 0x03u & ((uint8)((uint8)pllLock << 1) | ((CY_GET_XTND_REG8((void CYFAR *)CYREG_FASTCLK_
 250              		.loc 1 220 0
 251 0042 1A4F     		ldr	r7, .L17+16
 221:.\Generated_Source\PSoC5/cyfitter_cfg.c **** 		CyDelayCycles(10u * 48u); /* Delay 10us based on 48MHz clock */
 252              		.loc 1 221 0
 253 0044 4FF4F076 		mov	r6, #480
 218:.\Generated_Source\PSoC5/cyfitter_cfg.c **** 	for (timeout = 250u / 10u; (timeout > 0u) && (pllLock != 0x03u); timeout--)
 254              		.loc 1 218 0
 255 0048 0AE0     		b	.L13
 256              	.LVL18:
 257              	.L15:
 220:.\Generated_Source\PSoC5/cyfitter_cfg.c **** 		pllLock = 0x03u & ((uint8)((uint8)pllLock << 1) | ((CY_GET_XTND_REG8((void CYFAR *)CYREG_FASTCLK_
 258              		.loc 1 220 0 discriminator 1
 259 004a 3B78     		ldrb	r3, [r7]	@ zero_extendqisi2
 260 004c 03F00103 		and	r3, r3, #1
 261 0050 43EA4505 		orr	r5, r3, r5, lsl #1
 262              	.LVL19:
 263 0054 05F00305 		and	r5, r5, #3
 264              	.LVL20:
 221:.\Generated_Source\PSoC5/cyfitter_cfg.c **** 		CyDelayCycles(10u * 48u); /* Delay 10us based on 48MHz clock */
 265              		.loc 1 221 0 discriminator 1
 266 0058 3046     		mov	r0, r6
 267 005a FFF7FEFF 		bl	CyDelayCycles
 268              	.LVL21:
 218:.\Generated_Source\PSoC5/cyfitter_cfg.c **** 	for (timeout = 250u / 10u; (timeout > 0u) && (pllLock != 0x03u); timeout--)
 269              		.loc 1 218 0 discriminator 1
 270 005e 013C     		subs	r4, r4, #1
 271              	.LVL22:
 272              	.L13:
 273 0060 0CB1     		cbz	r4, .L14
 218:.\Generated_Source\PSoC5/cyfitter_cfg.c **** 	for (timeout = 250u / 10u; (timeout > 0u) && (pllLock != 0x03u); timeout--)
 274              		.loc 1 218 0 is_stmt 0 discriminator 2
 275 0062 032D     		cmp	r5, #3
 276 0064 F1D1     		bne	.L15
 277              	.L14:
 224:.\Generated_Source\PSoC5/cyfitter_cfg.c **** 	if (timeout == 0u)
ARM GAS  C:\Users\Xwx47\AppData\Local\Temp\ccWb8HJO.s 			page 11


 278              		.loc 1 224 0 is_stmt 1
 279 0066 14B9     		cbnz	r4, .L16
 226:.\Generated_Source\PSoC5/cyfitter_cfg.c **** 		CyClockStartupError(CYCLOCKSTART_PLL_ERROR);
 280              		.loc 1 226 0
 281 0068 0320     		movs	r0, #3
 282 006a FFF7FEFF 		bl	CyClockStartupError
 283              	.LVL23:
 284              	.L16:
 230:.\Generated_Source\PSoC5/cyfitter_cfg.c **** 	CY_SET_XTND_REG16((void CYFAR *)(CYREG_CLKDIST_MSTR0), 0x0100u);
 285              		.loc 1 230 0
 286 006e 104B     		ldr	r3, .L17+20
 287 0070 4FF48072 		mov	r2, #256
 288 0074 1A80     		strh	r2, [r3]	@ movhi
 231:.\Generated_Source\PSoC5/cyfitter_cfg.c **** 	CY_SET_XTND_REG8((void CYFAR *)(CYREG_CLKDIST_MSTR0), 0x07u);
 289              		.loc 1 231 0
 290 0076 0722     		movs	r2, #7
 291 0078 1A70     		strb	r2, [r3]
 232:.\Generated_Source\PSoC5/cyfitter_cfg.c **** 	CY_SET_XTND_REG8((void CYFAR *)(CYREG_CLKDIST_BCFG0), 0x00u);
 292              		.loc 1 232 0
 293 007a 0022     		movs	r2, #0
 294 007c 0D49     		ldr	r1, .L17+24
 295 007e 0A70     		strb	r2, [r1]
 233:.\Generated_Source\PSoC5/cyfitter_cfg.c **** 	CY_SET_XTND_REG8((void CYFAR *)(CYREG_CLKDIST_BCFG2), 0x48u);
 296              		.loc 1 233 0
 297 0080 4820     		movs	r0, #72
 298 0082 0231     		adds	r1, r1, #2
 299 0084 0870     		strb	r0, [r1]
 234:.\Generated_Source\PSoC5/cyfitter_cfg.c **** 	CY_SET_XTND_REG8((void CYFAR *)(CYREG_CLKDIST_MSTR0), 0x00u);
 300              		.loc 1 234 0
 301 0086 1A70     		strb	r2, [r3]
 235:.\Generated_Source\PSoC5/cyfitter_cfg.c **** 	CY_SET_XTND_REG8((void CYFAR *)(CYREG_CLKDIST_LD), 0x02u);
 302              		.loc 1 235 0
 303 0088 0222     		movs	r2, #2
 304 008a 033B     		subs	r3, r3, #3
 305 008c 1A70     		strb	r2, [r3]
 237:.\Generated_Source\PSoC5/cyfitter_cfg.c **** 	CY_SET_XTND_REG8((void CYFAR *)(CYREG_PM_ACT_CFG2), ((CY_GET_XTND_REG8((void CYFAR *)CYREG_PM_ACT_
 306              		.loc 1 237 0
 307 008e 03F2A133 		addw	r3, r3, #929
 308 0092 1A78     		ldrb	r2, [r3]	@ zero_extendqisi2
 309 0094 42F00102 		orr	r2, r2, #1
 310 0098 1A70     		strb	r2, [r3]
 311 009a F8BD     		pop	{r3, r4, r5, r6, r7, pc}
 312              	.LVL24:
 313              	.L18:
 314              		.align	2
 315              	.L17:
 316 009c 80400040 		.word	1073758336
 317 00a0 08010049 		.word	1224737032
 318 00a4 A1460040 		.word	1073759905
 319 00a8 20420040 		.word	1073758752
 320 00ac 25420040 		.word	1073758757
 321 00b0 04400040 		.word	1073758212
 322 00b4 06400040 		.word	1073758214
 323              		.cfi_endproc
 324              	.LFE5:
 325              		.size	ClockSetup, .-ClockSetup
 326              		.section	.text.CYCONFIGCPY,"ax",%progbits
ARM GAS  C:\Users\Xwx47\AppData\Local\Temp\ccWb8HJO.s 			page 12


 327              		.align	2
 328              		.thumb
 329              		.thumb_func
 330              		.type	CYCONFIGCPY, %function
 331              	CYCONFIGCPY:
 332              	.LFB1:
  68:.\Generated_Source\PSoC5/cyfitter_cfg.c **** {
 333              		.loc 1 68 0
 334              		.cfi_startproc
 335              		@ args = 0, pretend = 0, frame = 0
 336              		@ frame_needed = 0, uses_anonymous_args = 0
 337              	.LVL25:
 338 0000 08B5     		push	{r3, lr}
 339              		.cfi_def_cfa_offset 8
 340              		.cfi_offset 3, -8
 341              		.cfi_offset 14, -4
  69:.\Generated_Source\PSoC5/cyfitter_cfg.c **** 	(void)memcpy(dest, src, n);
 342              		.loc 1 69 0
 343 0002 FFF7FEFF 		bl	memcpy
 344              	.LVL26:
 345 0006 08BD     		pop	{r3, pc}
 346              		.cfi_endproc
 347              	.LFE1:
 348              		.size	CYCONFIGCPY, .-CYCONFIGCPY
 349              		.section	.text.SetAnalogRoutingPumps,"ax",%progbits
 350              		.align	2
 351              		.global	SetAnalogRoutingPumps
 352              		.thumb
 353              		.thumb_func
 354              		.type	SetAnalogRoutingPumps, %function
 355              	SetAnalogRoutingPumps:
 356              	.LFB7:
 270:.\Generated_Source\PSoC5/cyfitter_cfg.c **** }
 271:.\Generated_Source\PSoC5/cyfitter_cfg.c **** 
 272:.\Generated_Source\PSoC5/cyfitter_cfg.c **** 
 273:.\Generated_Source\PSoC5/cyfitter_cfg.c **** /*******************************************************************************
 274:.\Generated_Source\PSoC5/cyfitter_cfg.c **** * Function Name: SetAnalogRoutingPumps
 275:.\Generated_Source\PSoC5/cyfitter_cfg.c **** ********************************************************************************
 276:.\Generated_Source\PSoC5/cyfitter_cfg.c **** *
 277:.\Generated_Source\PSoC5/cyfitter_cfg.c **** * Summary:
 278:.\Generated_Source\PSoC5/cyfitter_cfg.c **** * Enables or disables the analog pumps feeding analog routing switches.
 279:.\Generated_Source\PSoC5/cyfitter_cfg.c **** * Intended to be called at startup, based on the Vdda system configuration;
 280:.\Generated_Source\PSoC5/cyfitter_cfg.c **** * may be called during operation when the user informs us that the Vdda voltage
 281:.\Generated_Source\PSoC5/cyfitter_cfg.c **** * crossed the pump threshold.
 282:.\Generated_Source\PSoC5/cyfitter_cfg.c **** *
 283:.\Generated_Source\PSoC5/cyfitter_cfg.c **** * Parameters:
 284:.\Generated_Source\PSoC5/cyfitter_cfg.c **** *  enabled - 1 to enable the pumps, 0 to disable the pumps
 285:.\Generated_Source\PSoC5/cyfitter_cfg.c **** *
 286:.\Generated_Source\PSoC5/cyfitter_cfg.c **** * Return:
 287:.\Generated_Source\PSoC5/cyfitter_cfg.c **** *  void
 288:.\Generated_Source\PSoC5/cyfitter_cfg.c **** *
 289:.\Generated_Source\PSoC5/cyfitter_cfg.c **** *******************************************************************************/
 290:.\Generated_Source\PSoC5/cyfitter_cfg.c **** void SetAnalogRoutingPumps(uint8 enabled)
 291:.\Generated_Source\PSoC5/cyfitter_cfg.c **** {
 357              		.loc 1 291 0
 358              		.cfi_startproc
 359              		@ args = 0, pretend = 0, frame = 0
ARM GAS  C:\Users\Xwx47\AppData\Local\Temp\ccWb8HJO.s 			page 13


 360              		@ frame_needed = 0, uses_anonymous_args = 0
 361              		@ link register save eliminated.
 362              	.LVL27:
 292:.\Generated_Source\PSoC5/cyfitter_cfg.c **** 	uint8 regValue = CY_GET_XTND_REG8((void CYFAR *)CYREG_PUMP_CR0);
 363              		.loc 1 292 0
 364 0000 054B     		ldr	r3, .L23
 365 0002 1B78     		ldrb	r3, [r3]	@ zero_extendqisi2
 366 0004 DBB2     		uxtb	r3, r3
 367              	.LVL28:
 293:.\Generated_Source\PSoC5/cyfitter_cfg.c **** 	if (enabled != 0u)
 368              		.loc 1 293 0
 369 0006 10B1     		cbz	r0, .L21
 294:.\Generated_Source\PSoC5/cyfitter_cfg.c **** 	{
 295:.\Generated_Source\PSoC5/cyfitter_cfg.c **** 		regValue |= 0x22u;
 370              		.loc 1 295 0
 371 0008 43F02203 		orr	r3, r3, #34
 372              	.LVL29:
 373 000c 01E0     		b	.L22
 374              	.L21:
 296:.\Generated_Source\PSoC5/cyfitter_cfg.c **** 	}
 297:.\Generated_Source\PSoC5/cyfitter_cfg.c **** 	else
 298:.\Generated_Source\PSoC5/cyfitter_cfg.c **** 	{
 299:.\Generated_Source\PSoC5/cyfitter_cfg.c **** 		regValue &= (uint8)~0x22u;
 375              		.loc 1 299 0
 376 000e 03F0DD03 		and	r3, r3, #221
 377              	.LVL30:
 378              	.L22:
 300:.\Generated_Source\PSoC5/cyfitter_cfg.c **** 	}
 301:.\Generated_Source\PSoC5/cyfitter_cfg.c **** 	CY_SET_XTND_REG8((void CYFAR *)CYREG_PUMP_CR0, regValue);
 379              		.loc 1 301 0
 380 0012 014A     		ldr	r2, .L23
 381 0014 1370     		strb	r3, [r2]
 382 0016 7047     		bx	lr
 383              	.L24:
 384              		.align	2
 385              	.L23:
 386 0018 76580040 		.word	1073764470
 387              		.cfi_endproc
 388              	.LFE7:
 389              		.size	SetAnalogRoutingPumps, .-SetAnalogRoutingPumps
 390              		.section	.text.CapSense_AMuxCH0_Set,"ax",%progbits
 391              		.align	2
 392              		.global	CapSense_AMuxCH0_Set
 393              		.thumb
 394              		.thumb_func
 395              		.type	CapSense_AMuxCH0_Set, %function
 396              	CapSense_AMuxCH0_Set:
 397              	.LFB8:
 302:.\Generated_Source\PSoC5/cyfitter_cfg.c **** }
 303:.\Generated_Source\PSoC5/cyfitter_cfg.c **** 
 304:.\Generated_Source\PSoC5/cyfitter_cfg.c **** #define CY_AMUX_UNUSED CYREG_BOOST_SR
 305:.\Generated_Source\PSoC5/cyfitter_cfg.c **** /* This is an implementation detail of the AMux. Code that depends on it may be
 306:.\Generated_Source\PSoC5/cyfitter_cfg.c ****    incompatible with other versions of PSoC Creator. */
 307:.\Generated_Source\PSoC5/cyfitter_cfg.c **** uint8 CYXDATA * const CYCODE CapSense_AMuxCH0__addrTable[6] = {
 308:.\Generated_Source\PSoC5/cyfitter_cfg.c **** 	(uint8 CYXDATA *)CYREG_PRT1_AMUX, 
 309:.\Generated_Source\PSoC5/cyfitter_cfg.c **** 	(uint8 CYXDATA *)CYREG_PRT1_AMUX, 
 310:.\Generated_Source\PSoC5/cyfitter_cfg.c **** 	(uint8 CYXDATA *)CYREG_PRT1_AMUX, 
ARM GAS  C:\Users\Xwx47\AppData\Local\Temp\ccWb8HJO.s 			page 14


 311:.\Generated_Source\PSoC5/cyfitter_cfg.c **** 	(uint8 CYXDATA *)CYREG_PRT15_AMUX, 
 312:.\Generated_Source\PSoC5/cyfitter_cfg.c **** 	(uint8 CYXDATA *)CYREG_CMP1_SW3, 
 313:.\Generated_Source\PSoC5/cyfitter_cfg.c **** 	(uint8 CYXDATA *)CYREG_DAC3_SW3, 
 314:.\Generated_Source\PSoC5/cyfitter_cfg.c **** };
 315:.\Generated_Source\PSoC5/cyfitter_cfg.c **** 
 316:.\Generated_Source\PSoC5/cyfitter_cfg.c **** /* This is an implementation detail of the AMux. Code that depends on it may be
 317:.\Generated_Source\PSoC5/cyfitter_cfg.c ****    incompatible with other versions of PSoC Creator. */
 318:.\Generated_Source\PSoC5/cyfitter_cfg.c **** const uint8 CYCODE CapSense_AMuxCH0__maskTable[6] = {
 319:.\Generated_Source\PSoC5/cyfitter_cfg.c **** 	0x40u, 
 320:.\Generated_Source\PSoC5/cyfitter_cfg.c **** 	0x10u, 
 321:.\Generated_Source\PSoC5/cyfitter_cfg.c **** 	0x04u, 
 322:.\Generated_Source\PSoC5/cyfitter_cfg.c **** 	0x10u, 
 323:.\Generated_Source\PSoC5/cyfitter_cfg.c **** 	0x01u, 
 324:.\Generated_Source\PSoC5/cyfitter_cfg.c **** 	0x10u, 
 325:.\Generated_Source\PSoC5/cyfitter_cfg.c **** };
 326:.\Generated_Source\PSoC5/cyfitter_cfg.c **** 
 327:.\Generated_Source\PSoC5/cyfitter_cfg.c **** /*******************************************************************************
 328:.\Generated_Source\PSoC5/cyfitter_cfg.c **** * Function Name: CapSense_AMuxCH0_Set
 329:.\Generated_Source\PSoC5/cyfitter_cfg.c **** ********************************************************************************
 330:.\Generated_Source\PSoC5/cyfitter_cfg.c **** * Summary:
 331:.\Generated_Source\PSoC5/cyfitter_cfg.c **** *  This function is used to set a particular channel as active on the AMux.
 332:.\Generated_Source\PSoC5/cyfitter_cfg.c **** *
 333:.\Generated_Source\PSoC5/cyfitter_cfg.c **** * Parameters:  
 334:.\Generated_Source\PSoC5/cyfitter_cfg.c **** *   channel - The mux channel input to set as active
 335:.\Generated_Source\PSoC5/cyfitter_cfg.c **** *
 336:.\Generated_Source\PSoC5/cyfitter_cfg.c **** * Return:
 337:.\Generated_Source\PSoC5/cyfitter_cfg.c **** *   void
 338:.\Generated_Source\PSoC5/cyfitter_cfg.c **** *
 339:.\Generated_Source\PSoC5/cyfitter_cfg.c **** *******************************************************************************/
 340:.\Generated_Source\PSoC5/cyfitter_cfg.c **** void CapSense_AMuxCH0_Set(uint8 channel)
 341:.\Generated_Source\PSoC5/cyfitter_cfg.c **** {
 398              		.loc 1 341 0
 399              		.cfi_startproc
 400              		@ args = 0, pretend = 0, frame = 0
 401              		@ frame_needed = 0, uses_anonymous_args = 0
 402              		@ link register save eliminated.
 403              	.LVL31:
 342:.\Generated_Source\PSoC5/cyfitter_cfg.c **** 	if (channel < 6)
 404              		.loc 1 342 0
 405 0000 0528     		cmp	r0, #5
 406 0002 07D8     		bhi	.L25
 343:.\Generated_Source\PSoC5/cyfitter_cfg.c **** 	{
 344:.\Generated_Source\PSoC5/cyfitter_cfg.c **** 		*CapSense_AMuxCH0__addrTable[channel] |= CapSense_AMuxCH0__maskTable[channel];
 407              		.loc 1 344 0
 408 0004 044A     		ldr	r2, .L27
 409 0006 52F82030 		ldr	r3, [r2, r0, lsl #2]
 410 000a 1044     		add	r0, r0, r2
 411              	.LVL32:
 412 000c 017E     		ldrb	r1, [r0, #24]	@ zero_extendqisi2
 413 000e 1A78     		ldrb	r2, [r3]	@ zero_extendqisi2
 414 0010 0A43     		orrs	r2, r2, r1
 415 0012 1A70     		strb	r2, [r3]
 416              	.L25:
 417 0014 7047     		bx	lr
 418              	.L28:
 419 0016 00BF     		.align	2
 420              	.L27:
ARM GAS  C:\Users\Xwx47\AppData\Local\Temp\ccWb8HJO.s 			page 15


 421 0018 00000000 		.word	.LANCHOR0
 422              		.cfi_endproc
 423              	.LFE8:
 424              		.size	CapSense_AMuxCH0_Set, .-CapSense_AMuxCH0_Set
 425              		.section	.text.CapSense_AMuxCH0_Unset,"ax",%progbits
 426              		.align	2
 427              		.global	CapSense_AMuxCH0_Unset
 428              		.thumb
 429              		.thumb_func
 430              		.type	CapSense_AMuxCH0_Unset, %function
 431              	CapSense_AMuxCH0_Unset:
 432              	.LFB9:
 345:.\Generated_Source\PSoC5/cyfitter_cfg.c **** 	}
 346:.\Generated_Source\PSoC5/cyfitter_cfg.c **** }
 347:.\Generated_Source\PSoC5/cyfitter_cfg.c **** 
 348:.\Generated_Source\PSoC5/cyfitter_cfg.c **** /*******************************************************************************
 349:.\Generated_Source\PSoC5/cyfitter_cfg.c **** * Function Name: CapSense_AMuxCH0_Unset
 350:.\Generated_Source\PSoC5/cyfitter_cfg.c **** ********************************************************************************
 351:.\Generated_Source\PSoC5/cyfitter_cfg.c **** * Summary:
 352:.\Generated_Source\PSoC5/cyfitter_cfg.c **** *  This function is used to clear a particular channel from being active on the
 353:.\Generated_Source\PSoC5/cyfitter_cfg.c **** *  AMux.
 354:.\Generated_Source\PSoC5/cyfitter_cfg.c **** *
 355:.\Generated_Source\PSoC5/cyfitter_cfg.c **** * Parameters:  
 356:.\Generated_Source\PSoC5/cyfitter_cfg.c **** *   channel - The mux channel input to mark inactive
 357:.\Generated_Source\PSoC5/cyfitter_cfg.c **** *
 358:.\Generated_Source\PSoC5/cyfitter_cfg.c **** * Return:
 359:.\Generated_Source\PSoC5/cyfitter_cfg.c **** *   void
 360:.\Generated_Source\PSoC5/cyfitter_cfg.c **** *
 361:.\Generated_Source\PSoC5/cyfitter_cfg.c **** *******************************************************************************/
 362:.\Generated_Source\PSoC5/cyfitter_cfg.c **** void CapSense_AMuxCH0_Unset(uint8 channel)
 363:.\Generated_Source\PSoC5/cyfitter_cfg.c **** {
 433              		.loc 1 363 0
 434              		.cfi_startproc
 435              		@ args = 0, pretend = 0, frame = 0
 436              		@ frame_needed = 0, uses_anonymous_args = 0
 437              		@ link register save eliminated.
 438              	.LVL33:
 364:.\Generated_Source\PSoC5/cyfitter_cfg.c **** 	if (channel < 6)
 439              		.loc 1 364 0
 440 0000 0528     		cmp	r0, #5
 441 0002 08D8     		bhi	.L29
 365:.\Generated_Source\PSoC5/cyfitter_cfg.c **** 	{
 366:.\Generated_Source\PSoC5/cyfitter_cfg.c **** 		*CapSense_AMuxCH0__addrTable[channel] &= (uint8)~CapSense_AMuxCH0__maskTable[channel];
 442              		.loc 1 366 0
 443 0004 044A     		ldr	r2, .L31
 444 0006 52F82030 		ldr	r3, [r2, r0, lsl #2]
 445 000a 1044     		add	r0, r0, r2
 446              	.LVL34:
 447 000c 017E     		ldrb	r1, [r0, #24]	@ zero_extendqisi2
 448 000e 1A78     		ldrb	r2, [r3]	@ zero_extendqisi2
 449 0010 22EA0102 		bic	r2, r2, r1
 450 0014 1A70     		strb	r2, [r3]
 451              	.L29:
 452 0016 7047     		bx	lr
 453              	.L32:
 454              		.align	2
 455              	.L31:
ARM GAS  C:\Users\Xwx47\AppData\Local\Temp\ccWb8HJO.s 			page 16


 456 0018 00000000 		.word	.LANCHOR0
 457              		.cfi_endproc
 458              	.LFE9:
 459              		.size	CapSense_AMuxCH0_Unset, .-CapSense_AMuxCH0_Unset
 460              		.section	.text.cyfitter_cfg,"ax",%progbits
 461              		.align	2
 462              		.global	cyfitter_cfg
 463              		.thumb
 464              		.thumb_func
 465              		.type	cyfitter_cfg, %function
 466              	cyfitter_cfg:
 467              	.LFB10:
 367:.\Generated_Source\PSoC5/cyfitter_cfg.c **** 	}
 368:.\Generated_Source\PSoC5/cyfitter_cfg.c **** }
 369:.\Generated_Source\PSoC5/cyfitter_cfg.c **** 
 370:.\Generated_Source\PSoC5/cyfitter_cfg.c **** 
 371:.\Generated_Source\PSoC5/cyfitter_cfg.c **** 
 372:.\Generated_Source\PSoC5/cyfitter_cfg.c **** /*******************************************************************************
 373:.\Generated_Source\PSoC5/cyfitter_cfg.c **** * Function Name: cyfitter_cfg
 374:.\Generated_Source\PSoC5/cyfitter_cfg.c **** ********************************************************************************
 375:.\Generated_Source\PSoC5/cyfitter_cfg.c **** * Summary:
 376:.\Generated_Source\PSoC5/cyfitter_cfg.c **** *  This function is called by the start-up code for the selected device. It
 377:.\Generated_Source\PSoC5/cyfitter_cfg.c **** *  performs all of the necessary device configuration based on the design
 378:.\Generated_Source\PSoC5/cyfitter_cfg.c **** *  settings.  This includes settings from the Design Wide Resources (DWR) such
 379:.\Generated_Source\PSoC5/cyfitter_cfg.c **** *  as Clocks and Pins as well as any component configuration that is necessary.
 380:.\Generated_Source\PSoC5/cyfitter_cfg.c **** *
 381:.\Generated_Source\PSoC5/cyfitter_cfg.c **** * Parameters:  
 382:.\Generated_Source\PSoC5/cyfitter_cfg.c **** *   void
 383:.\Generated_Source\PSoC5/cyfitter_cfg.c **** *
 384:.\Generated_Source\PSoC5/cyfitter_cfg.c **** * Return:
 385:.\Generated_Source\PSoC5/cyfitter_cfg.c **** *   void
 386:.\Generated_Source\PSoC5/cyfitter_cfg.c **** *
 387:.\Generated_Source\PSoC5/cyfitter_cfg.c **** *******************************************************************************/
 388:.\Generated_Source\PSoC5/cyfitter_cfg.c **** 
 389:.\Generated_Source\PSoC5/cyfitter_cfg.c **** void cyfitter_cfg(void)
 390:.\Generated_Source\PSoC5/cyfitter_cfg.c **** {
 468              		.loc 1 390 0
 469              		.cfi_startproc
 470              		@ args = 0, pretend = 0, frame = 0
 471              		@ frame_needed = 0, uses_anonymous_args = 0
 472 0000 38B5     		push	{r3, r4, r5, lr}
 473              		.cfi_def_cfa_offset 16
 474              		.cfi_offset 3, -16
 475              		.cfi_offset 4, -12
 476              		.cfi_offset 5, -8
 477              		.cfi_offset 14, -4
 391:.\Generated_Source\PSoC5/cyfitter_cfg.c **** #ifdef CYGlobalIntDisable
 392:.\Generated_Source\PSoC5/cyfitter_cfg.c **** 	/* Disable interrupts by default. Let user enable if/when they want. */
 393:.\Generated_Source\PSoC5/cyfitter_cfg.c **** 	CYGlobalIntDisable
 478              		.loc 1 393 0
 479              	@ 393 ".\Generated_Source\PSoC5\cyfitter_cfg.c" 1
 480 0002 72B6     		CPSID   i
 481              	@ 0 "" 2
 394:.\Generated_Source\PSoC5/cyfitter_cfg.c **** #endif
 395:.\Generated_Source\PSoC5/cyfitter_cfg.c **** 
 396:.\Generated_Source\PSoC5/cyfitter_cfg.c **** 	/* Enable/Disable Debug functionality based on settings from System DWR */
 397:.\Generated_Source\PSoC5/cyfitter_cfg.c **** 	CY_SET_XTND_REG8((void CYFAR *)CYREG_MLOGIC_DEBUG, (CY_GET_XTND_REG8((void CYFAR *)CYREG_MLOGIC_DE
ARM GAS  C:\Users\Xwx47\AppData\Local\Temp\ccWb8HJO.s 			page 17


 482              		.loc 1 397 0
 483              		.thumb
 484 0004 304B     		ldr	r3, .L36
 485 0006 1A78     		ldrb	r2, [r3]	@ zero_extendqisi2
 486 0008 42F00402 		orr	r2, r2, #4
 487 000c 1A70     		strb	r2, [r3]
 488              	.LVL35:
 489              	.LBB3:
 398:.\Generated_Source\PSoC5/cyfitter_cfg.c **** 
 399:.\Generated_Source\PSoC5/cyfitter_cfg.c **** 	{
 400:.\Generated_Source\PSoC5/cyfitter_cfg.c **** 
 401:.\Generated_Source\PSoC5/cyfitter_cfg.c **** 		CYPACKED typedef struct {
 402:.\Generated_Source\PSoC5/cyfitter_cfg.c **** 			void CYFAR *address;
 403:.\Generated_Source\PSoC5/cyfitter_cfg.c **** 			uint16 size;
 404:.\Generated_Source\PSoC5/cyfitter_cfg.c **** 		} CYPACKED_ATTR cfg_memset_t;
 405:.\Generated_Source\PSoC5/cyfitter_cfg.c **** 
 406:.\Generated_Source\PSoC5/cyfitter_cfg.c **** 		static const cfg_memset_t CYCODE cfg_memset_list [] = {
 407:.\Generated_Source\PSoC5/cyfitter_cfg.c **** 			/* address, size */
 408:.\Generated_Source\PSoC5/cyfitter_cfg.c **** 			{(void CYFAR *)(CYREG_PRT0_DR), 16u},
 409:.\Generated_Source\PSoC5/cyfitter_cfg.c **** 			{(void CYFAR *)(CYREG_PRT3_DR), 64u},
 410:.\Generated_Source\PSoC5/cyfitter_cfg.c **** 			{(void CYFAR *)(CYREG_PRT12_DR), 16u},
 411:.\Generated_Source\PSoC5/cyfitter_cfg.c **** 			{(void CYFAR *)(CYDEV_UCFG_B0_P0_U0_BASE), 4096u},
 412:.\Generated_Source\PSoC5/cyfitter_cfg.c **** 			{(void CYFAR *)(CYDEV_UCFG_B1_P2_U0_BASE), 2048u},
 413:.\Generated_Source\PSoC5/cyfitter_cfg.c **** 			{(void CYFAR *)(CYDEV_UCFG_DSI0_BASE), 2560u},
 414:.\Generated_Source\PSoC5/cyfitter_cfg.c **** 			{(void CYFAR *)(CYDEV_UCFG_DSI12_BASE), 512u},
 415:.\Generated_Source\PSoC5/cyfitter_cfg.c **** 			{(void CYFAR *)(CYREG_BCTL0_MDCLK_EN), 32u},
 416:.\Generated_Source\PSoC5/cyfitter_cfg.c **** 		};
 417:.\Generated_Source\PSoC5/cyfitter_cfg.c **** 
 418:.\Generated_Source\PSoC5/cyfitter_cfg.c **** 		uint8 CYDATA i;
 419:.\Generated_Source\PSoC5/cyfitter_cfg.c **** 
 420:.\Generated_Source\PSoC5/cyfitter_cfg.c **** 		/* Zero out critical memory blocks before beginning configuration */
 421:.\Generated_Source\PSoC5/cyfitter_cfg.c **** 		for (i = 0u; i < (sizeof(cfg_memset_list)/sizeof(cfg_memset_list[0])); i++)
 490              		.loc 1 421 0
 491 000e 0024     		movs	r4, #0
 492              	.LBB4:
 422:.\Generated_Source\PSoC5/cyfitter_cfg.c **** 		{
 423:.\Generated_Source\PSoC5/cyfitter_cfg.c **** 			const cfg_memset_t CYCODE * CYDATA ms = &cfg_memset_list[i];
 493              		.loc 1 423 0
 494 0010 2E4D     		ldr	r5, .L36+4
 495              	.LBE4:
 421:.\Generated_Source\PSoC5/cyfitter_cfg.c **** 		for (i = 0u; i < (sizeof(cfg_memset_list)/sizeof(cfg_memset_list[0])); i++)
 496              		.loc 1 421 0
 497 0012 09E0     		b	.L34
 498              	.LVL36:
 499              	.L35:
 500              	.LBB5:
 501              		.loc 1 423 0 discriminator 2
 502 0014 04EB4403 		add	r3, r4, r4, lsl #1
 503 0018 5B00     		lsls	r3, r3, #1
 504 001a 2B44     		add	r3, r3, r5
 505              	.LVL37:
 424:.\Generated_Source\PSoC5/cyfitter_cfg.c **** 			CYMEMZERO(ms->address, (size_t)(uint32)(ms->size));
 506              		.loc 1 424 0 discriminator 2
 507 001c 1868     		ldr	r0, [r3]	@ unaligned
 508 001e 9988     		ldrh	r1, [r3, #4]
 509 0020 FFF7FEFF 		bl	CYMEMZERO
 510              	.LVL38:
ARM GAS  C:\Users\Xwx47\AppData\Local\Temp\ccWb8HJO.s 			page 18


 511              	.LBE5:
 421:.\Generated_Source\PSoC5/cyfitter_cfg.c **** 		for (i = 0u; i < (sizeof(cfg_memset_list)/sizeof(cfg_memset_list[0])); i++)
 512              		.loc 1 421 0 discriminator 2
 513 0024 0134     		adds	r4, r4, #1
 514              	.LVL39:
 515 0026 E4B2     		uxtb	r4, r4
 516              	.LVL40:
 517              	.L34:
 421:.\Generated_Source\PSoC5/cyfitter_cfg.c **** 		for (i = 0u; i < (sizeof(cfg_memset_list)/sizeof(cfg_memset_list[0])); i++)
 518              		.loc 1 421 0 is_stmt 0 discriminator 1
 519 0028 072C     		cmp	r4, #7
 520 002a F3D9     		bls	.L35
 425:.\Generated_Source\PSoC5/cyfitter_cfg.c **** 		}
 426:.\Generated_Source\PSoC5/cyfitter_cfg.c **** 
 427:.\Generated_Source\PSoC5/cyfitter_cfg.c **** 		cfg_write_bytes32(cy_cfg_addr_table, cy_cfg_data_table);
 521              		.loc 1 427 0 is_stmt 1
 522 002c 4FF09040 		mov	r0, #1207959552
 523 0030 2749     		ldr	r1, .L36+8
 524 0032 FFF7FEFF 		bl	cfg_write_bytes32
 525              	.LVL41:
 428:.\Generated_Source\PSoC5/cyfitter_cfg.c **** 
 429:.\Generated_Source\PSoC5/cyfitter_cfg.c **** 		/* Perform normal device configuration. Order is not critical for these items. */
 430:.\Generated_Source\PSoC5/cyfitter_cfg.c **** 		CY_SET_XTND_REG16((void CYFAR *)(CYREG_CAPSR_CFG0), 0x0300u);
 526              		.loc 1 430 0
 527 0036 4FF44072 		mov	r2, #768
 528 003a 264B     		ldr	r3, .L36+12
 529 003c 1A80     		strh	r2, [r3]	@ movhi
 431:.\Generated_Source\PSoC5/cyfitter_cfg.c **** 		CY_SET_XTND_REG16((void CYFAR *)(CYREG_LUT1_CR), 0x0103u);
 530              		.loc 1 431 0
 531 003e 40F20312 		movw	r2, #259
 532 0042 283B     		subs	r3, r3, #40
 533 0044 1A80     		strh	r2, [r3]	@ movhi
 432:.\Generated_Source\PSoC5/cyfitter_cfg.c **** 
 433:.\Generated_Source\PSoC5/cyfitter_cfg.c **** 		/* Enable digital routing */
 434:.\Generated_Source\PSoC5/cyfitter_cfg.c **** 		CY_SET_XTND_REG8((void CYFAR *)CYREG_BCTL0_BANK_CTL, CY_GET_XTND_REG8((void CYFAR *)CYREG_BCTL0_B
 534              		.loc 1 434 0
 535 0046 03F57743 		add	r3, r3, #63232
 536 004a B933     		adds	r3, r3, #185
 537 004c 1A78     		ldrb	r2, [r3]	@ zero_extendqisi2
 538 004e 42F00202 		orr	r2, r2, #2
 539 0052 1A70     		strb	r2, [r3]
 435:.\Generated_Source\PSoC5/cyfitter_cfg.c **** 		CY_SET_XTND_REG8((void CYFAR *)CYREG_BCTL1_BANK_CTL, CY_GET_XTND_REG8((void CYFAR *)CYREG_BCTL1_B
 540              		.loc 1 435 0
 541 0054 1033     		adds	r3, r3, #16
 542 0056 1A78     		ldrb	r2, [r3]	@ zero_extendqisi2
 543 0058 42F00202 		orr	r2, r2, #2
 544 005c 1A70     		strb	r2, [r3]
 436:.\Generated_Source\PSoC5/cyfitter_cfg.c **** 
 437:.\Generated_Source\PSoC5/cyfitter_cfg.c **** 		/* Enable UDB array */
 438:.\Generated_Source\PSoC5/cyfitter_cfg.c **** 		CY_SET_XTND_REG8((void CYFAR *)CYREG_PM_ACT_CFG0, CY_GET_XTND_REG8((void CYFAR *)CYREG_PM_ACT_CFG
 545              		.loc 1 438 0
 546 005e 1E4C     		ldr	r4, .L36+16
 547              	.LVL42:
 548 0060 2378     		ldrb	r3, [r4]	@ zero_extendqisi2
 549 0062 43F04003 		orr	r3, r3, #64
 550 0066 2370     		strb	r3, [r4]
 439:.\Generated_Source\PSoC5/cyfitter_cfg.c **** 		CY_SET_XTND_REG8((void CYFAR *)CYREG_PM_AVAIL_CR2, CY_GET_XTND_REG8((void CYFAR *)CYREG_PM_AVAIL_
ARM GAS  C:\Users\Xwx47\AppData\Local\Temp\ccWb8HJO.s 			page 19


 551              		.loc 1 439 0
 552 0068 1C4B     		ldr	r3, .L36+20
 553 006a 1A78     		ldrb	r2, [r3]	@ zero_extendqisi2
 554 006c 42F01002 		orr	r2, r2, #16
 555 0070 1A70     		strb	r2, [r3]
 556              	.LBE3:
 440:.\Generated_Source\PSoC5/cyfitter_cfg.c **** 	}
 441:.\Generated_Source\PSoC5/cyfitter_cfg.c **** 
 442:.\Generated_Source\PSoC5/cyfitter_cfg.c **** 
 443:.\Generated_Source\PSoC5/cyfitter_cfg.c **** 	/* Perform second pass device configuration. These items must be configured in specific order afte
 444:.\Generated_Source\PSoC5/cyfitter_cfg.c **** 	CYCONFIGCPY((void CYFAR *)(CYREG_PRT15_DM0), (const void CYFAR *)(BS_IOPINS0_8_VAL), 8u);
 557              		.loc 1 444 0
 558 0072 1B48     		ldr	r0, .L36+24
 559 0074 1B49     		ldr	r1, .L36+28
 560 0076 0822     		movs	r2, #8
 561 0078 FFF7FEFF 		bl	CYCONFIGCPY
 562              	.LVL43:
 445:.\Generated_Source\PSoC5/cyfitter_cfg.c **** 	CYCONFIGCPY((void CYFAR *)(CYREG_PRT1_DM0), (const void CYFAR *)(BS_IOPINS0_1_VAL), 8u);
 563              		.loc 1 445 0
 564 007c 1A48     		ldr	r0, .L36+32
 565 007e 1B49     		ldr	r1, .L36+36
 566 0080 0822     		movs	r2, #8
 567 0082 FFF7FEFF 		bl	CYCONFIGCPY
 568              	.LVL44:
 446:.\Generated_Source\PSoC5/cyfitter_cfg.c **** 	CYCONFIGCPY((void CYFAR *)(CYREG_PRT2_DM0), (const void CYFAR *)(BS_IOPINS0_2_VAL), 8u);
 569              		.loc 1 446 0
 570 0086 1A48     		ldr	r0, .L36+40
 571 0088 1A49     		ldr	r1, .L36+44
 572 008a 0822     		movs	r2, #8
 573 008c FFF7FEFF 		bl	CYCONFIGCPY
 574              	.LVL45:
 447:.\Generated_Source\PSoC5/cyfitter_cfg.c **** 	CY_SET_XTND_REG8((void CYFAR *)(CYREG_B0_P4_U1_CFG27), 0xC4u);
 575              		.loc 1 447 0
 576 0090 C422     		movs	r2, #196
 577 0092 194B     		ldr	r3, .L36+48
 578 0094 1A70     		strb	r2, [r3]
 448:.\Generated_Source\PSoC5/cyfitter_cfg.c **** 	/* Switch Boost to the precision bandgap reference from its internal reference */
 449:.\Generated_Source\PSoC5/cyfitter_cfg.c **** 	CY_SET_REG8((void CYXDATA *)CYREG_BOOST_CR2, (CY_GET_REG8((void CYXDATA *)CYREG_BOOST_CR2) | 0x08u
 579              		.loc 1 449 0
 580 0096 A3F54543 		sub	r3, r3, #50432
 581 009a B93B     		subs	r3, r3, #185
 582 009c 1A78     		ldrb	r2, [r3]	@ zero_extendqisi2
 583 009e 42F00802 		orr	r2, r2, #8
 584 00a2 1A70     		strb	r2, [r3]
 450:.\Generated_Source\PSoC5/cyfitter_cfg.c **** 
 451:.\Generated_Source\PSoC5/cyfitter_cfg.c **** 	/* Set Flash Cycles based on max possible frequency in case a glitch occurs during ClockSetup(). *
 452:.\Generated_Source\PSoC5/cyfitter_cfg.c **** 	CY_SET_XTND_REG8((void CYFAR *)(CYREG_CACHE_CC_CTL), (((CYDEV_INSTRUCT_CACHE_ENABLED) != 0) ? 0x61
 585              		.loc 1 452 0
 586 00a4 154D     		ldr	r5, .L36+52
 587 00a6 6123     		movs	r3, #97
 588 00a8 2B70     		strb	r3, [r5]
 453:.\Generated_Source\PSoC5/cyfitter_cfg.c **** 	/* Setup clocks based on selections from Clock DWR */
 454:.\Generated_Source\PSoC5/cyfitter_cfg.c **** 	ClockSetup();
 589              		.loc 1 454 0
 590 00aa FFF7FEFF 		bl	ClockSetup
 591              	.LVL46:
 455:.\Generated_Source\PSoC5/cyfitter_cfg.c **** 	/* Set Flash Cycles based on newly configured 24.00MHz Bus Clock. */
ARM GAS  C:\Users\Xwx47\AppData\Local\Temp\ccWb8HJO.s 			page 20


 456:.\Generated_Source\PSoC5/cyfitter_cfg.c **** 	CY_SET_XTND_REG8((void CYFAR *)(CYREG_CACHE_CC_CTL), (((CYDEV_INSTRUCT_CACHE_ENABLED) != 0) ? 0x81
 592              		.loc 1 456 0
 593 00ae 8123     		movs	r3, #129
 594 00b0 2B70     		strb	r3, [r5]
 457:.\Generated_Source\PSoC5/cyfitter_cfg.c **** 	CY_SET_XTND_REG8((void CYFAR *)(CYREG_PANTHER_WAITPIPE), 0x01u);
 595              		.loc 1 457 0
 596 00b2 0122     		movs	r2, #1
 597 00b4 124B     		ldr	r3, .L36+56
 598 00b6 1A70     		strb	r2, [r3]
 458:.\Generated_Source\PSoC5/cyfitter_cfg.c **** 
 459:.\Generated_Source\PSoC5/cyfitter_cfg.c **** 	/* Perform basic analog initialization to defaults */
 460:.\Generated_Source\PSoC5/cyfitter_cfg.c **** 	AnalogSetDefault();
 599              		.loc 1 460 0
 600 00b8 FFF7FEFF 		bl	AnalogSetDefault
 601              	.LVL47:
 461:.\Generated_Source\PSoC5/cyfitter_cfg.c **** 
 462:.\Generated_Source\PSoC5/cyfitter_cfg.c **** 	/* Configure alternate active mode */
 463:.\Generated_Source\PSoC5/cyfitter_cfg.c **** 	CYCONFIGCPY((void CYFAR *)CYDEV_PM_STBY_BASE, (const void CYFAR *)CYDEV_PM_ACT_BASE, 14u);
 602              		.loc 1 463 0
 603 00bc 1148     		ldr	r0, .L36+60
 604 00be 2146     		mov	r1, r4
 605 00c0 0E22     		movs	r2, #14
 606 00c2 FFF7FEFF 		bl	CYCONFIGCPY
 607              	.LVL48:
 608 00c6 38BD     		pop	{r3, r4, r5, pc}
 609              	.L37:
 610              		.align	2
 611              	.L36:
 612 00c8 E8460040 		.word	1073759976
 613 00cc 20000000 		.word	.LANCHOR0+32
 614 00d0 50000048 		.word	1207959632
 615 00d4 72580040 		.word	1073764466
 616 00d8 A0430040 		.word	1073759136
 617 00dc C2430040 		.word	1073759170
 618 00e0 F2510040 		.word	1073762802
 619 00e4 F8020048 		.word	1207960312
 620 00e8 12510040 		.word	1073762578
 621 00ec 00030048 		.word	1207960320
 622 00f0 22510040 		.word	1073762594
 623 00f4 08030048 		.word	1207960328
 624 00f8 DB080140 		.word	1073809627
 625 00fc 00480040 		.word	1073760256
 626 0100 04000840 		.word	1074266116
 627 0104 B0430040 		.word	1073759152
 628              		.cfi_endproc
 629              	.LFE10:
 630              		.size	cyfitter_cfg, .-cyfitter_cfg
 631              		.global	CapSense_AMuxCH0__maskTable
 632              		.global	CapSense_AMuxCH0__addrTable
 633              		.section	.rodata
 634              		.align	2
 635              		.set	.LANCHOR0,. + 0
 636              		.type	CapSense_AMuxCH0__addrTable, %object
 637              		.size	CapSense_AMuxCH0__addrTable, 24
 638              	CapSense_AMuxCH0__addrTable:
 639 0000 1C510040 		.word	1073762588
 640 0004 1C510040 		.word	1073762588
ARM GAS  C:\Users\Xwx47\AppData\Local\Temp\ccWb8HJO.s 			page 21


 641 0008 1C510040 		.word	1073762588
 642 000c FC510040 		.word	1073762812
 643 0010 CB5A0040 		.word	1073765067
 644 0014 9B5A0040 		.word	1073765019
 645              		.type	CapSense_AMuxCH0__maskTable, %object
 646              		.size	CapSense_AMuxCH0__maskTable, 6
 647              	CapSense_AMuxCH0__maskTable:
 648 0018 40       		.byte	64
 649 0019 10       		.byte	16
 650 001a 04       		.byte	4
 651 001b 10       		.byte	16
 652 001c 01       		.byte	1
 653 001d 10       		.byte	16
 654 001e 0000     		.space	2
 655              		.type	cfg_memset_list.4897, %object
 656              		.size	cfg_memset_list.4897, 48
 657              	cfg_memset_list.4897:
 658 0020 00510040 		.word	1073762560
 659 0024 1000     		.short	16
 660 0026 30510040 		.4byte	1073762608
 661 002a 4000     		.short	64
 662 002c C0510040 		.word	1073762752
 663 0030 1000     		.short	16
 664 0032 00000140 		.4byte	1073807360
 665 0036 0010     		.short	4096
 666 0038 00140140 		.word	1073812480
 667 003c 0008     		.short	2048
 668 003e 00400140 		.4byte	1073823744
 669 0042 000A     		.short	2560
 670 0044 004C0140 		.word	1073826816
 671 0048 0002     		.short	512
 672 004a 00500140 		.4byte	1073827840
 673 004e 2000     		.short	32
 674              		.text
 675              	.Letext0:
 676              		.file 2 "c:\\program files (x86)\\cypress\\psoc creator\\3.2\\psoc creator\\import\\gnu\\arm\\4.8.
 677              		.file 3 ".\\Generated_Source\\PSoC5\\cytypes.h"
 678              		.file 4 ".\\Generated_Source\\PSoC5\\CyLib.h"