ARM GAS  C:\Users\Xwx47\AppData\Local\Temp\ccyMTa9D.s 			page 1


   1              		.syntax unified
   2              		.cpu cortex-m3
   3              		.fpu softvfp
   4              		.eabi_attribute 20, 1
   5              		.eabi_attribute 21, 1
   6              		.eabi_attribute 23, 3
   7              		.eabi_attribute 24, 1
   8              		.eabi_attribute 25, 1
   9              		.eabi_attribute 26, 1
  10              		.eabi_attribute 30, 4
  11              		.eabi_attribute 34, 1
  12              		.eabi_attribute 18, 4
  13              		.thumb
  14              		.syntax unified
  15              		.file	"CapSense_CSHL.c"
  16              		.text
  17              	.Ltext0:
  18              		.cfi_sections	.debug_frame
  19              		.section	.text.CapSense_BaseInit,"ax",%progbits
  20              		.align	1
  21              		.global	CapSense_BaseInit
  22              		.thumb
  23              		.thumb_func
  24              		.type	CapSense_BaseInit, %function
  25              	CapSense_BaseInit:
  26              	.LFB0:
  27              		.file 1 "Generated_Source\\PSoC5\\CapSense_CSHL.c"
   1:Generated_Source\PSoC5/CapSense_CSHL.c **** /*******************************************************************************
   2:Generated_Source\PSoC5/CapSense_CSHL.c **** * File Name: CapSense_CSHL.c
   3:Generated_Source\PSoC5/CapSense_CSHL.c **** * Version 3.50
   4:Generated_Source\PSoC5/CapSense_CSHL.c **** *
   5:Generated_Source\PSoC5/CapSense_CSHL.c **** * Description:
   6:Generated_Source\PSoC5/CapSense_CSHL.c **** *  This file provides the source code to the High Level APIs for the CapSesne
   7:Generated_Source\PSoC5/CapSense_CSHL.c **** *  CSD component.
   8:Generated_Source\PSoC5/CapSense_CSHL.c **** *
   9:Generated_Source\PSoC5/CapSense_CSHL.c **** * Note:
  10:Generated_Source\PSoC5/CapSense_CSHL.c **** *
  11:Generated_Source\PSoC5/CapSense_CSHL.c **** ********************************************************************************
  12:Generated_Source\PSoC5/CapSense_CSHL.c **** * Copyright 2008-2013, Cypress Semiconductor Corporation.  All rights reserved.
  13:Generated_Source\PSoC5/CapSense_CSHL.c **** * You may use this file only in accordance with the license, terms, conditions,
  14:Generated_Source\PSoC5/CapSense_CSHL.c **** * disclaimers, and limitations in the end user license agreement accompanying
  15:Generated_Source\PSoC5/CapSense_CSHL.c **** * the software package with which this file was provided.
  16:Generated_Source\PSoC5/CapSense_CSHL.c **** *******************************************************************************/
  17:Generated_Source\PSoC5/CapSense_CSHL.c **** 
  18:Generated_Source\PSoC5/CapSense_CSHL.c **** #include "CapSense_CSHL.h"
  19:Generated_Source\PSoC5/CapSense_CSHL.c **** 
  20:Generated_Source\PSoC5/CapSense_CSHL.c **** /* Storage of filters data */
  21:Generated_Source\PSoC5/CapSense_CSHL.c **** #if ( (CapSense_RAW_FILTER_MASK & CapSense_MEDIAN_FILTER) | \
  22:Generated_Source\PSoC5/CapSense_CSHL.c ****       (CapSense_RAW_FILTER_MASK & CapSense_AVERAGING_FILTER) )
  23:Generated_Source\PSoC5/CapSense_CSHL.c **** 
  24:Generated_Source\PSoC5/CapSense_CSHL.c ****     uint16 CapSense_rawFilterData1[CapSense_TOTAL_SENSOR_COUNT];
  25:Generated_Source\PSoC5/CapSense_CSHL.c ****     uint16 CapSense_rawFilterData2[CapSense_TOTAL_SENSOR_COUNT];
  26:Generated_Source\PSoC5/CapSense_CSHL.c **** 
  27:Generated_Source\PSoC5/CapSense_CSHL.c **** #elif ( (CapSense_RAW_FILTER_MASK & CapSense_IIR2_FILTER)   | \
  28:Generated_Source\PSoC5/CapSense_CSHL.c ****         (CapSense_RAW_FILTER_MASK & CapSense_IIR4_FILTER)   | \
  29:Generated_Source\PSoC5/CapSense_CSHL.c ****         (CapSense_RAW_FILTER_MASK & CapSense_JITTER_FILTER) | \
  30:Generated_Source\PSoC5/CapSense_CSHL.c ****         (CapSense_RAW_FILTER_MASK & CapSense_IIR8_FILTER)   | \
ARM GAS  C:\Users\Xwx47\AppData\Local\Temp\ccyMTa9D.s 			page 2


  31:Generated_Source\PSoC5/CapSense_CSHL.c ****         (CapSense_RAW_FILTER_MASK & CapSense_IIR16_FILTER) )
  32:Generated_Source\PSoC5/CapSense_CSHL.c ****         
  33:Generated_Source\PSoC5/CapSense_CSHL.c ****     uint16 CapSense_rawFilterData1[CapSense_TOTAL_SENSOR_COUNT];
  34:Generated_Source\PSoC5/CapSense_CSHL.c **** 
  35:Generated_Source\PSoC5/CapSense_CSHL.c **** #else
  36:Generated_Source\PSoC5/CapSense_CSHL.c ****     /* No Raw filters */
  37:Generated_Source\PSoC5/CapSense_CSHL.c **** #endif  /* ( (CapSense_RAW_FILTER_MASK & CapSense_MEDIAN_FILTER) || \
  38:Generated_Source\PSoC5/CapSense_CSHL.c ****         *    (CapSense_RAW_FILTER_MASK & CapSense_AVERAGING_FILTER) )
  39:Generated_Source\PSoC5/CapSense_CSHL.c ****         */
  40:Generated_Source\PSoC5/CapSense_CSHL.c **** 
  41:Generated_Source\PSoC5/CapSense_CSHL.c **** uint16 CapSense_sensorBaseline[CapSense_TOTAL_SENSOR_COUNT];
  42:Generated_Source\PSoC5/CapSense_CSHL.c **** uint8 CapSense_sensorBaselineLow[CapSense_TOTAL_SENSOR_COUNT];
  43:Generated_Source\PSoC5/CapSense_CSHL.c **** uint8 CapSense_sensorSignal[CapSense_TOTAL_SENSOR_COUNT];
  44:Generated_Source\PSoC5/CapSense_CSHL.c **** uint8 CapSense_sensorOnMask[(((CapSense_TOTAL_SENSOR_COUNT - 1u) / 8u) + 1u)];
  45:Generated_Source\PSoC5/CapSense_CSHL.c **** 
  46:Generated_Source\PSoC5/CapSense_CSHL.c **** uint8 CapSense_lowBaselineResetCnt[CapSense_TOTAL_SENSOR_COUNT];
  47:Generated_Source\PSoC5/CapSense_CSHL.c **** 
  48:Generated_Source\PSoC5/CapSense_CSHL.c **** uint8 CapSense_fingerThreshold[] = {
  49:Generated_Source\PSoC5/CapSense_CSHL.c ****     100u, 100u, 100u, 
  50:Generated_Source\PSoC5/CapSense_CSHL.c **** };
  51:Generated_Source\PSoC5/CapSense_CSHL.c **** 
  52:Generated_Source\PSoC5/CapSense_CSHL.c **** uint8 CapSense_noiseThreshold[] = {
  53:Generated_Source\PSoC5/CapSense_CSHL.c ****     20u, 20u, 20u, 
  54:Generated_Source\PSoC5/CapSense_CSHL.c **** };
  55:Generated_Source\PSoC5/CapSense_CSHL.c **** 
  56:Generated_Source\PSoC5/CapSense_CSHL.c **** uint8 CapSense_hysteresis[] = {
  57:Generated_Source\PSoC5/CapSense_CSHL.c ****     10u, 10u, 10u, 
  58:Generated_Source\PSoC5/CapSense_CSHL.c **** };
  59:Generated_Source\PSoC5/CapSense_CSHL.c **** 
  60:Generated_Source\PSoC5/CapSense_CSHL.c **** uint8 CapSense_debounce[] = {
  61:Generated_Source\PSoC5/CapSense_CSHL.c ****     1u, 1u, 1u, 
  62:Generated_Source\PSoC5/CapSense_CSHL.c **** };
  63:Generated_Source\PSoC5/CapSense_CSHL.c **** 
  64:Generated_Source\PSoC5/CapSense_CSHL.c **** uint8 CapSense_debounceCounter[] = {
  65:Generated_Source\PSoC5/CapSense_CSHL.c ****     0u, 0u, 0u, 0u, 
  66:Generated_Source\PSoC5/CapSense_CSHL.c **** };
  67:Generated_Source\PSoC5/CapSense_CSHL.c **** 
  68:Generated_Source\PSoC5/CapSense_CSHL.c **** const uint8 CYCODE CapSense_rawDataIndex[] = {
  69:Generated_Source\PSoC5/CapSense_CSHL.c ****     0u, /* Button0__BTN */
  70:Generated_Source\PSoC5/CapSense_CSHL.c ****     1u, /* Button1__BTN */
  71:Generated_Source\PSoC5/CapSense_CSHL.c ****     2u, /* Button2__BTN */
  72:Generated_Source\PSoC5/CapSense_CSHL.c **** 
  73:Generated_Source\PSoC5/CapSense_CSHL.c **** };
  74:Generated_Source\PSoC5/CapSense_CSHL.c **** 
  75:Generated_Source\PSoC5/CapSense_CSHL.c **** const uint8 CYCODE CapSense_numberOfSensors[] = {
  76:Generated_Source\PSoC5/CapSense_CSHL.c ****     1u, /* Button0__BTN */
  77:Generated_Source\PSoC5/CapSense_CSHL.c ****     1u, /* Button1__BTN */
  78:Generated_Source\PSoC5/CapSense_CSHL.c ****     1u, /* Button2__BTN */
  79:Generated_Source\PSoC5/CapSense_CSHL.c **** 
  80:Generated_Source\PSoC5/CapSense_CSHL.c **** };
  81:Generated_Source\PSoC5/CapSense_CSHL.c **** 
  82:Generated_Source\PSoC5/CapSense_CSHL.c **** 
  83:Generated_Source\PSoC5/CapSense_CSHL.c **** 
  84:Generated_Source\PSoC5/CapSense_CSHL.c **** 
  85:Generated_Source\PSoC5/CapSense_CSHL.c **** /*******************************************************************************
  86:Generated_Source\PSoC5/CapSense_CSHL.c **** * Function Name: CapSense_BaseInit
  87:Generated_Source\PSoC5/CapSense_CSHL.c **** ********************************************************************************
ARM GAS  C:\Users\Xwx47\AppData\Local\Temp\ccyMTa9D.s 			page 3


  88:Generated_Source\PSoC5/CapSense_CSHL.c **** *
  89:Generated_Source\PSoC5/CapSense_CSHL.c **** * Summary:
  90:Generated_Source\PSoC5/CapSense_CSHL.c **** *  Loads the CapSense_sensorBaseline[sensor] array element with an 
  91:Generated_Source\PSoC5/CapSense_CSHL.c **** *  initial value which is equal to raw count value. 
  92:Generated_Source\PSoC5/CapSense_CSHL.c **** *  Resets to zero CapSense_sensorBaselineLow[sensor] and 
  93:Generated_Source\PSoC5/CapSense_CSHL.c **** *  CapSense_sensorSignal[sensor] array element.
  94:Generated_Source\PSoC5/CapSense_CSHL.c **** *  Loads CapSense_debounceCounter[sensor] array element with initial 
  95:Generated_Source\PSoC5/CapSense_CSHL.c **** *  value equal CapSense_debounce[].
  96:Generated_Source\PSoC5/CapSense_CSHL.c **** *  Loads the CapSense_rawFilterData2[sensor] and 
  97:Generated_Source\PSoC5/CapSense_CSHL.c **** *  CapSense_rawFilterData2[sensor] array element with an 
  98:Generated_Source\PSoC5/CapSense_CSHL.c **** *  initial value which is equal raw count value if raw data filter is enabled.
  99:Generated_Source\PSoC5/CapSense_CSHL.c **** *
 100:Generated_Source\PSoC5/CapSense_CSHL.c **** * Parameters:
 101:Generated_Source\PSoC5/CapSense_CSHL.c **** *  sensor:  Sensor number.
 102:Generated_Source\PSoC5/CapSense_CSHL.c **** *
 103:Generated_Source\PSoC5/CapSense_CSHL.c **** * Return:
 104:Generated_Source\PSoC5/CapSense_CSHL.c **** *  None
 105:Generated_Source\PSoC5/CapSense_CSHL.c **** *
 106:Generated_Source\PSoC5/CapSense_CSHL.c **** * Global Variables:
 107:Generated_Source\PSoC5/CapSense_CSHL.c **** *  CapSense_sensorBaseline[]    - used to store baseline value.
 108:Generated_Source\PSoC5/CapSense_CSHL.c **** *  CapSense_sensorBaselineLow[] - used to store fraction byte of 
 109:Generated_Source\PSoC5/CapSense_CSHL.c **** *  baseline value.
 110:Generated_Source\PSoC5/CapSense_CSHL.c **** *  CapSense_sensorSignal[]      - used to store diffence between 
 111:Generated_Source\PSoC5/CapSense_CSHL.c **** *  current value of raw data and previous value of baseline.
 112:Generated_Source\PSoC5/CapSense_CSHL.c **** *  CapSense_debounceCounter[]   - used to store current debounce 
 113:Generated_Source\PSoC5/CapSense_CSHL.c **** *  counter of sensor. Widget which has this parameter are buttons, matrix 
 114:Generated_Source\PSoC5/CapSense_CSHL.c **** *  buttons, proximity, guard. All other widgets haven't debounce parameter
 115:Generated_Source\PSoC5/CapSense_CSHL.c **** *  and use the last element of this array with value 0 (it means no debounce).
 116:Generated_Source\PSoC5/CapSense_CSHL.c **** *  CapSense_rawFilterData1[]    - used to store previous sample of 
 117:Generated_Source\PSoC5/CapSense_CSHL.c **** *  any enabled raw data filter.
 118:Generated_Source\PSoC5/CapSense_CSHL.c **** *  CapSense_rawFilterData2[]    - used to store before previous sample
 119:Generated_Source\PSoC5/CapSense_CSHL.c **** *  of enabled raw data filter. Only required for median or average filters.
 120:Generated_Source\PSoC5/CapSense_CSHL.c **** *
 121:Generated_Source\PSoC5/CapSense_CSHL.c **** * Reentrant:
 122:Generated_Source\PSoC5/CapSense_CSHL.c **** *  No
 123:Generated_Source\PSoC5/CapSense_CSHL.c **** *
 124:Generated_Source\PSoC5/CapSense_CSHL.c **** *******************************************************************************/
 125:Generated_Source\PSoC5/CapSense_CSHL.c **** void CapSense_BaseInit(uint8 sensor) 
 126:Generated_Source\PSoC5/CapSense_CSHL.c **** {
  28              		.loc 1 126 0
  29              		.cfi_startproc
  30              		@ args = 0, pretend = 0, frame = 0
  31              		@ frame_needed = 0, uses_anonymous_args = 0
  32              	.LVL0:
 127:Generated_Source\PSoC5/CapSense_CSHL.c ****     #if ((CapSense_TOTAL_BUTTONS_COUNT) || (CapSense_TOTAL_MATRIX_BUTTONS_COUNT) || \
 128:Generated_Source\PSoC5/CapSense_CSHL.c ****          (CapSense_TOTAL_GENERICS_COUNT))
 129:Generated_Source\PSoC5/CapSense_CSHL.c ****         uint8 widget = CapSense_widgetNumber[sensor];
  33              		.loc 1 129 0
  34 0000 0A4B     		ldr	r3, .L2
 130:Generated_Source\PSoC5/CapSense_CSHL.c ****     #endif /* ((CapSense_TOTAL_MATRIX_BUTTONS_COUNT) || (CapSense_TOTAL_MATRIX_BUTTONS_COUNT)) */
 131:Generated_Source\PSoC5/CapSense_CSHL.c ****     
 132:Generated_Source\PSoC5/CapSense_CSHL.c ****     #if (CapSense_TOTAL_MATRIX_BUTTONS_COUNT)
 133:Generated_Source\PSoC5/CapSense_CSHL.c ****         uint8 debounceIndex;
 134:Generated_Source\PSoC5/CapSense_CSHL.c ****     #endif  /* (CapSense_TOTAL_MATRIX_BUTTONS_COUNT) */
 135:Generated_Source\PSoC5/CapSense_CSHL.c ****     
 136:Generated_Source\PSoC5/CapSense_CSHL.c ****     #if (CapSense_TOTAL_GENERICS_COUNT)
 137:Generated_Source\PSoC5/CapSense_CSHL.c ****         /* Exclude generic widget */
ARM GAS  C:\Users\Xwx47\AppData\Local\Temp\ccyMTa9D.s 			page 4


 138:Generated_Source\PSoC5/CapSense_CSHL.c ****         if(widget < CapSense_END_OF_WIDGETS_INDEX)
 139:Generated_Source\PSoC5/CapSense_CSHL.c ****         {
 140:Generated_Source\PSoC5/CapSense_CSHL.c ****     #endif  /* CapSense_TOTAL_GENERICS_COUNT */
 141:Generated_Source\PSoC5/CapSense_CSHL.c ****     
 142:Generated_Source\PSoC5/CapSense_CSHL.c ****     /* Initialize Baseline */
 143:Generated_Source\PSoC5/CapSense_CSHL.c ****     CapSense_sensorBaseline[sensor] = CapSense_sensorRaw[sensor];
  35              		.loc 1 143 0
  36 0002 0B49     		ldr	r1, .L2+4
 129:Generated_Source\PSoC5/CapSense_CSHL.c ****     #endif /* ((CapSense_TOTAL_MATRIX_BUTTONS_COUNT) || (CapSense_TOTAL_MATRIX_BUTTONS_COUNT)) */
  37              		.loc 1 129 0
  38 0004 1A5C     		ldrb	r2, [r3, r0]	@ zero_extendqisi2
  39              	.LVL1:
  40              		.loc 1 143 0
  41 0006 0B4B     		ldr	r3, .L2+8
 126:Generated_Source\PSoC5/CapSense_CSHL.c ****     #if ((CapSense_TOTAL_BUTTONS_COUNT) || (CapSense_TOTAL_MATRIX_BUTTONS_COUNT) || \
  42              		.loc 1 126 0
  43 0008 10B5     		push	{r4, lr}
  44              		.cfi_def_cfa_offset 8
  45              		.cfi_offset 4, -8
  46              		.cfi_offset 14, -4
  47              		.loc 1 143 0
  48 000a 33F81030 		ldrh	r3, [r3, r0, lsl #1]
 144:Generated_Source\PSoC5/CapSense_CSHL.c ****     CapSense_sensorBaselineLow[sensor] = 0u;
  49              		.loc 1 144 0
  50 000e 0A4C     		ldr	r4, .L2+12
 143:Generated_Source\PSoC5/CapSense_CSHL.c ****     CapSense_sensorBaselineLow[sensor] = 0u;
  51              		.loc 1 143 0
  52 0010 21F81030 		strh	r3, [r1, r0, lsl #1]	@ movhi
  53              		.loc 1 144 0
  54 0014 0021     		movs	r1, #0
  55 0016 2154     		strb	r1, [r4, r0]
 145:Generated_Source\PSoC5/CapSense_CSHL.c ****     CapSense_sensorSignal[sensor] = 0u;
  56              		.loc 1 145 0
  57 0018 084C     		ldr	r4, .L2+16
  58 001a 2154     		strb	r1, [r4, r0]
 146:Generated_Source\PSoC5/CapSense_CSHL.c ****         
 147:Generated_Source\PSoC5/CapSense_CSHL.c ****     CapSense_debounceCounter[widget] =  CapSense_debounce[widget];
  59              		.loc 1 147 0
  60 001c 0849     		ldr	r1, .L2+20
  61 001e 8C5C     		ldrb	r4, [r1, r2]	@ zero_extendqisi2
  62 0020 0849     		ldr	r1, .L2+24
  63 0022 8C54     		strb	r4, [r1, r2]
 148:Generated_Source\PSoC5/CapSense_CSHL.c **** 
 149:Generated_Source\PSoC5/CapSense_CSHL.c ****     
 150:Generated_Source\PSoC5/CapSense_CSHL.c ****     #if ((CapSense_RAW_FILTER_MASK & CapSense_MEDIAN_FILTER) |\
 151:Generated_Source\PSoC5/CapSense_CSHL.c ****          (CapSense_RAW_FILTER_MASK & CapSense_AVERAGING_FILTER))
 152:Generated_Source\PSoC5/CapSense_CSHL.c **** 
 153:Generated_Source\PSoC5/CapSense_CSHL.c ****         CapSense_rawFilterData1[sensor] = CapSense_sensorRaw[sensor];
 154:Generated_Source\PSoC5/CapSense_CSHL.c ****         CapSense_rawFilterData2[sensor] = CapSense_sensorRaw[sensor];
 155:Generated_Source\PSoC5/CapSense_CSHL.c ****     
 156:Generated_Source\PSoC5/CapSense_CSHL.c ****     #elif ((CapSense_RAW_FILTER_MASK & CapSense_IIR2_FILTER) |\
 157:Generated_Source\PSoC5/CapSense_CSHL.c ****            (CapSense_RAW_FILTER_MASK & CapSense_IIR4_FILTER) |\
 158:Generated_Source\PSoC5/CapSense_CSHL.c ****            (CapSense_RAW_FILTER_MASK & CapSense_JITTER_FILTER) |\
 159:Generated_Source\PSoC5/CapSense_CSHL.c ****            (CapSense_RAW_FILTER_MASK & CapSense_IIR8_FILTER) |\
 160:Generated_Source\PSoC5/CapSense_CSHL.c ****            (CapSense_RAW_FILTER_MASK & CapSense_IIR16_FILTER))
 161:Generated_Source\PSoC5/CapSense_CSHL.c ****             
 162:Generated_Source\PSoC5/CapSense_CSHL.c ****         CapSense_rawFilterData1[sensor] = CapSense_sensorRaw[sensor];
ARM GAS  C:\Users\Xwx47\AppData\Local\Temp\ccyMTa9D.s 			page 5


  64              		.loc 1 162 0
  65 0024 084A     		ldr	r2, .L2+28
  66              	.LVL2:
  67 0026 22F81030 		strh	r3, [r2, r0, lsl #1]	@ movhi
  68 002a 10BD     		pop	{r4, pc}
  69              	.L3:
  70              		.align	2
  71              	.L2:
  72 002c 00000000 		.word	CapSense_widgetNumber
  73 0030 00000000 		.word	CapSense_sensorBaseline
  74 0034 00000000 		.word	CapSense_sensorRaw
  75 0038 00000000 		.word	CapSense_sensorBaselineLow
  76 003c 00000000 		.word	CapSense_sensorSignal
  77 0040 00000000 		.word	.LANCHOR1
  78 0044 00000000 		.word	.LANCHOR0
  79 0048 00000000 		.word	CapSense_rawFilterData1
  80              		.cfi_endproc
  81              	.LFE0:
  82              		.size	CapSense_BaseInit, .-CapSense_BaseInit
  83              		.section	.text.CapSense_InitializeSensorBaseline,"ax",%progbits
  84              		.align	1
  85              		.global	CapSense_InitializeSensorBaseline
  86              		.thumb
  87              		.thumb_func
  88              		.type	CapSense_InitializeSensorBaseline, %function
  89              	CapSense_InitializeSensorBaseline:
  90              	.LFB1:
 163:Generated_Source\PSoC5/CapSense_CSHL.c ****     
 164:Generated_Source\PSoC5/CapSense_CSHL.c ****     #else
 165:Generated_Source\PSoC5/CapSense_CSHL.c ****         /* No Raw filters */
 166:Generated_Source\PSoC5/CapSense_CSHL.c ****     #endif  /* ((CapSense_RAW_FILTER_MASK & CapSense_MEDIAN_FILTER) | \
 167:Generated_Source\PSoC5/CapSense_CSHL.c ****             *   (CapSense_RAW_FILTER_MASK & CapSense_AVERAGING_FILTER))
 168:Generated_Source\PSoC5/CapSense_CSHL.c ****             */
 169:Generated_Source\PSoC5/CapSense_CSHL.c ****     
 170:Generated_Source\PSoC5/CapSense_CSHL.c ****     #if (CapSense_TOTAL_GENERICS_COUNT)
 171:Generated_Source\PSoC5/CapSense_CSHL.c ****         /* Exclude generic widget */
 172:Generated_Source\PSoC5/CapSense_CSHL.c ****         }
 173:Generated_Source\PSoC5/CapSense_CSHL.c ****     #endif  /* CapSense_TOTAL_GENERICS_COUNT */
 174:Generated_Source\PSoC5/CapSense_CSHL.c **** }
 175:Generated_Source\PSoC5/CapSense_CSHL.c **** 
 176:Generated_Source\PSoC5/CapSense_CSHL.c **** 
 177:Generated_Source\PSoC5/CapSense_CSHL.c **** /*******************************************************************************
 178:Generated_Source\PSoC5/CapSense_CSHL.c **** * Function Name: CapSense_InitializeSensorBaseline
 179:Generated_Source\PSoC5/CapSense_CSHL.c **** ********************************************************************************
 180:Generated_Source\PSoC5/CapSense_CSHL.c **** *
 181:Generated_Source\PSoC5/CapSense_CSHL.c **** * Summary:
 182:Generated_Source\PSoC5/CapSense_CSHL.c **** *  Loads the CapSense_sensorBaseline[sensor] array element with an 
 183:Generated_Source\PSoC5/CapSense_CSHL.c **** *  initial value by scanning the selected sensor (one channel design) or pair 
 184:Generated_Source\PSoC5/CapSense_CSHL.c **** *  of sensors (two channels designs). The raw count value is copied into the 
 185:Generated_Source\PSoC5/CapSense_CSHL.c **** *  baseline array for each sensor. The raw data filters are initialized if 
 186:Generated_Source\PSoC5/CapSense_CSHL.c **** *  enabled.
 187:Generated_Source\PSoC5/CapSense_CSHL.c **** *
 188:Generated_Source\PSoC5/CapSense_CSHL.c **** * Parameters:
 189:Generated_Source\PSoC5/CapSense_CSHL.c **** *  sensor:  Sensor number.
 190:Generated_Source\PSoC5/CapSense_CSHL.c **** *
 191:Generated_Source\PSoC5/CapSense_CSHL.c **** * Return:
 192:Generated_Source\PSoC5/CapSense_CSHL.c **** *  None
ARM GAS  C:\Users\Xwx47\AppData\Local\Temp\ccyMTa9D.s 			page 6


 193:Generated_Source\PSoC5/CapSense_CSHL.c **** *
 194:Generated_Source\PSoC5/CapSense_CSHL.c **** * Reentrant:
 195:Generated_Source\PSoC5/CapSense_CSHL.c **** *  No
 196:Generated_Source\PSoC5/CapSense_CSHL.c **** *
 197:Generated_Source\PSoC5/CapSense_CSHL.c **** *******************************************************************************/
 198:Generated_Source\PSoC5/CapSense_CSHL.c **** void CapSense_InitializeSensorBaseline(uint8 sensor)
 199:Generated_Source\PSoC5/CapSense_CSHL.c ****                           
 200:Generated_Source\PSoC5/CapSense_CSHL.c **** {
  91              		.loc 1 200 0
  92              		.cfi_startproc
  93              		@ args = 0, pretend = 0, frame = 0
  94              		@ frame_needed = 0, uses_anonymous_args = 0
  95              	.LVL3:
  96 0000 10B5     		push	{r4, lr}
  97              		.cfi_def_cfa_offset 8
  98              		.cfi_offset 4, -8
  99              		.cfi_offset 14, -4
 100              		.loc 1 200 0
 101 0002 0446     		mov	r4, r0
 201:Generated_Source\PSoC5/CapSense_CSHL.c ****     /* Scan sensor */
 202:Generated_Source\PSoC5/CapSense_CSHL.c ****     CapSense_ScanSensor(sensor);
 102              		.loc 1 202 0
 103 0004 FFF7FEFF 		bl	CapSense_ScanSensor
 104              	.LVL4:
 105              	.L5:
 203:Generated_Source\PSoC5/CapSense_CSHL.c ****     while(CapSense_IsBusy() != 0u)
 106              		.loc 1 203 0 discriminator 1
 107 0008 FFF7FEFF 		bl	CapSense_IsBusy
 108              	.LVL5:
 109 000c 0028     		cmp	r0, #0
 110 000e FBD1     		bne	.L5
 204:Generated_Source\PSoC5/CapSense_CSHL.c ****     {
 205:Generated_Source\PSoC5/CapSense_CSHL.c ****         /* Wait while busy */
 206:Generated_Source\PSoC5/CapSense_CSHL.c ****     }
 207:Generated_Source\PSoC5/CapSense_CSHL.c ****     
 208:Generated_Source\PSoC5/CapSense_CSHL.c ****     #if (CapSense_DESIGN_TYPE == CapSense_ONE_CHANNEL_DESIGN)
 209:Generated_Source\PSoC5/CapSense_CSHL.c ****         /* Initialize Baseline, Signal and debounce counters */       
 210:Generated_Source\PSoC5/CapSense_CSHL.c ****         CapSense_BaseInit(sensor);
 111              		.loc 1 210 0
 112 0010 2046     		mov	r0, r4
 211:Generated_Source\PSoC5/CapSense_CSHL.c ****         
 212:Generated_Source\PSoC5/CapSense_CSHL.c ****     #else
 213:Generated_Source\PSoC5/CapSense_CSHL.c ****     
 214:Generated_Source\PSoC5/CapSense_CSHL.c ****         if(sensor < CapSense_TOTAL_SENSOR_COUNT__CH0)
 215:Generated_Source\PSoC5/CapSense_CSHL.c ****         {
 216:Generated_Source\PSoC5/CapSense_CSHL.c ****             /* Initialize Baseline, Signal and debounce counters */ 
 217:Generated_Source\PSoC5/CapSense_CSHL.c ****             CapSense_BaseInit(sensor);
 218:Generated_Source\PSoC5/CapSense_CSHL.c ****         }
 219:Generated_Source\PSoC5/CapSense_CSHL.c ****         
 220:Generated_Source\PSoC5/CapSense_CSHL.c ****         if(sensor < CapSense_TOTAL_SENSOR_COUNT__CH1)
 221:Generated_Source\PSoC5/CapSense_CSHL.c ****         {
 222:Generated_Source\PSoC5/CapSense_CSHL.c ****             /* Initialize Baseline, Signal and debounce counters */
 223:Generated_Source\PSoC5/CapSense_CSHL.c ****             CapSense_BaseInit(sensor + CapSense_TOTAL_SENSOR_COUNT__CH0);
 224:Generated_Source\PSoC5/CapSense_CSHL.c ****         }
 225:Generated_Source\PSoC5/CapSense_CSHL.c ****     
 226:Generated_Source\PSoC5/CapSense_CSHL.c ****     #endif  /* (CapSense_DESIGN_TYPE == CapSense_ONE_CHANNEL_DESIGN) */
 227:Generated_Source\PSoC5/CapSense_CSHL.c **** }
ARM GAS  C:\Users\Xwx47\AppData\Local\Temp\ccyMTa9D.s 			page 7


 113              		.loc 1 227 0
 114 0012 BDE81040 		pop	{r4, lr}
 115              		.cfi_restore 14
 116              		.cfi_restore 4
 117              		.cfi_def_cfa_offset 0
 210:Generated_Source\PSoC5/CapSense_CSHL.c ****         
 118              		.loc 1 210 0
 119 0016 FFF7FEBF 		b	CapSense_BaseInit
 120              	.LVL6:
 121              		.cfi_endproc
 122              	.LFE1:
 123              		.size	CapSense_InitializeSensorBaseline, .-CapSense_InitializeSensorBaseline
 124              		.section	.text.CapSense_InitializeAllBaselines,"ax",%progbits
 125              		.align	1
 126              		.global	CapSense_InitializeAllBaselines
 127              		.thumb
 128              		.thumb_func
 129              		.type	CapSense_InitializeAllBaselines, %function
 130              	CapSense_InitializeAllBaselines:
 131              	.LFB2:
 228:Generated_Source\PSoC5/CapSense_CSHL.c **** 
 229:Generated_Source\PSoC5/CapSense_CSHL.c **** 
 230:Generated_Source\PSoC5/CapSense_CSHL.c **** /*******************************************************************************
 231:Generated_Source\PSoC5/CapSense_CSHL.c **** * Function Name: CapSense_InitializeAllBaselines
 232:Generated_Source\PSoC5/CapSense_CSHL.c **** ********************************************************************************
 233:Generated_Source\PSoC5/CapSense_CSHL.c **** *
 234:Generated_Source\PSoC5/CapSense_CSHL.c **** * Summary:
 235:Generated_Source\PSoC5/CapSense_CSHL.c **** *  Uses the CapSense_InitializeSensorBaseline function to loads the 
 236:Generated_Source\PSoC5/CapSense_CSHL.c **** *  CapSense_sensorBaseline[] array with an initial values by scanning 
 237:Generated_Source\PSoC5/CapSense_CSHL.c **** *  all sensors. The raw count values are copied into the baseline array for 
 238:Generated_Source\PSoC5/CapSense_CSHL.c **** *  all sensors. The raw data filters are initialized if enabled.
 239:Generated_Source\PSoC5/CapSense_CSHL.c **** *
 240:Generated_Source\PSoC5/CapSense_CSHL.c **** * Parameters:
 241:Generated_Source\PSoC5/CapSense_CSHL.c **** *  None
 242:Generated_Source\PSoC5/CapSense_CSHL.c **** *
 243:Generated_Source\PSoC5/CapSense_CSHL.c **** * Return:
 244:Generated_Source\PSoC5/CapSense_CSHL.c **** *  None
 245:Generated_Source\PSoC5/CapSense_CSHL.c **** *
 246:Generated_Source\PSoC5/CapSense_CSHL.c **** * Reentrant:
 247:Generated_Source\PSoC5/CapSense_CSHL.c **** *  No
 248:Generated_Source\PSoC5/CapSense_CSHL.c **** *
 249:Generated_Source\PSoC5/CapSense_CSHL.c **** *******************************************************************************/
 250:Generated_Source\PSoC5/CapSense_CSHL.c **** void CapSense_InitializeAllBaselines(void)
 251:Generated_Source\PSoC5/CapSense_CSHL.c ****                           
 252:Generated_Source\PSoC5/CapSense_CSHL.c **** {
 132              		.loc 1 252 0
 133              		.cfi_startproc
 134              		@ args = 0, pretend = 0, frame = 0
 135              		@ frame_needed = 0, uses_anonymous_args = 0
 136              	.LVL7:
 137 0000 08B5     		push	{r3, lr}
 138              		.cfi_def_cfa_offset 8
 139              		.cfi_offset 3, -8
 140              		.cfi_offset 14, -4
 253:Generated_Source\PSoC5/CapSense_CSHL.c ****     uint8 i;
 254:Generated_Source\PSoC5/CapSense_CSHL.c ****     
 255:Generated_Source\PSoC5/CapSense_CSHL.c ****     /* The baseline initialize by sensor of sensor pair */
ARM GAS  C:\Users\Xwx47\AppData\Local\Temp\ccyMTa9D.s 			page 8


 256:Generated_Source\PSoC5/CapSense_CSHL.c ****     for(i = 0u; i < CapSense_TOTAL_SCANSLOT_COUNT; i++)
 257:Generated_Source\PSoC5/CapSense_CSHL.c ****     {
 258:Generated_Source\PSoC5/CapSense_CSHL.c ****         CapSense_InitializeSensorBaseline(i);
 141              		.loc 1 258 0
 142 0002 0020     		movs	r0, #0
 143 0004 FFF7FEFF 		bl	CapSense_InitializeSensorBaseline
 144              	.LVL8:
 145 0008 0120     		movs	r0, #1
 146 000a FFF7FEFF 		bl	CapSense_InitializeSensorBaseline
 147              	.LVL9:
 259:Generated_Source\PSoC5/CapSense_CSHL.c ****     }
 260:Generated_Source\PSoC5/CapSense_CSHL.c **** }
 148              		.loc 1 260 0
 149 000e BDE80840 		pop	{r3, lr}
 150              		.cfi_restore 14
 151              		.cfi_restore 3
 152              		.cfi_def_cfa_offset 0
 258:Generated_Source\PSoC5/CapSense_CSHL.c ****     }
 153              		.loc 1 258 0
 154 0012 0220     		movs	r0, #2
 155 0014 FFF7FEBF 		b	CapSense_InitializeSensorBaseline
 156              	.LVL10:
 157              		.cfi_endproc
 158              	.LFE2:
 159              		.size	CapSense_InitializeAllBaselines, .-CapSense_InitializeAllBaselines
 160              		.section	.text.CapSense_InitializeEnabledBaselines,"ax",%progbits
 161              		.align	1
 162              		.global	CapSense_InitializeEnabledBaselines
 163              		.thumb
 164              		.thumb_func
 165              		.type	CapSense_InitializeEnabledBaselines, %function
 166              	CapSense_InitializeEnabledBaselines:
 167              	.LFB3:
 261:Generated_Source\PSoC5/CapSense_CSHL.c **** 
 262:Generated_Source\PSoC5/CapSense_CSHL.c **** 
 263:Generated_Source\PSoC5/CapSense_CSHL.c **** /*******************************************************************************
 264:Generated_Source\PSoC5/CapSense_CSHL.c **** * Function Name: CapSense_InitializeEnabledBaselines
 265:Generated_Source\PSoC5/CapSense_CSHL.c **** ********************************************************************************
 266:Generated_Source\PSoC5/CapSense_CSHL.c **** *
 267:Generated_Source\PSoC5/CapSense_CSHL.c **** * Summary:
 268:Generated_Source\PSoC5/CapSense_CSHL.c **** *  Scans all enabled widgets and the raw count values are copied into the 
 269:Generated_Source\PSoC5/CapSense_CSHL.c **** *  baseline array for all sensors enabled in scanning process. Baselines 
 270:Generated_Source\PSoC5/CapSense_CSHL.c **** *  initialize with zero values for sensors disabled from scanning process. 
 271:Generated_Source\PSoC5/CapSense_CSHL.c **** *  The raw data filters are initialized if enabled.
 272:Generated_Source\PSoC5/CapSense_CSHL.c **** *
 273:Generated_Source\PSoC5/CapSense_CSHL.c **** * Parameters:
 274:Generated_Source\PSoC5/CapSense_CSHL.c **** *  None
 275:Generated_Source\PSoC5/CapSense_CSHL.c **** *
 276:Generated_Source\PSoC5/CapSense_CSHL.c **** * Return:
 277:Generated_Source\PSoC5/CapSense_CSHL.c **** *  None
 278:Generated_Source\PSoC5/CapSense_CSHL.c **** *
 279:Generated_Source\PSoC5/CapSense_CSHL.c **** * Reentrant:
 280:Generated_Source\PSoC5/CapSense_CSHL.c **** *  No
 281:Generated_Source\PSoC5/CapSense_CSHL.c **** *
 282:Generated_Source\PSoC5/CapSense_CSHL.c **** *******************************************************************************/
 283:Generated_Source\PSoC5/CapSense_CSHL.c **** void CapSense_InitializeEnabledBaselines(void)
 284:Generated_Source\PSoC5/CapSense_CSHL.c ****                              
ARM GAS  C:\Users\Xwx47\AppData\Local\Temp\ccyMTa9D.s 			page 9


 285:Generated_Source\PSoC5/CapSense_CSHL.c **** {
 168              		.loc 1 285 0
 169              		.cfi_startproc
 170              		@ args = 0, pretend = 0, frame = 0
 171              		@ frame_needed = 0, uses_anonymous_args = 0
 172 0000 F8B5     		push	{r3, r4, r5, r6, r7, lr}
 173              		.cfi_def_cfa_offset 24
 174              		.cfi_offset 3, -24
 175              		.cfi_offset 4, -20
 176              		.cfi_offset 5, -16
 177              		.cfi_offset 6, -12
 178              		.cfi_offset 7, -8
 179              		.cfi_offset 14, -4
 286:Generated_Source\PSoC5/CapSense_CSHL.c ****     uint8 i;
 287:Generated_Source\PSoC5/CapSense_CSHL.c ****     uint8 pos;
 288:Generated_Source\PSoC5/CapSense_CSHL.c ****     uint8 enMask;
 289:Generated_Source\PSoC5/CapSense_CSHL.c ****     
 290:Generated_Source\PSoC5/CapSense_CSHL.c ****     CapSense_ScanEnabledWidgets();
 180              		.loc 1 290 0
 181 0002 FFF7FEFF 		bl	CapSense_ScanEnabledWidgets
 182              	.LVL11:
 183              	.L10:
 291:Generated_Source\PSoC5/CapSense_CSHL.c ****     while(CapSense_IsBusy() != 0u)
 184              		.loc 1 291 0 discriminator 1
 185 0006 FFF7FEFF 		bl	CapSense_IsBusy
 186              	.LVL12:
 187 000a 0028     		cmp	r0, #0
 188 000c FBD1     		bne	.L10
 189 000e 0446     		mov	r4, r0
 292:Generated_Source\PSoC5/CapSense_CSHL.c ****     {
 293:Generated_Source\PSoC5/CapSense_CSHL.c ****         /* Wait while busy */
 294:Generated_Source\PSoC5/CapSense_CSHL.c ****     }
 295:Generated_Source\PSoC5/CapSense_CSHL.c ****     
 296:Generated_Source\PSoC5/CapSense_CSHL.c ****     for(i = 0u; i < CapSense_TOTAL_SENSOR_COUNT; i++)
 297:Generated_Source\PSoC5/CapSense_CSHL.c ****     {
 298:Generated_Source\PSoC5/CapSense_CSHL.c ****         pos = (i >> 3u);
 299:Generated_Source\PSoC5/CapSense_CSHL.c ****         enMask = 0x01u << (i & 0x07u);
 300:Generated_Source\PSoC5/CapSense_CSHL.c ****         
 301:Generated_Source\PSoC5/CapSense_CSHL.c ****         /* Clear raw data if sensor is disabled from scanning process */
 302:Generated_Source\PSoC5/CapSense_CSHL.c ****         if((CapSense_sensorEnableMask[pos] & enMask) == 0u)
 190              		.loc 1 302 0
 191 0010 084E     		ldr	r6, .L15
 303:Generated_Source\PSoC5/CapSense_CSHL.c ****         {
 304:Generated_Source\PSoC5/CapSense_CSHL.c ****             CapSense_sensorRaw[i] = 0u;
 192              		.loc 1 304 0
 193 0012 094F     		ldr	r7, .L15+4
 302:Generated_Source\PSoC5/CapSense_CSHL.c ****         {
 194              		.loc 1 302 0
 195 0014 0125     		movs	r5, #1
 196              	.L12:
 197 0016 3278     		ldrb	r2, [r6]	@ zero_extendqisi2
 198 0018 05FA04F3 		lsl	r3, r5, r4
 199 001c 1340     		ands	r3, r3, r2
 200              		.loc 1 304 0
 201 001e 08BF     		it	eq
 202 0020 27F81430 		strheq	r3, [r7, r4, lsl #1]	@ movhi
 203 0024 E0B2     		uxtb	r0, r4
ARM GAS  C:\Users\Xwx47\AppData\Local\Temp\ccyMTa9D.s 			page 10


 204              	.LVL13:
 205 0026 0134     		adds	r4, r4, #1
 206              	.LVL14:
 305:Generated_Source\PSoC5/CapSense_CSHL.c ****         }
 306:Generated_Source\PSoC5/CapSense_CSHL.c ****         
 307:Generated_Source\PSoC5/CapSense_CSHL.c ****         /* Initialize baselines */
 308:Generated_Source\PSoC5/CapSense_CSHL.c ****         CapSense_BaseInit(i);
 207              		.loc 1 308 0
 208 0028 FFF7FEFF 		bl	CapSense_BaseInit
 209              	.LVL15:
 296:Generated_Source\PSoC5/CapSense_CSHL.c ****     {
 210              		.loc 1 296 0
 211 002c 032C     		cmp	r4, #3
 212 002e F2D1     		bne	.L12
 309:Generated_Source\PSoC5/CapSense_CSHL.c ****     }
 310:Generated_Source\PSoC5/CapSense_CSHL.c **** }  
 213              		.loc 1 310 0
 214 0030 F8BD     		pop	{r3, r4, r5, r6, r7, pc}
 215              	.L16:
 216 0032 00BF     		.align	2
 217              	.L15:
 218 0034 00000000 		.word	CapSense_sensorEnableMask
 219 0038 00000000 		.word	CapSense_sensorRaw
 220              		.cfi_endproc
 221              	.LFE3:
 222              		.size	CapSense_InitializeEnabledBaselines, .-CapSense_InitializeEnabledBaselines
 223              		.section	.text.CapSense_UpdateSensorBaseline,"ax",%progbits
 224              		.align	1
 225              		.global	CapSense_UpdateSensorBaseline
 226              		.thumb
 227              		.thumb_func
 228              		.type	CapSense_UpdateSensorBaseline, %function
 229              	CapSense_UpdateSensorBaseline:
 230              	.LFB4:
 311:Generated_Source\PSoC5/CapSense_CSHL.c **** 
 312:Generated_Source\PSoC5/CapSense_CSHL.c **** 
 313:Generated_Source\PSoC5/CapSense_CSHL.c **** /*******************************************************************************
 314:Generated_Source\PSoC5/CapSense_CSHL.c **** * Function Name: CapSense_UpdateSensorBaseline
 315:Generated_Source\PSoC5/CapSense_CSHL.c **** ********************************************************************************
 316:Generated_Source\PSoC5/CapSense_CSHL.c **** *
 317:Generated_Source\PSoC5/CapSense_CSHL.c **** * Summary:
 318:Generated_Source\PSoC5/CapSense_CSHL.c **** *  Updates the CapSense_sensorBaseline[sensor] array element using the 
 319:Generated_Source\PSoC5/CapSense_CSHL.c **** *  LP filter with k = 256. The signal calculates the difference of count by 
 320:Generated_Source\PSoC5/CapSense_CSHL.c **** *  subtracting the previous baseline from the current raw count value and stores
 321:Generated_Source\PSoC5/CapSense_CSHL.c **** *  it in CapSense_SensorSignal[sensor]. 
 322:Generated_Source\PSoC5/CapSense_CSHL.c **** *  If auto reset option is enabled the baseline updated regards noise threshold. 
 323:Generated_Source\PSoC5/CapSense_CSHL.c **** *  If auto reset option is disabled the baseline stops updating if signal is 
 324:Generated_Source\PSoC5/CapSense_CSHL.c **** *  greater that zero and baseline loads with raw count value if signal is less 
 325:Generated_Source\PSoC5/CapSense_CSHL.c **** *  that noise threshold.
 326:Generated_Source\PSoC5/CapSense_CSHL.c **** *  Raw data filters are applied to the values if enabled before baseline 
 327:Generated_Source\PSoC5/CapSense_CSHL.c **** *  calculation.
 328:Generated_Source\PSoC5/CapSense_CSHL.c **** *
 329:Generated_Source\PSoC5/CapSense_CSHL.c **** * Parameters:
 330:Generated_Source\PSoC5/CapSense_CSHL.c **** *  sensor:  Sensor number.
 331:Generated_Source\PSoC5/CapSense_CSHL.c **** *
 332:Generated_Source\PSoC5/CapSense_CSHL.c **** * Return:
 333:Generated_Source\PSoC5/CapSense_CSHL.c **** *  None
ARM GAS  C:\Users\Xwx47\AppData\Local\Temp\ccyMTa9D.s 			page 11


 334:Generated_Source\PSoC5/CapSense_CSHL.c **** *
 335:Generated_Source\PSoC5/CapSense_CSHL.c **** * Global Variables:
 336:Generated_Source\PSoC5/CapSense_CSHL.c **** *  CapSense_sensorBaseline[]    - used to store baseline value.
 337:Generated_Source\PSoC5/CapSense_CSHL.c **** *  CapSense_sensorBaselineLow[] - used to store fraction byte of 
 338:Generated_Source\PSoC5/CapSense_CSHL.c **** *  baseline value.
 339:Generated_Source\PSoC5/CapSense_CSHL.c **** *  CapSense_sensorSignal[]      - used to store diffence between 
 340:Generated_Source\PSoC5/CapSense_CSHL.c **** *  current value of raw data and previous value of baseline.
 341:Generated_Source\PSoC5/CapSense_CSHL.c **** *  CapSense_rawFilterData1[]    - used to store previous sample of 
 342:Generated_Source\PSoC5/CapSense_CSHL.c **** *  any enabled raw data filter.
 343:Generated_Source\PSoC5/CapSense_CSHL.c **** *  CapSense_rawFilterData2[]    - used to store before previous sample
 344:Generated_Source\PSoC5/CapSense_CSHL.c **** *  of enabled raw data filter. Only required for median or average filters.
 345:Generated_Source\PSoC5/CapSense_CSHL.c **** *
 346:Generated_Source\PSoC5/CapSense_CSHL.c **** * Reentrant:
 347:Generated_Source\PSoC5/CapSense_CSHL.c **** *  No
 348:Generated_Source\PSoC5/CapSense_CSHL.c **** *
 349:Generated_Source\PSoC5/CapSense_CSHL.c **** *******************************************************************************/
 350:Generated_Source\PSoC5/CapSense_CSHL.c ****  void CapSense_UpdateSensorBaseline(uint8 sensor)
 351:Generated_Source\PSoC5/CapSense_CSHL.c ****                                  
 352:Generated_Source\PSoC5/CapSense_CSHL.c **** {
 231              		.loc 1 352 0
 232              		.cfi_startproc
 233              		@ args = 0, pretend = 0, frame = 0
 234              		@ frame_needed = 0, uses_anonymous_args = 0
 235              	.LVL16:
 236 0000 2DE9F041 		push	{r4, r5, r6, r7, r8, lr}
 237              		.cfi_def_cfa_offset 24
 238              		.cfi_offset 4, -24
 239              		.cfi_offset 5, -20
 240              		.cfi_offset 6, -16
 241              		.cfi_offset 7, -12
 242              		.cfi_offset 8, -8
 243              		.cfi_offset 14, -4
 244              		.loc 1 352 0
 245 0004 0446     		mov	r4, r0
 353:Generated_Source\PSoC5/CapSense_CSHL.c ****     uint32 calc;
 354:Generated_Source\PSoC5/CapSense_CSHL.c ****     uint16 tempRaw;
 355:Generated_Source\PSoC5/CapSense_CSHL.c ****     uint16 filteredRawData;
 356:Generated_Source\PSoC5/CapSense_CSHL.c ****     uint8 widget = CapSense_widgetNumber[sensor];
 246              		.loc 1 356 0
 247 0006 2D4B     		ldr	r3, .L33
 357:Generated_Source\PSoC5/CapSense_CSHL.c ****     uint8 noiseThreshold = CapSense_noiseThreshold[widget];
 248              		.loc 1 357 0
 249 0008 2D4A     		ldr	r2, .L33+4
 250 000a 1B5C     		ldrb	r3, [r3, r0]	@ zero_extendqisi2
 251 000c 1344     		add	r3, r3, r2
 252 000e DE78     		ldrb	r6, [r3, #3]	@ zero_extendqisi2
 253              	.LVL17:
 358:Generated_Source\PSoC5/CapSense_CSHL.c ****     
 359:Generated_Source\PSoC5/CapSense_CSHL.c ****     #if (CapSense_TOTAL_GENERICS_COUNT)
 360:Generated_Source\PSoC5/CapSense_CSHL.c ****         /* Exclude generic widget */
 361:Generated_Source\PSoC5/CapSense_CSHL.c ****         if(widget < CapSense_END_OF_WIDGETS_INDEX)
 362:Generated_Source\PSoC5/CapSense_CSHL.c ****         {
 363:Generated_Source\PSoC5/CapSense_CSHL.c ****     #endif  /* CapSense_TOTAL_GENERICS_COUNT */
 364:Generated_Source\PSoC5/CapSense_CSHL.c ****     
 365:Generated_Source\PSoC5/CapSense_CSHL.c ****     filteredRawData = CapSense_sensorRaw[sensor];
 254              		.loc 1 365 0
 255 0010 2C4A     		ldr	r2, .L33+8
ARM GAS  C:\Users\Xwx47\AppData\Local\Temp\ccyMTa9D.s 			page 12


 366:Generated_Source\PSoC5/CapSense_CSHL.c ****     
 367:Generated_Source\PSoC5/CapSense_CSHL.c ****     #if (CapSense_RAW_FILTER_MASK & CapSense_MEDIAN_FILTER)
 368:Generated_Source\PSoC5/CapSense_CSHL.c ****         tempRaw = filteredRawData;
 369:Generated_Source\PSoC5/CapSense_CSHL.c ****         filteredRawData = CapSense_MedianFilter(filteredRawData, CapSense_rawFilterData1[sensor], 
 370:Generated_Source\PSoC5/CapSense_CSHL.c ****                                                         CapSense_rawFilterData2[sensor]);
 371:Generated_Source\PSoC5/CapSense_CSHL.c ****         CapSense_rawFilterData2[sensor] = CapSense_rawFilterData1[sensor];
 372:Generated_Source\PSoC5/CapSense_CSHL.c ****         CapSense_rawFilterData1[sensor] = tempRaw;
 373:Generated_Source\PSoC5/CapSense_CSHL.c ****         
 374:Generated_Source\PSoC5/CapSense_CSHL.c ****     #elif (CapSense_RAW_FILTER_MASK & CapSense_AVERAGING_FILTER)
 375:Generated_Source\PSoC5/CapSense_CSHL.c ****         tempRaw = filteredRawData;
 376:Generated_Source\PSoC5/CapSense_CSHL.c ****         filteredRawData = CapSense_AveragingFilter(filteredRawData, CapSense_rawFilterData1[sensor]
 377:Generated_Source\PSoC5/CapSense_CSHL.c ****                                                            CapSense_rawFilterData2[sensor]);
 378:Generated_Source\PSoC5/CapSense_CSHL.c ****         CapSense_rawFilterData2[sensor] = CapSense_rawFilterData1[sensor];
 379:Generated_Source\PSoC5/CapSense_CSHL.c ****         CapSense_rawFilterData1[sensor] = tempRaw;
 380:Generated_Source\PSoC5/CapSense_CSHL.c ****         
 381:Generated_Source\PSoC5/CapSense_CSHL.c ****     #elif (CapSense_RAW_FILTER_MASK & CapSense_IIR2_FILTER)
 382:Generated_Source\PSoC5/CapSense_CSHL.c ****         filteredRawData = CapSense_IIR2Filter(filteredRawData, CapSense_rawFilterData1[sensor]);
 383:Generated_Source\PSoC5/CapSense_CSHL.c ****         CapSense_rawFilterData1[sensor] = filteredRawData;
 384:Generated_Source\PSoC5/CapSense_CSHL.c ****         
 385:Generated_Source\PSoC5/CapSense_CSHL.c ****     #elif (CapSense_RAW_FILTER_MASK & CapSense_IIR4_FILTER)
 386:Generated_Source\PSoC5/CapSense_CSHL.c ****         filteredRawData = CapSense_IIR4Filter(filteredRawData, CapSense_rawFilterData1[sensor]);
 256              		.loc 1 386 0
 257 0012 2D4B     		ldr	r3, .L33+12
 258              	.LBB4:
 259              	.LBB5:
 387:Generated_Source\PSoC5/CapSense_CSHL.c ****         CapSense_rawFilterData1[sensor] = filteredRawData;
 388:Generated_Source\PSoC5/CapSense_CSHL.c ****             
 389:Generated_Source\PSoC5/CapSense_CSHL.c ****     #elif (CapSense_RAW_FILTER_MASK & CapSense_JITTER_FILTER)
 390:Generated_Source\PSoC5/CapSense_CSHL.c ****         filteredRawData = CapSense_JitterFilter(filteredRawData, CapSense_rawFilterData1[sensor]);
 391:Generated_Source\PSoC5/CapSense_CSHL.c ****         CapSense_rawFilterData1[sensor] = filteredRawData;
 392:Generated_Source\PSoC5/CapSense_CSHL.c ****         
 393:Generated_Source\PSoC5/CapSense_CSHL.c ****     #elif (CapSense_RAW_FILTER_MASK & CapSense_IIR8_FILTER)
 394:Generated_Source\PSoC5/CapSense_CSHL.c ****         filteredRawData = CapSense_IIR8Filter(filteredRawData, CapSense_rawFilterData1[sensor]);
 395:Generated_Source\PSoC5/CapSense_CSHL.c ****         CapSense_rawFilterData1[sensor] = filteredRawData;
 396:Generated_Source\PSoC5/CapSense_CSHL.c ****         
 397:Generated_Source\PSoC5/CapSense_CSHL.c ****     #elif (CapSense_RAW_FILTER_MASK & CapSense_IIR16_FILTER)
 398:Generated_Source\PSoC5/CapSense_CSHL.c ****         filteredRawData = CapSense_IIR16Filter(filteredRawData, CapSense_rawFilterData1[sensor]);
 399:Generated_Source\PSoC5/CapSense_CSHL.c ****         CapSense_rawFilterData1[sensor] = filteredRawData;
 400:Generated_Source\PSoC5/CapSense_CSHL.c ****         
 401:Generated_Source\PSoC5/CapSense_CSHL.c ****     #else
 402:Generated_Source\PSoC5/CapSense_CSHL.c ****         /* No Raw filters */
 403:Generated_Source\PSoC5/CapSense_CSHL.c ****     #endif  /* (CapSense_RAW_FILTER_MASK & CapSense_MEDIAN_FILTER) */
 404:Generated_Source\PSoC5/CapSense_CSHL.c ****     
 405:Generated_Source\PSoC5/CapSense_CSHL.c ****     #if (CapSense_TUNING_METHOD == CapSense_AUTO_TUNING)
 406:Generated_Source\PSoC5/CapSense_CSHL.c ****         CapSense_CalculateThresholds(sensor);
 407:Generated_Source\PSoC5/CapSense_CSHL.c ****     #endif /* (CapSense_TUNING_METHOD == CapSense_AUTO_TUNING) */
 408:Generated_Source\PSoC5/CapSense_CSHL.c **** 
 409:Generated_Source\PSoC5/CapSense_CSHL.c **** 
 410:Generated_Source\PSoC5/CapSense_CSHL.c ****     /* Baseline calculation */
 411:Generated_Source\PSoC5/CapSense_CSHL.c ****     /* Calculate difference RawData[cur] - Baseline[prev] */
 412:Generated_Source\PSoC5/CapSense_CSHL.c ****     if(filteredRawData >= CapSense_sensorBaseline[sensor])
 413:Generated_Source\PSoC5/CapSense_CSHL.c ****     {
 414:Generated_Source\PSoC5/CapSense_CSHL.c ****         tempRaw = filteredRawData - CapSense_sensorBaseline[sensor];
 415:Generated_Source\PSoC5/CapSense_CSHL.c ****         widget = 1u;    /* Positive difference - Calculate the Signal */
 416:Generated_Source\PSoC5/CapSense_CSHL.c ****     }
 417:Generated_Source\PSoC5/CapSense_CSHL.c ****     else
 418:Generated_Source\PSoC5/CapSense_CSHL.c ****     {
ARM GAS  C:\Users\Xwx47\AppData\Local\Temp\ccyMTa9D.s 			page 13


 419:Generated_Source\PSoC5/CapSense_CSHL.c ****         tempRaw = CapSense_sensorBaseline[sensor] - filteredRawData;
 420:Generated_Source\PSoC5/CapSense_CSHL.c ****         widget = 0u;    /* Negative difference - Do NOT calculate the Signal */
 421:Generated_Source\PSoC5/CapSense_CSHL.c ****     }
 422:Generated_Source\PSoC5/CapSense_CSHL.c **** 
 423:Generated_Source\PSoC5/CapSense_CSHL.c ****     if((widget == 0u) && (tempRaw > (uint16) CapSense_NEGATIVE_NOISE_THRESHOLD))
 424:Generated_Source\PSoC5/CapSense_CSHL.c ****     {
 425:Generated_Source\PSoC5/CapSense_CSHL.c ****         if(CapSense_lowBaselineResetCnt[sensor] >= CapSense_LOW_BASELINE_RESET)
 426:Generated_Source\PSoC5/CapSense_CSHL.c ****         {
 427:Generated_Source\PSoC5/CapSense_CSHL.c ****             CapSense_BaseInit(sensor);
 428:Generated_Source\PSoC5/CapSense_CSHL.c ****             CapSense_lowBaselineResetCnt[sensor] = 0u;
 429:Generated_Source\PSoC5/CapSense_CSHL.c ****         }
 430:Generated_Source\PSoC5/CapSense_CSHL.c ****         else
 431:Generated_Source\PSoC5/CapSense_CSHL.c ****         {
 432:Generated_Source\PSoC5/CapSense_CSHL.c ****             CapSense_lowBaselineResetCnt[sensor]++;
 433:Generated_Source\PSoC5/CapSense_CSHL.c ****         }
 434:Generated_Source\PSoC5/CapSense_CSHL.c ****     }
 435:Generated_Source\PSoC5/CapSense_CSHL.c ****     else
 436:Generated_Source\PSoC5/CapSense_CSHL.c ****     {
 437:Generated_Source\PSoC5/CapSense_CSHL.c ****         #if (CapSense_AUTO_RESET == CapSense_AUTO_RESET_DISABLE)
 438:Generated_Source\PSoC5/CapSense_CSHL.c ****             /* Update Baseline if lower that noiseThreshold */
 439:Generated_Source\PSoC5/CapSense_CSHL.c ****             if ( (tempRaw <= (uint16) noiseThreshold) || 
 440:Generated_Source\PSoC5/CapSense_CSHL.c ****                  ((tempRaw < (uint16) CapSense_NEGATIVE_NOISE_THRESHOLD)
 441:Generated_Source\PSoC5/CapSense_CSHL.c ****                    && (widget == 0u)))
 442:Generated_Source\PSoC5/CapSense_CSHL.c ****             {
 443:Generated_Source\PSoC5/CapSense_CSHL.c ****         #endif /* (CapSense_AUTO_RESET == CapSense_AUTO_RESET_DISABLE) */
 444:Generated_Source\PSoC5/CapSense_CSHL.c ****                 /* Make full Baseline 23 bits */
 445:Generated_Source\PSoC5/CapSense_CSHL.c ****                 calc = (uint32) CapSense_sensorBaseline[sensor] << 8u;
 446:Generated_Source\PSoC5/CapSense_CSHL.c ****                 calc |= (uint32) CapSense_sensorBaselineLow[sensor];
 447:Generated_Source\PSoC5/CapSense_CSHL.c **** 
 448:Generated_Source\PSoC5/CapSense_CSHL.c ****                 /* Add Raw Data to Baseline */
 449:Generated_Source\PSoC5/CapSense_CSHL.c ****                 calc += filteredRawData;
 450:Generated_Source\PSoC5/CapSense_CSHL.c **** 
 451:Generated_Source\PSoC5/CapSense_CSHL.c ****                 /* Sub the high Baseline */
 452:Generated_Source\PSoC5/CapSense_CSHL.c ****                 calc -= CapSense_sensorBaseline[sensor];
 453:Generated_Source\PSoC5/CapSense_CSHL.c **** 
 454:Generated_Source\PSoC5/CapSense_CSHL.c ****                 /* Put Baseline and BaselineLow */
 455:Generated_Source\PSoC5/CapSense_CSHL.c ****                 CapSense_sensorBaseline[sensor] = ((uint16) (calc >> 8u));
 456:Generated_Source\PSoC5/CapSense_CSHL.c ****                 CapSense_sensorBaselineLow[sensor] = ((uint8) calc);
 457:Generated_Source\PSoC5/CapSense_CSHL.c **** 
 458:Generated_Source\PSoC5/CapSense_CSHL.c ****                 CapSense_lowBaselineResetCnt[sensor] = 0u;
 459:Generated_Source\PSoC5/CapSense_CSHL.c ****         #if (CapSense_AUTO_RESET == CapSense_AUTO_RESET_DISABLE)
 460:Generated_Source\PSoC5/CapSense_CSHL.c ****             }
 461:Generated_Source\PSoC5/CapSense_CSHL.c ****         #endif /* (CapSense_AUTO_RESET == CapSense_AUTO_RESET_DISABLE) */
 462:Generated_Source\PSoC5/CapSense_CSHL.c ****     }
 463:Generated_Source\PSoC5/CapSense_CSHL.c **** 
 464:Generated_Source\PSoC5/CapSense_CSHL.c ****     /* Calculate Signal if possitive difference > noiseThreshold */
 465:Generated_Source\PSoC5/CapSense_CSHL.c ****     if((tempRaw > (uint16) noiseThreshold) && (widget != 0u))
 466:Generated_Source\PSoC5/CapSense_CSHL.c ****     {
 467:Generated_Source\PSoC5/CapSense_CSHL.c ****         #if (CapSense_SIGNAL_SIZE == CapSense_SIGNAL_SIZE_UINT8)
 468:Generated_Source\PSoC5/CapSense_CSHL.c ****             /* Over flow defence for uint8 */
 469:Generated_Source\PSoC5/CapSense_CSHL.c ****             if (tempRaw > 0xFFu)
 470:Generated_Source\PSoC5/CapSense_CSHL.c ****             {
 471:Generated_Source\PSoC5/CapSense_CSHL.c ****                 CapSense_sensorSignal[sensor] = 0xFFu;
 472:Generated_Source\PSoC5/CapSense_CSHL.c ****             }    
 473:Generated_Source\PSoC5/CapSense_CSHL.c ****             else 
 474:Generated_Source\PSoC5/CapSense_CSHL.c ****             {
 475:Generated_Source\PSoC5/CapSense_CSHL.c ****                 CapSense_sensorSignal[sensor] = ((uint8) tempRaw);
ARM GAS  C:\Users\Xwx47\AppData\Local\Temp\ccyMTa9D.s 			page 14


 476:Generated_Source\PSoC5/CapSense_CSHL.c ****             }
 477:Generated_Source\PSoC5/CapSense_CSHL.c ****         #else
 478:Generated_Source\PSoC5/CapSense_CSHL.c ****             CapSense_sensorSignal[sensor] = ((uint16) tempRaw);
 479:Generated_Source\PSoC5/CapSense_CSHL.c ****         #endif  /* (CapSense_SIGNAL_SIZE == CapSense_SIGNAL_SIZE_UINT8) */
 480:Generated_Source\PSoC5/CapSense_CSHL.c ****     }
 481:Generated_Source\PSoC5/CapSense_CSHL.c ****     else
 482:Generated_Source\PSoC5/CapSense_CSHL.c ****     {
 483:Generated_Source\PSoC5/CapSense_CSHL.c ****         /* Signal is zero */
 484:Generated_Source\PSoC5/CapSense_CSHL.c ****         CapSense_sensorSignal[sensor] = 0u;
 485:Generated_Source\PSoC5/CapSense_CSHL.c ****     }
 486:Generated_Source\PSoC5/CapSense_CSHL.c **** 
 487:Generated_Source\PSoC5/CapSense_CSHL.c ****     #if (CapSense_TOTAL_GENERICS_COUNT)
 488:Generated_Source\PSoC5/CapSense_CSHL.c ****         /* Exclude generic widget */
 489:Generated_Source\PSoC5/CapSense_CSHL.c ****         }
 490:Generated_Source\PSoC5/CapSense_CSHL.c ****     #endif  /* CapSense_TOTAL_GENERICS_COUNT */
 491:Generated_Source\PSoC5/CapSense_CSHL.c **** }
 492:Generated_Source\PSoC5/CapSense_CSHL.c **** 
 493:Generated_Source\PSoC5/CapSense_CSHL.c **** 
 494:Generated_Source\PSoC5/CapSense_CSHL.c **** /*******************************************************************************
 495:Generated_Source\PSoC5/CapSense_CSHL.c **** * Function Name: CapSense_UpdateEnabledBaselines
 496:Generated_Source\PSoC5/CapSense_CSHL.c **** ********************************************************************************
 497:Generated_Source\PSoC5/CapSense_CSHL.c **** *
 498:Generated_Source\PSoC5/CapSense_CSHL.c **** * Summary:
 499:Generated_Source\PSoC5/CapSense_CSHL.c **** *  Checks CapSense_sensorEnableMask[] array and calls the 
 500:Generated_Source\PSoC5/CapSense_CSHL.c **** *  CapSense_UpdateSensorBaseline function to update the baselines 
 501:Generated_Source\PSoC5/CapSense_CSHL.c **** *  for enabled sensors.
 502:Generated_Source\PSoC5/CapSense_CSHL.c **** *
 503:Generated_Source\PSoC5/CapSense_CSHL.c **** * Parameters:
 504:Generated_Source\PSoC5/CapSense_CSHL.c **** *  None
 505:Generated_Source\PSoC5/CapSense_CSHL.c **** *
 506:Generated_Source\PSoC5/CapSense_CSHL.c **** * Return:
 507:Generated_Source\PSoC5/CapSense_CSHL.c **** *  None
 508:Generated_Source\PSoC5/CapSense_CSHL.c **** *
 509:Generated_Source\PSoC5/CapSense_CSHL.c **** * Global Variables:
 510:Generated_Source\PSoC5/CapSense_CSHL.c **** *  CapSense_sensorEnableMask[] - used to store the sensor scanning 
 511:Generated_Source\PSoC5/CapSense_CSHL.c **** *  state.
 512:Generated_Source\PSoC5/CapSense_CSHL.c **** *  CapSense_sensorEnableMask[0] contains the masked bits for sensors 
 513:Generated_Source\PSoC5/CapSense_CSHL.c **** *   0 through 7 (sensor 0 is bit 0, sensor 1 is bit 1).
 514:Generated_Source\PSoC5/CapSense_CSHL.c **** *  CapSense_sensorEnableMask[1] contains the masked bits for 
 515:Generated_Source\PSoC5/CapSense_CSHL.c **** *  sensors 8 through 15 (if needed), and so on.
 516:Generated_Source\PSoC5/CapSense_CSHL.c **** *  0 - sensor doesn't scan by CapSense_ScanEnabledWidgets().
 517:Generated_Source\PSoC5/CapSense_CSHL.c **** *  1 - sensor scans by CapSense_ScanEnabledWidgets().
 518:Generated_Source\PSoC5/CapSense_CSHL.c **** *
 519:Generated_Source\PSoC5/CapSense_CSHL.c **** * Reentrant:
 520:Generated_Source\PSoC5/CapSense_CSHL.c **** *  No
 521:Generated_Source\PSoC5/CapSense_CSHL.c **** *
 522:Generated_Source\PSoC5/CapSense_CSHL.c **** *******************************************************************************/
 523:Generated_Source\PSoC5/CapSense_CSHL.c ****  void CapSense_UpdateEnabledBaselines(void)
 524:Generated_Source\PSoC5/CapSense_CSHL.c ****                                  
 525:Generated_Source\PSoC5/CapSense_CSHL.c **** {
 526:Generated_Source\PSoC5/CapSense_CSHL.c ****     uint8 i;
 527:Generated_Source\PSoC5/CapSense_CSHL.c ****     uint8 pos;
 528:Generated_Source\PSoC5/CapSense_CSHL.c ****     uint8 enMask;
 529:Generated_Source\PSoC5/CapSense_CSHL.c ****     
 530:Generated_Source\PSoC5/CapSense_CSHL.c ****     for(i = 0u; i < CapSense_TOTAL_SENSOR_COUNT; i++)
 531:Generated_Source\PSoC5/CapSense_CSHL.c ****     {
 532:Generated_Source\PSoC5/CapSense_CSHL.c ****         pos = (i >> 3u);
ARM GAS  C:\Users\Xwx47\AppData\Local\Temp\ccyMTa9D.s 			page 15


 533:Generated_Source\PSoC5/CapSense_CSHL.c ****         enMask = (uint8)(0x01u << (i & 0x07u));
 534:Generated_Source\PSoC5/CapSense_CSHL.c ****         if((CapSense_sensorEnableMask[pos] & enMask) != 0u)
 535:Generated_Source\PSoC5/CapSense_CSHL.c ****         {
 536:Generated_Source\PSoC5/CapSense_CSHL.c ****             CapSense_UpdateSensorBaseline(i);
 537:Generated_Source\PSoC5/CapSense_CSHL.c ****         }
 538:Generated_Source\PSoC5/CapSense_CSHL.c ****     }
 539:Generated_Source\PSoC5/CapSense_CSHL.c **** }
 540:Generated_Source\PSoC5/CapSense_CSHL.c **** 
 541:Generated_Source\PSoC5/CapSense_CSHL.c **** 
 542:Generated_Source\PSoC5/CapSense_CSHL.c **** /*******************************************************************************
 543:Generated_Source\PSoC5/CapSense_CSHL.c **** * Function Name: CapSense_CheckIsSensorActive
 544:Generated_Source\PSoC5/CapSense_CSHL.c **** ********************************************************************************
 545:Generated_Source\PSoC5/CapSense_CSHL.c **** *
 546:Generated_Source\PSoC5/CapSense_CSHL.c **** * Summary:
 547:Generated_Source\PSoC5/CapSense_CSHL.c **** *  Compares the CapSense_SensorSignal[sensor] array element to finger
 548:Generated_Source\PSoC5/CapSense_CSHL.c **** *  threshold of widget it belongs to. The hysteresis and debounce are taken into 
 549:Generated_Source\PSoC5/CapSense_CSHL.c **** *  account. The hysteresis is added or subtracted from the finger threshold 
 550:Generated_Source\PSoC5/CapSense_CSHL.c **** *  based on whether the sensor is currently active. 
 551:Generated_Source\PSoC5/CapSense_CSHL.c **** *  If the sensor is active, the threshold is lowered by the hysteresis amount.
 552:Generated_Source\PSoC5/CapSense_CSHL.c **** *  If the sensor is inactive, the threshold is raised by the hysteresis amount.
 553:Generated_Source\PSoC5/CapSense_CSHL.c **** *  The debounce counter added to the sensor active transition.
 554:Generated_Source\PSoC5/CapSense_CSHL.c **** *  This function updates CapSense_SensorOnMask[] array element.
 555:Generated_Source\PSoC5/CapSense_CSHL.c **** *
 556:Generated_Source\PSoC5/CapSense_CSHL.c **** * Parameters:
 557:Generated_Source\PSoC5/CapSense_CSHL.c **** *  sensor:  Sensor number.
 558:Generated_Source\PSoC5/CapSense_CSHL.c **** *
 559:Generated_Source\PSoC5/CapSense_CSHL.c **** * Return:
 560:Generated_Source\PSoC5/CapSense_CSHL.c **** *  Returns sensor state 1 if active, 0 if not active.
 561:Generated_Source\PSoC5/CapSense_CSHL.c **** *
 562:Generated_Source\PSoC5/CapSense_CSHL.c **** * Global Variables:
 563:Generated_Source\PSoC5/CapSense_CSHL.c **** *  CapSense_sensorSignal[]      - used to store diffence between 
 564:Generated_Source\PSoC5/CapSense_CSHL.c **** *  current value of raw data and previous value of baseline.
 565:Generated_Source\PSoC5/CapSense_CSHL.c **** *  CapSense_debounceCounter[]   - used to store current debounce 
 566:Generated_Source\PSoC5/CapSense_CSHL.c **** *  counter of sensor. Widget which has this parameter are buttons, matrix 
 567:Generated_Source\PSoC5/CapSense_CSHL.c **** *  buttons, proximity, guard. All other widgets haven't debounce parameter
 568:Generated_Source\PSoC5/CapSense_CSHL.c **** *  and use the last element of this array with value 0 (it means no debounce).
 569:Generated_Source\PSoC5/CapSense_CSHL.c **** *  CapSense_sensorOnMask[] - used to store sensors on/off state.
 570:Generated_Source\PSoC5/CapSense_CSHL.c **** *  CapSense_sensorOnMask[0] contains the masked bits for sensors 
 571:Generated_Source\PSoC5/CapSense_CSHL.c **** *   0 through 7 (sensor 0 is bit 0, sensor 1 is bit 1).
 572:Generated_Source\PSoC5/CapSense_CSHL.c **** *  CapSense_sensorEnableMask[1] contains the masked bits for 
 573:Generated_Source\PSoC5/CapSense_CSHL.c **** *  sensors 8 through 15 (if needed), and so on.
 574:Generated_Source\PSoC5/CapSense_CSHL.c **** *  0 - sensor is inactive.
 575:Generated_Source\PSoC5/CapSense_CSHL.c **** *  1 - sensor is active.
 576:Generated_Source\PSoC5/CapSense_CSHL.c **** *
 577:Generated_Source\PSoC5/CapSense_CSHL.c **** * Reentrant:
 578:Generated_Source\PSoC5/CapSense_CSHL.c **** *  No
 579:Generated_Source\PSoC5/CapSense_CSHL.c **** *
 580:Generated_Source\PSoC5/CapSense_CSHL.c **** *******************************************************************************/
 581:Generated_Source\PSoC5/CapSense_CSHL.c **** uint8 CapSense_CheckIsSensorActive(uint8 sensor)
 582:Generated_Source\PSoC5/CapSense_CSHL.c ****                                   
 583:Generated_Source\PSoC5/CapSense_CSHL.c **** {
 584:Generated_Source\PSoC5/CapSense_CSHL.c ****     uint8 debounceIndex;
 585:Generated_Source\PSoC5/CapSense_CSHL.c ****     /* Get On/Off mask */
 586:Generated_Source\PSoC5/CapSense_CSHL.c ****     uint8 pos = (sensor >> 3u);
 587:Generated_Source\PSoC5/CapSense_CSHL.c ****     uint8 onMask = 0x01u << (sensor & 0x07u);
 588:Generated_Source\PSoC5/CapSense_CSHL.c ****     /* Prepare to find debounce counter index */
 589:Generated_Source\PSoC5/CapSense_CSHL.c ****     uint8 widget = CapSense_widgetNumber[sensor];
ARM GAS  C:\Users\Xwx47\AppData\Local\Temp\ccyMTa9D.s 			page 16


 590:Generated_Source\PSoC5/CapSense_CSHL.c ****     uint8 fingerThreshold = CapSense_fingerThreshold[widget];
 591:Generated_Source\PSoC5/CapSense_CSHL.c ****     uint8 hysteresis = CapSense_hysteresis[widget];
 592:Generated_Source\PSoC5/CapSense_CSHL.c ****     uint8 debounce = CapSense_debounce[widget];
 593:Generated_Source\PSoC5/CapSense_CSHL.c ****     
 594:Generated_Source\PSoC5/CapSense_CSHL.c ****     debounceIndex = widget;
 595:Generated_Source\PSoC5/CapSense_CSHL.c **** 
 596:Generated_Source\PSoC5/CapSense_CSHL.c ****     
 597:Generated_Source\PSoC5/CapSense_CSHL.c ****     /* Was on */
 598:Generated_Source\PSoC5/CapSense_CSHL.c ****     if (0u != (CapSense_sensorOnMask[pos] & onMask))
 599:Generated_Source\PSoC5/CapSense_CSHL.c ****     {
 600:Generated_Source\PSoC5/CapSense_CSHL.c ****         /* Hysteresis minus */
 601:Generated_Source\PSoC5/CapSense_CSHL.c ****         if (CapSense_sensorSignal[sensor] < (fingerThreshold - hysteresis))
 602:Generated_Source\PSoC5/CapSense_CSHL.c ****         {
 603:Generated_Source\PSoC5/CapSense_CSHL.c ****             CapSense_sensorOnMask[pos] &= (uint8)~onMask;
 604:Generated_Source\PSoC5/CapSense_CSHL.c ****             CapSense_debounceCounter[debounceIndex] = debounce; 
 605:Generated_Source\PSoC5/CapSense_CSHL.c ****         }
 606:Generated_Source\PSoC5/CapSense_CSHL.c ****     }
 607:Generated_Source\PSoC5/CapSense_CSHL.c ****     else    /* Was off */
 608:Generated_Source\PSoC5/CapSense_CSHL.c ****     {
 609:Generated_Source\PSoC5/CapSense_CSHL.c ****         /* Hysteresis plus */
 610:Generated_Source\PSoC5/CapSense_CSHL.c ****         if (CapSense_sensorSignal[sensor] > (fingerThreshold + hysteresis))
 611:Generated_Source\PSoC5/CapSense_CSHL.c ****         {
 612:Generated_Source\PSoC5/CapSense_CSHL.c ****             /* Sensor active, decrement debounce counter */
 613:Generated_Source\PSoC5/CapSense_CSHL.c ****             if (CapSense_debounceCounter[debounceIndex] <= 1u)
 614:Generated_Source\PSoC5/CapSense_CSHL.c ****             {
 615:Generated_Source\PSoC5/CapSense_CSHL.c ****                 CapSense_sensorOnMask[pos] |= onMask; 
 616:Generated_Source\PSoC5/CapSense_CSHL.c ****             }
 617:Generated_Source\PSoC5/CapSense_CSHL.c ****             CapSense_debounceCounter[debounceIndex]--;
 618:Generated_Source\PSoC5/CapSense_CSHL.c ****         }
 619:Generated_Source\PSoC5/CapSense_CSHL.c ****         else
 620:Generated_Source\PSoC5/CapSense_CSHL.c ****         {
 621:Generated_Source\PSoC5/CapSense_CSHL.c ****             /* Sensor inactive - reset Debounce counter */
 622:Generated_Source\PSoC5/CapSense_CSHL.c ****             CapSense_debounceCounter[debounceIndex] = debounce;
 623:Generated_Source\PSoC5/CapSense_CSHL.c ****         }
 624:Generated_Source\PSoC5/CapSense_CSHL.c ****     }
 625:Generated_Source\PSoC5/CapSense_CSHL.c ****     
 626:Generated_Source\PSoC5/CapSense_CSHL.c ****     return (((CapSense_sensorOnMask[pos] & onMask) != 0u) ? 1u : 0u);
 627:Generated_Source\PSoC5/CapSense_CSHL.c **** }
 628:Generated_Source\PSoC5/CapSense_CSHL.c **** 
 629:Generated_Source\PSoC5/CapSense_CSHL.c **** 
 630:Generated_Source\PSoC5/CapSense_CSHL.c **** /*******************************************************************************
 631:Generated_Source\PSoC5/CapSense_CSHL.c **** * Function Name: CapSense_CheckIsWidgetActive
 632:Generated_Source\PSoC5/CapSense_CSHL.c **** ********************************************************************************
 633:Generated_Source\PSoC5/CapSense_CSHL.c **** *
 634:Generated_Source\PSoC5/CapSense_CSHL.c **** * Summary:
 635:Generated_Source\PSoC5/CapSense_CSHL.c **** *  Use function CapSense_CheckIsSensorActive() to update 
 636:Generated_Source\PSoC5/CapSense_CSHL.c **** *  CapSense_sensorOnMask[] for all sensors within the widget.
 637:Generated_Source\PSoC5/CapSense_CSHL.c **** *  If one of sensors within widget is active the function return that widget is 
 638:Generated_Source\PSoC5/CapSense_CSHL.c **** *  active.
 639:Generated_Source\PSoC5/CapSense_CSHL.c **** *  The touch pad and matrix buttons widgets need to have active sensor within 
 640:Generated_Source\PSoC5/CapSense_CSHL.c **** *  col and row to return widget active status.
 641:Generated_Source\PSoC5/CapSense_CSHL.c **** *
 642:Generated_Source\PSoC5/CapSense_CSHL.c **** * Parameters:
 643:Generated_Source\PSoC5/CapSense_CSHL.c **** *  widget:  widget number.
 644:Generated_Source\PSoC5/CapSense_CSHL.c **** *
 645:Generated_Source\PSoC5/CapSense_CSHL.c **** * Return:
 646:Generated_Source\PSoC5/CapSense_CSHL.c **** *  Returns widget sensor state 1 if one or more sensors within widget is/are 
ARM GAS  C:\Users\Xwx47\AppData\Local\Temp\ccyMTa9D.s 			page 17


 647:Generated_Source\PSoC5/CapSense_CSHL.c **** *  active, 0 if all sensors within widget are inactive.
 648:Generated_Source\PSoC5/CapSense_CSHL.c **** *
 649:Generated_Source\PSoC5/CapSense_CSHL.c **** * Reentrant:
 650:Generated_Source\PSoC5/CapSense_CSHL.c **** *  No
 651:Generated_Source\PSoC5/CapSense_CSHL.c **** *
 652:Generated_Source\PSoC5/CapSense_CSHL.c **** *******************************************************************************/
 653:Generated_Source\PSoC5/CapSense_CSHL.c **** uint8 CapSense_CheckIsWidgetActive(uint8 widget)
 654:Generated_Source\PSoC5/CapSense_CSHL.c ****                                  
 655:Generated_Source\PSoC5/CapSense_CSHL.c **** {
 656:Generated_Source\PSoC5/CapSense_CSHL.c ****     uint8 rawIndex = CapSense_rawDataIndex[widget];
 657:Generated_Source\PSoC5/CapSense_CSHL.c ****     uint8 numberOfSensors = CapSense_numberOfSensors[widget] + rawIndex;
 658:Generated_Source\PSoC5/CapSense_CSHL.c ****     uint8 state = 0u;
 659:Generated_Source\PSoC5/CapSense_CSHL.c **** 
 660:Generated_Source\PSoC5/CapSense_CSHL.c ****     /* Check all sensors of the widget */
 661:Generated_Source\PSoC5/CapSense_CSHL.c ****     do
 662:Generated_Source\PSoC5/CapSense_CSHL.c ****     {
 663:Generated_Source\PSoC5/CapSense_CSHL.c ****         if(CapSense_CheckIsSensorActive(rawIndex) != 0u)
 664:Generated_Source\PSoC5/CapSense_CSHL.c ****         {
 665:Generated_Source\PSoC5/CapSense_CSHL.c ****             state = CapSense_SENSOR_1_IS_ACTIVE;
 666:Generated_Source\PSoC5/CapSense_CSHL.c ****         }
 667:Generated_Source\PSoC5/CapSense_CSHL.c ****         rawIndex++;
 668:Generated_Source\PSoC5/CapSense_CSHL.c ****     }
 669:Generated_Source\PSoC5/CapSense_CSHL.c ****     while(rawIndex < numberOfSensors);
 670:Generated_Source\PSoC5/CapSense_CSHL.c ****     
 671:Generated_Source\PSoC5/CapSense_CSHL.c **** 
 672:Generated_Source\PSoC5/CapSense_CSHL.c ****     
 673:Generated_Source\PSoC5/CapSense_CSHL.c ****     return (state);
 674:Generated_Source\PSoC5/CapSense_CSHL.c **** }
 675:Generated_Source\PSoC5/CapSense_CSHL.c **** 
 676:Generated_Source\PSoC5/CapSense_CSHL.c **** 
 677:Generated_Source\PSoC5/CapSense_CSHL.c **** /*******************************************************************************
 678:Generated_Source\PSoC5/CapSense_CSHL.c **** * Function Name: CapSense_CheckIsAnyWidgetActive
 679:Generated_Source\PSoC5/CapSense_CSHL.c **** ********************************************************************************
 680:Generated_Source\PSoC5/CapSense_CSHL.c **** *
 681:Generated_Source\PSoC5/CapSense_CSHL.c **** * Summary:
 682:Generated_Source\PSoC5/CapSense_CSHL.c **** *  Compares all sensors of the CapSense_signal[] array to their finger 
 683:Generated_Source\PSoC5/CapSense_CSHL.c **** *  threshold. Calls CapSense_CheckIsWidgetActive() for each widget so 
 684:Generated_Source\PSoC5/CapSense_CSHL.c **** *  the CapSense_SensorOnMask[] array is up to date after calling this 
 685:Generated_Source\PSoC5/CapSense_CSHL.c **** *  function.
 686:Generated_Source\PSoC5/CapSense_CSHL.c **** *
 687:Generated_Source\PSoC5/CapSense_CSHL.c **** * Parameters:
 688:Generated_Source\PSoC5/CapSense_CSHL.c **** *  widget:  widget number.
 689:Generated_Source\PSoC5/CapSense_CSHL.c **** *
 690:Generated_Source\PSoC5/CapSense_CSHL.c **** * Return:
 691:Generated_Source\PSoC5/CapSense_CSHL.c **** *  Returns 1 if any widget is active, 0 none of widgets are active.
 692:Generated_Source\PSoC5/CapSense_CSHL.c **** *
 693:Generated_Source\PSoC5/CapSense_CSHL.c **** * Reentrant:
 694:Generated_Source\PSoC5/CapSense_CSHL.c **** *  No
 695:Generated_Source\PSoC5/CapSense_CSHL.c **** *
 696:Generated_Source\PSoC5/CapSense_CSHL.c **** *******************************************************************************/
 697:Generated_Source\PSoC5/CapSense_CSHL.c **** uint8 CapSense_CheckIsAnyWidgetActive(void)
 698:Generated_Source\PSoC5/CapSense_CSHL.c ****                                  
 699:Generated_Source\PSoC5/CapSense_CSHL.c **** {
 700:Generated_Source\PSoC5/CapSense_CSHL.c ****     uint8 i;
 701:Generated_Source\PSoC5/CapSense_CSHL.c ****     uint8 state = 0u;
 702:Generated_Source\PSoC5/CapSense_CSHL.c ****     
 703:Generated_Source\PSoC5/CapSense_CSHL.c ****     for(i = 0u; i < CapSense_TOTAL_WIDGET_COUNT; i++)
ARM GAS  C:\Users\Xwx47\AppData\Local\Temp\ccyMTa9D.s 			page 18


 704:Generated_Source\PSoC5/CapSense_CSHL.c ****     {
 705:Generated_Source\PSoC5/CapSense_CSHL.c ****         if (CapSense_CheckIsWidgetActive(i) != 0u)
 706:Generated_Source\PSoC5/CapSense_CSHL.c ****         {
 707:Generated_Source\PSoC5/CapSense_CSHL.c ****             state = CapSense_WIDGET_IS_ACTIVE;
 708:Generated_Source\PSoC5/CapSense_CSHL.c ****         }
 709:Generated_Source\PSoC5/CapSense_CSHL.c ****     }
 710:Generated_Source\PSoC5/CapSense_CSHL.c ****     
 711:Generated_Source\PSoC5/CapSense_CSHL.c **** 
 712:Generated_Source\PSoC5/CapSense_CSHL.c ****     return (state);
 713:Generated_Source\PSoC5/CapSense_CSHL.c **** }
 714:Generated_Source\PSoC5/CapSense_CSHL.c **** 
 715:Generated_Source\PSoC5/CapSense_CSHL.c **** 
 716:Generated_Source\PSoC5/CapSense_CSHL.c **** /*******************************************************************************
 717:Generated_Source\PSoC5/CapSense_CSHL.c **** * Function Name: CapSense_EnableWidget
 718:Generated_Source\PSoC5/CapSense_CSHL.c **** ********************************************************************************
 719:Generated_Source\PSoC5/CapSense_CSHL.c **** *
 720:Generated_Source\PSoC5/CapSense_CSHL.c **** * Summary:
 721:Generated_Source\PSoC5/CapSense_CSHL.c **** *  Enable all widget elements (sensors) to scanning process.
 722:Generated_Source\PSoC5/CapSense_CSHL.c **** *
 723:Generated_Source\PSoC5/CapSense_CSHL.c **** * Parameters:
 724:Generated_Source\PSoC5/CapSense_CSHL.c **** *  widget:  widget number.
 725:Generated_Source\PSoC5/CapSense_CSHL.c **** *
 726:Generated_Source\PSoC5/CapSense_CSHL.c **** * Return:
 727:Generated_Source\PSoC5/CapSense_CSHL.c **** *  None
 728:Generated_Source\PSoC5/CapSense_CSHL.c **** *
 729:Generated_Source\PSoC5/CapSense_CSHL.c **** * Global Variables:
 730:Generated_Source\PSoC5/CapSense_CSHL.c **** *  CapSense_sensorEnableMask[] - used to store the sensor scanning 
 731:Generated_Source\PSoC5/CapSense_CSHL.c **** *  state.
 732:Generated_Source\PSoC5/CapSense_CSHL.c **** *  CapSense_sensorEnableMask[0] contains the masked bits for sensors 
 733:Generated_Source\PSoC5/CapSense_CSHL.c **** *  0 through 7 (sensor 0 is bit 0, sensor 1 is bit 1).
 734:Generated_Source\PSoC5/CapSense_CSHL.c **** *  CapSense_sensorEnableMask[1] contains the masked bits for 
 735:Generated_Source\PSoC5/CapSense_CSHL.c **** *  sensors 8 through 15 (if needed), and so on.
 736:Generated_Source\PSoC5/CapSense_CSHL.c **** *  0 - sensor doesn't scan by CapSense_ScanEnabledWidgets().
 737:Generated_Source\PSoC5/CapSense_CSHL.c **** *  1 - sensor scans by CapSense_ScanEnabledWidgets().
 738:Generated_Source\PSoC5/CapSense_CSHL.c **** *
 739:Generated_Source\PSoC5/CapSense_CSHL.c **** * Reentrant:
 740:Generated_Source\PSoC5/CapSense_CSHL.c **** *  No
 741:Generated_Source\PSoC5/CapSense_CSHL.c **** *
 742:Generated_Source\PSoC5/CapSense_CSHL.c **** *******************************************************************************/
 743:Generated_Source\PSoC5/CapSense_CSHL.c **** void CapSense_EnableWidget(uint8 widget)
 744:Generated_Source\PSoC5/CapSense_CSHL.c ****                                    
 745:Generated_Source\PSoC5/CapSense_CSHL.c **** {
 746:Generated_Source\PSoC5/CapSense_CSHL.c ****     uint8 pos;
 747:Generated_Source\PSoC5/CapSense_CSHL.c ****     uint8 enMask;
 748:Generated_Source\PSoC5/CapSense_CSHL.c ****     uint8 rawIndex = CapSense_rawDataIndex[widget];
 749:Generated_Source\PSoC5/CapSense_CSHL.c ****     uint8 numberOfSensors = CapSense_numberOfSensors[widget] + rawIndex;
 750:Generated_Source\PSoC5/CapSense_CSHL.c ****     
 751:Generated_Source\PSoC5/CapSense_CSHL.c ****     /* Enable all sensors of the widget */
 752:Generated_Source\PSoC5/CapSense_CSHL.c ****     do
 753:Generated_Source\PSoC5/CapSense_CSHL.c ****     {
 754:Generated_Source\PSoC5/CapSense_CSHL.c ****         pos = (rawIndex >> 3u);
 755:Generated_Source\PSoC5/CapSense_CSHL.c ****         enMask = 0x01u << (rawIndex & 0x07u);
 756:Generated_Source\PSoC5/CapSense_CSHL.c ****         
 757:Generated_Source\PSoC5/CapSense_CSHL.c ****         CapSense_sensorEnableMask[pos] |= enMask;
 758:Generated_Source\PSoC5/CapSense_CSHL.c ****         rawIndex++;
 759:Generated_Source\PSoC5/CapSense_CSHL.c ****     }
 760:Generated_Source\PSoC5/CapSense_CSHL.c ****     while(rawIndex < numberOfSensors);
ARM GAS  C:\Users\Xwx47\AppData\Local\Temp\ccyMTa9D.s 			page 19


 761:Generated_Source\PSoC5/CapSense_CSHL.c ****     
 762:Generated_Source\PSoC5/CapSense_CSHL.c **** 
 763:Generated_Source\PSoC5/CapSense_CSHL.c **** }
 764:Generated_Source\PSoC5/CapSense_CSHL.c **** 
 765:Generated_Source\PSoC5/CapSense_CSHL.c **** 
 766:Generated_Source\PSoC5/CapSense_CSHL.c **** /*******************************************************************************
 767:Generated_Source\PSoC5/CapSense_CSHL.c **** * Function Name: CapSense_DisableWidget
 768:Generated_Source\PSoC5/CapSense_CSHL.c **** ********************************************************************************
 769:Generated_Source\PSoC5/CapSense_CSHL.c **** *
 770:Generated_Source\PSoC5/CapSense_CSHL.c **** * Summary:
 771:Generated_Source\PSoC5/CapSense_CSHL.c **** *  Disable all widget elements (sensors) from scanning process.
 772:Generated_Source\PSoC5/CapSense_CSHL.c **** *
 773:Generated_Source\PSoC5/CapSense_CSHL.c **** * Parameters:
 774:Generated_Source\PSoC5/CapSense_CSHL.c **** *  widget:  widget number.
 775:Generated_Source\PSoC5/CapSense_CSHL.c **** *
 776:Generated_Source\PSoC5/CapSense_CSHL.c **** * Return:
 777:Generated_Source\PSoC5/CapSense_CSHL.c **** *  None
 778:Generated_Source\PSoC5/CapSense_CSHL.c **** *
 779:Generated_Source\PSoC5/CapSense_CSHL.c **** * Global Variables:
 780:Generated_Source\PSoC5/CapSense_CSHL.c **** *  CapSense_sensorEnableMask[] - used to store the sensor scanning 
 781:Generated_Source\PSoC5/CapSense_CSHL.c **** *  state.
 782:Generated_Source\PSoC5/CapSense_CSHL.c **** *  CapSense_sensorEnableMask[0] contains the masked bits for sensors 
 783:Generated_Source\PSoC5/CapSense_CSHL.c **** *  0 through 7 (sensor 0 is bit 0, sensor 1 is bit 1).
 784:Generated_Source\PSoC5/CapSense_CSHL.c **** *  CapSense_sensorEnableMask[1] contains the masked bits for 
 785:Generated_Source\PSoC5/CapSense_CSHL.c **** *  sensors 8 through 15 (if needed), and so on.
 786:Generated_Source\PSoC5/CapSense_CSHL.c **** *  0 - sensor doesn't scan by CapSense_ScanEnabledWidgets().
 787:Generated_Source\PSoC5/CapSense_CSHL.c **** *  1 - sensor scans by CapSense_ScanEnabledWidgets().
 788:Generated_Source\PSoC5/CapSense_CSHL.c **** *
 789:Generated_Source\PSoC5/CapSense_CSHL.c **** * Reentrant:
 790:Generated_Source\PSoC5/CapSense_CSHL.c **** *  No
 791:Generated_Source\PSoC5/CapSense_CSHL.c **** *
 792:Generated_Source\PSoC5/CapSense_CSHL.c **** *******************************************************************************/
 793:Generated_Source\PSoC5/CapSense_CSHL.c **** void CapSense_DisableWidget(uint8 widget)
 794:Generated_Source\PSoC5/CapSense_CSHL.c ****                                     
 795:Generated_Source\PSoC5/CapSense_CSHL.c **** {
 796:Generated_Source\PSoC5/CapSense_CSHL.c ****     uint8 pos;
 797:Generated_Source\PSoC5/CapSense_CSHL.c ****     uint8 enMask;
 798:Generated_Source\PSoC5/CapSense_CSHL.c ****     uint8 rawIndex = CapSense_rawDataIndex[widget];
 799:Generated_Source\PSoC5/CapSense_CSHL.c ****     uint8 numberOfSensors = CapSense_numberOfSensors[widget] + rawIndex;
 800:Generated_Source\PSoC5/CapSense_CSHL.c ****    
 801:Generated_Source\PSoC5/CapSense_CSHL.c ****     /* Disable all sensors of the widget */
 802:Generated_Source\PSoC5/CapSense_CSHL.c ****     do
 803:Generated_Source\PSoC5/CapSense_CSHL.c ****     {
 804:Generated_Source\PSoC5/CapSense_CSHL.c ****         pos = (rawIndex >> 3u);
 805:Generated_Source\PSoC5/CapSense_CSHL.c ****         enMask = 0x01u << (rawIndex & 0x07u);
 806:Generated_Source\PSoC5/CapSense_CSHL.c ****         
 807:Generated_Source\PSoC5/CapSense_CSHL.c ****         CapSense_sensorEnableMask[pos] &= (uint8)~enMask;
 808:Generated_Source\PSoC5/CapSense_CSHL.c ****         rawIndex++;
 809:Generated_Source\PSoC5/CapSense_CSHL.c ****     }
 810:Generated_Source\PSoC5/CapSense_CSHL.c ****     while(rawIndex < numberOfSensors);
 811:Generated_Source\PSoC5/CapSense_CSHL.c ****     
 812:Generated_Source\PSoC5/CapSense_CSHL.c **** 
 813:Generated_Source\PSoC5/CapSense_CSHL.c **** }
 814:Generated_Source\PSoC5/CapSense_CSHL.c **** #if(CapSense_TOTAL_CENTROIDS_COUNT)
 815:Generated_Source\PSoC5/CapSense_CSHL.c ****     /*******************************************************************************
 816:Generated_Source\PSoC5/CapSense_CSHL.c ****     * Function Name: CapSense_FindMaximum
 817:Generated_Source\PSoC5/CapSense_CSHL.c ****     ********************************************************************************
ARM GAS  C:\Users\Xwx47\AppData\Local\Temp\ccyMTa9D.s 			page 20


 818:Generated_Source\PSoC5/CapSense_CSHL.c ****     *
 819:Generated_Source\PSoC5/CapSense_CSHL.c ****     * Summary:
 820:Generated_Source\PSoC5/CapSense_CSHL.c ****     *  Finds index of maximum element within defined centroid. Checks 
 821:Generated_Source\PSoC5/CapSense_CSHL.c ****     *  CapSense_SensorSignal[] within defined cenrtoid and 
 822:Generated_Source\PSoC5/CapSense_CSHL.c ****     *  returns index of maximum element. The values below finger threshold are 
 823:Generated_Source\PSoC5/CapSense_CSHL.c ****     *  ignored.
 824:Generated_Source\PSoC5/CapSense_CSHL.c ****     *  The centrod defines by offset of first element and number of elements - count.
 825:Generated_Source\PSoC5/CapSense_CSHL.c ****     *  The diplexed centroid requires at least consecutive two elements above
 826:Generated_Source\PSoC5/CapSense_CSHL.c ****     *  FingerThreshold to find index of maximum element.
 827:Generated_Source\PSoC5/CapSense_CSHL.c ****     * 
 828:Generated_Source\PSoC5/CapSense_CSHL.c ****     * Parameters:
 829:Generated_Source\PSoC5/CapSense_CSHL.c ****     *  offset:  Start index of cetroid in CapSense_sensorSignal[] array.
 830:Generated_Source\PSoC5/CapSense_CSHL.c ****     *  count:   number of elements within centroid.
 831:Generated_Source\PSoC5/CapSense_CSHL.c ****     *  fingerThreshold:  Finger threshould.
 832:Generated_Source\PSoC5/CapSense_CSHL.c ****     *  diplex:   pointer to diplex table.
 833:Generated_Source\PSoC5/CapSense_CSHL.c ****     * 
 834:Generated_Source\PSoC5/CapSense_CSHL.c ****     * Return:
 835:Generated_Source\PSoC5/CapSense_CSHL.c ****     *  Returns index of maximum element within defined centroid.
 836:Generated_Source\PSoC5/CapSense_CSHL.c ****     *  If index of maximum element doesn't find the 0xFF returns.
 837:Generated_Source\PSoC5/CapSense_CSHL.c ****     * 
 838:Generated_Source\PSoC5/CapSense_CSHL.c ****     *******************************************************************************/
 839:Generated_Source\PSoC5/CapSense_CSHL.c ****     #if (CapSense_IS_DIPLEX_SLIDER)
 840:Generated_Source\PSoC5/CapSense_CSHL.c ****         uint8 CapSense_FindMaximum(uint8 offset, uint8 count, uint8 fingerThreshold, const uint8 CY
 841:Generated_Source\PSoC5/CapSense_CSHL.c **** 	                                       
 842:Generated_Source\PSoC5/CapSense_CSHL.c ****     #else 
 843:Generated_Source\PSoC5/CapSense_CSHL.c ****         uint8 CapSense_FindMaximum(uint8 offset, uint8 count, uint8 fingerThreshold)
 844:Generated_Source\PSoC5/CapSense_CSHL.c **** 	                                       
 845:Generated_Source\PSoC5/CapSense_CSHL.c ****     #endif /* (CapSense_IS_DIPLEX_SLIDER) */
 846:Generated_Source\PSoC5/CapSense_CSHL.c ****     {
 847:Generated_Source\PSoC5/CapSense_CSHL.c ****         uint8 i;
 848:Generated_Source\PSoC5/CapSense_CSHL.c ****         #if (CapSense_IS_DIPLEX_SLIDER)        
 849:Generated_Source\PSoC5/CapSense_CSHL.c ****             uint8 curPos = 0u;
 850:Generated_Source\PSoC5/CapSense_CSHL.c ****             /* No centroid at the Start */
 851:Generated_Source\PSoC5/CapSense_CSHL.c ****             uint8 curCntrdSize = 0u;
 852:Generated_Source\PSoC5/CapSense_CSHL.c ****             uint8 curCtrdStartPos = 0xFFu;
 853:Generated_Source\PSoC5/CapSense_CSHL.c ****             /* The biggset centroid is zero */
 854:Generated_Source\PSoC5/CapSense_CSHL.c ****             uint8 biggestCtrdSize = 0u;
 855:Generated_Source\PSoC5/CapSense_CSHL.c ****             uint8 biggestCtrdStartPos = 0u;
 856:Generated_Source\PSoC5/CapSense_CSHL.c ****         #endif /* (CapSense_IS_DIPLEX_SLIDER) */
 857:Generated_Source\PSoC5/CapSense_CSHL.c ****         uint8 maximum = 0xFFu;
 858:Generated_Source\PSoC5/CapSense_CSHL.c ****         uint8 temp = 0u;
 859:Generated_Source\PSoC5/CapSense_CSHL.c ****         uint8 *startOfSlider = &CapSense_sensorSignal[offset]; 
 860:Generated_Source\PSoC5/CapSense_CSHL.c **** 
 861:Generated_Source\PSoC5/CapSense_CSHL.c ****         #if (CapSense_IS_DIPLEX_SLIDER)        
 862:Generated_Source\PSoC5/CapSense_CSHL.c ****             if(diplex != 0u)
 863:Generated_Source\PSoC5/CapSense_CSHL.c ****             {
 864:Generated_Source\PSoC5/CapSense_CSHL.c ****                 /* Initialize */
 865:Generated_Source\PSoC5/CapSense_CSHL.c ****                 i = 0u;
 866:Generated_Source\PSoC5/CapSense_CSHL.c ****                 
 867:Generated_Source\PSoC5/CapSense_CSHL.c ****                 /* Make slider x2 as Diplexed */
 868:Generated_Source\PSoC5/CapSense_CSHL.c ****                 count <<= 1u;
 869:Generated_Source\PSoC5/CapSense_CSHL.c ****                 while(1u)
 870:Generated_Source\PSoC5/CapSense_CSHL.c ****                 { 
 871:Generated_Source\PSoC5/CapSense_CSHL.c ****                     if (startOfSlider[curPos] > 0u)    /* Looking for centroids */
 872:Generated_Source\PSoC5/CapSense_CSHL.c ****                     {
 873:Generated_Source\PSoC5/CapSense_CSHL.c ****                         if (curCtrdStartPos == 0xFFu)
 874:Generated_Source\PSoC5/CapSense_CSHL.c ****                         {
ARM GAS  C:\Users\Xwx47\AppData\Local\Temp\ccyMTa9D.s 			page 21


 875:Generated_Source\PSoC5/CapSense_CSHL.c ****                             /* Start of centroid */
 876:Generated_Source\PSoC5/CapSense_CSHL.c ****                             curCtrdStartPos = i;
 877:Generated_Source\PSoC5/CapSense_CSHL.c ****                             curCntrdSize++;
 878:Generated_Source\PSoC5/CapSense_CSHL.c ****                         }
 879:Generated_Source\PSoC5/CapSense_CSHL.c ****                         else
 880:Generated_Source\PSoC5/CapSense_CSHL.c ****                         {
 881:Generated_Source\PSoC5/CapSense_CSHL.c ****                             curCntrdSize++;
 882:Generated_Source\PSoC5/CapSense_CSHL.c ****                         }
 883:Generated_Source\PSoC5/CapSense_CSHL.c ****                     }
 884:Generated_Source\PSoC5/CapSense_CSHL.c ****                     else   /* Select the bigest and indicate zero start */
 885:Generated_Source\PSoC5/CapSense_CSHL.c ****                     {          
 886:Generated_Source\PSoC5/CapSense_CSHL.c ****                         if(curCntrdSize > 0u)
 887:Generated_Source\PSoC5/CapSense_CSHL.c ****                         {
 888:Generated_Source\PSoC5/CapSense_CSHL.c ****                             /* We are in the end of current */
 889:Generated_Source\PSoC5/CapSense_CSHL.c ****                             if(curCntrdSize > biggestCtrdSize)
 890:Generated_Source\PSoC5/CapSense_CSHL.c ****                             {
 891:Generated_Source\PSoC5/CapSense_CSHL.c ****                                 biggestCtrdSize = curCntrdSize;
 892:Generated_Source\PSoC5/CapSense_CSHL.c ****                                 biggestCtrdStartPos = curCtrdStartPos;
 893:Generated_Source\PSoC5/CapSense_CSHL.c ****                             }
 894:Generated_Source\PSoC5/CapSense_CSHL.c ****                             
 895:Generated_Source\PSoC5/CapSense_CSHL.c ****                             curCntrdSize = 0u;
 896:Generated_Source\PSoC5/CapSense_CSHL.c ****                             curCtrdStartPos = 0xFFu;
 897:Generated_Source\PSoC5/CapSense_CSHL.c ****                         }
 898:Generated_Source\PSoC5/CapSense_CSHL.c ****                     }
 899:Generated_Source\PSoC5/CapSense_CSHL.c ****                     
 900:Generated_Source\PSoC5/CapSense_CSHL.c ****                     i++; 
 901:Generated_Source\PSoC5/CapSense_CSHL.c ****                     curPos = diplex[i];
 902:Generated_Source\PSoC5/CapSense_CSHL.c ****                     if(i == count)
 903:Generated_Source\PSoC5/CapSense_CSHL.c ****                     {
 904:Generated_Source\PSoC5/CapSense_CSHL.c ****                         break;
 905:Generated_Source\PSoC5/CapSense_CSHL.c ****                     }            
 906:Generated_Source\PSoC5/CapSense_CSHL.c ****                 }
 907:Generated_Source\PSoC5/CapSense_CSHL.c ****                     
 908:Generated_Source\PSoC5/CapSense_CSHL.c ****                     /* Find the biggest centroid if two are the same size, last one wins
 909:Generated_Source\PSoC5/CapSense_CSHL.c ****                        We are in the end of current */
 910:Generated_Source\PSoC5/CapSense_CSHL.c ****                 if (curCntrdSize >= biggestCtrdSize) 
 911:Generated_Source\PSoC5/CapSense_CSHL.c ****                 {
 912:Generated_Source\PSoC5/CapSense_CSHL.c ****                     biggestCtrdSize = curCntrdSize;
 913:Generated_Source\PSoC5/CapSense_CSHL.c ****                     biggestCtrdStartPos = curCtrdStartPos;
 914:Generated_Source\PSoC5/CapSense_CSHL.c ****                 }
 915:Generated_Source\PSoC5/CapSense_CSHL.c ****             }
 916:Generated_Source\PSoC5/CapSense_CSHL.c ****             else
 917:Generated_Source\PSoC5/CapSense_CSHL.c ****             {
 918:Generated_Source\PSoC5/CapSense_CSHL.c ****                 /* Without diplexing */ 
 919:Generated_Source\PSoC5/CapSense_CSHL.c ****                 biggestCtrdSize = count;
 920:Generated_Source\PSoC5/CapSense_CSHL.c ****             }
 921:Generated_Source\PSoC5/CapSense_CSHL.c ****                         
 922:Generated_Source\PSoC5/CapSense_CSHL.c **** 
 923:Generated_Source\PSoC5/CapSense_CSHL.c ****             /* Check centroid size */
 924:Generated_Source\PSoC5/CapSense_CSHL.c ****             #if (CapSense_IS_NON_DIPLEX_SLIDER)
 925:Generated_Source\PSoC5/CapSense_CSHL.c ****                 if((biggestCtrdSize >= 2u) || ((biggestCtrdSize == 1u) && (diplex == 0u)))
 926:Generated_Source\PSoC5/CapSense_CSHL.c ****             #else                    
 927:Generated_Source\PSoC5/CapSense_CSHL.c ****                 if(biggestCtrdSize >= 2u)
 928:Generated_Source\PSoC5/CapSense_CSHL.c ****             #endif /* (CapSense_IS_NON_DIPLEX_SLIDER) */
 929:Generated_Source\PSoC5/CapSense_CSHL.c ****                 {
 930:Generated_Source\PSoC5/CapSense_CSHL.c ****                     for (i = biggestCtrdStartPos; i < (biggestCtrdStartPos + biggestCtrdSize); i++)
 931:Generated_Source\PSoC5/CapSense_CSHL.c ****                     {
ARM GAS  C:\Users\Xwx47\AppData\Local\Temp\ccyMTa9D.s 			page 22


 932:Generated_Source\PSoC5/CapSense_CSHL.c ****                         #if (CapSense_IS_DIPLEX_SLIDER && CapSense_IS_NON_DIPLEX_SLIDER)
 933:Generated_Source\PSoC5/CapSense_CSHL.c ****                             if (diplex == 0u)
 934:Generated_Source\PSoC5/CapSense_CSHL.c ****                             {
 935:Generated_Source\PSoC5/CapSense_CSHL.c ****                                 curPos = i;
 936:Generated_Source\PSoC5/CapSense_CSHL.c ****                             }
 937:Generated_Source\PSoC5/CapSense_CSHL.c ****                             else
 938:Generated_Source\PSoC5/CapSense_CSHL.c ****                             {
 939:Generated_Source\PSoC5/CapSense_CSHL.c ****                                 curPos = diplex[i];
 940:Generated_Source\PSoC5/CapSense_CSHL.c ****                             }                    
 941:Generated_Source\PSoC5/CapSense_CSHL.c ****                         #elif (CapSense_IS_DIPLEX_SLIDER)                    
 942:Generated_Source\PSoC5/CapSense_CSHL.c ****                             curPos = diplex[i];                    
 943:Generated_Source\PSoC5/CapSense_CSHL.c ****                         #endif /* (CapSense_IS_DIPLEX_SLIDER && CapSense_IS_NON_DIPLEX_SLIDER) */
 944:Generated_Source\PSoC5/CapSense_CSHL.c ****                         /* Looking for the grater element within centroid */
 945:Generated_Source\PSoC5/CapSense_CSHL.c ****                         if(startOfSlider[curPos] > fingerThreshold)
 946:Generated_Source\PSoC5/CapSense_CSHL.c ****                         {
 947:Generated_Source\PSoC5/CapSense_CSHL.c ****                             if(startOfSlider[curPos] > temp)
 948:Generated_Source\PSoC5/CapSense_CSHL.c ****                             {
 949:Generated_Source\PSoC5/CapSense_CSHL.c ****                                 maximum = i;
 950:Generated_Source\PSoC5/CapSense_CSHL.c ****                                 temp = startOfSlider[curPos];
 951:Generated_Source\PSoC5/CapSense_CSHL.c ****                             }
 952:Generated_Source\PSoC5/CapSense_CSHL.c ****                         }
 953:Generated_Source\PSoC5/CapSense_CSHL.c ****                     }
 954:Generated_Source\PSoC5/CapSense_CSHL.c ****                 } 
 955:Generated_Source\PSoC5/CapSense_CSHL.c ****         #else
 956:Generated_Source\PSoC5/CapSense_CSHL.c ****             for (i = 0u; i < count; i++)
 957:Generated_Source\PSoC5/CapSense_CSHL.c ****             {                      
 958:Generated_Source\PSoC5/CapSense_CSHL.c ****                 /* Looking for the grater element within centroid */
 959:Generated_Source\PSoC5/CapSense_CSHL.c ****                 if(startOfSlider[i] > fingerThreshold)
 960:Generated_Source\PSoC5/CapSense_CSHL.c ****                 {
 961:Generated_Source\PSoC5/CapSense_CSHL.c ****                     if(startOfSlider[i] > temp)
 962:Generated_Source\PSoC5/CapSense_CSHL.c ****                     {
 963:Generated_Source\PSoC5/CapSense_CSHL.c ****                         maximum = i;
 964:Generated_Source\PSoC5/CapSense_CSHL.c ****                         temp = startOfSlider[i];
 965:Generated_Source\PSoC5/CapSense_CSHL.c ****                     }
 966:Generated_Source\PSoC5/CapSense_CSHL.c ****                 }
 967:Generated_Source\PSoC5/CapSense_CSHL.c ****             }    
 968:Generated_Source\PSoC5/CapSense_CSHL.c ****         #endif /* (CapSense_IS_DIPLEX_SLIDER) */
 969:Generated_Source\PSoC5/CapSense_CSHL.c ****         return (maximum);
 970:Generated_Source\PSoC5/CapSense_CSHL.c ****     }
 971:Generated_Source\PSoC5/CapSense_CSHL.c ****     
 972:Generated_Source\PSoC5/CapSense_CSHL.c ****     
 973:Generated_Source\PSoC5/CapSense_CSHL.c ****     /*******************************************************************************
 974:Generated_Source\PSoC5/CapSense_CSHL.c ****     * Function Name: CapSense_CalcCentroid
 975:Generated_Source\PSoC5/CapSense_CSHL.c ****     ********************************************************************************
 976:Generated_Source\PSoC5/CapSense_CSHL.c ****     *
 977:Generated_Source\PSoC5/CapSense_CSHL.c ****     * Summary:
 978:Generated_Source\PSoC5/CapSense_CSHL.c ****     *  Returns position value calculated accoring index of maximum element and API
 979:Generated_Source\PSoC5/CapSense_CSHL.c ****     *  resolution.
 980:Generated_Source\PSoC5/CapSense_CSHL.c ****     *
 981:Generated_Source\PSoC5/CapSense_CSHL.c ****     * Parameters:
 982:Generated_Source\PSoC5/CapSense_CSHL.c ****     *  type:  widget type.
 983:Generated_Source\PSoC5/CapSense_CSHL.c ****     *  diplex:  pointer to diplex table.
 984:Generated_Source\PSoC5/CapSense_CSHL.c ****     *  maximum:  Index of maximum element within centroid.
 985:Generated_Source\PSoC5/CapSense_CSHL.c ****     *  offset:   Start index of cetroid in CapSense_SensorSignal[] array.
 986:Generated_Source\PSoC5/CapSense_CSHL.c ****     *  count:    Number of elements within centroid.
 987:Generated_Source\PSoC5/CapSense_CSHL.c ****     *  resolution:  multiplicator calculated according to centroid type and
 988:Generated_Source\PSoC5/CapSense_CSHL.c ****     *  API resolution.
ARM GAS  C:\Users\Xwx47\AppData\Local\Temp\ccyMTa9D.s 			page 23


 989:Generated_Source\PSoC5/CapSense_CSHL.c ****     *  noiseThreshold:  Noise threshould.
 990:Generated_Source\PSoC5/CapSense_CSHL.c ****     * 
 991:Generated_Source\PSoC5/CapSense_CSHL.c ****     * Return:
 992:Generated_Source\PSoC5/CapSense_CSHL.c ****     *  Returns position value of the slider.
 993:Generated_Source\PSoC5/CapSense_CSHL.c ****     * 
 994:Generated_Source\PSoC5/CapSense_CSHL.c ****     *
 995:Generated_Source\PSoC5/CapSense_CSHL.c ****     * Reentrant:
 996:Generated_Source\PSoC5/CapSense_CSHL.c ****     *  No.
 997:Generated_Source\PSoC5/CapSense_CSHL.c ****     *
 998:Generated_Source\PSoC5/CapSense_CSHL.c ****     *******************************************************************************/
 999:Generated_Source\PSoC5/CapSense_CSHL.c ****     uint8 CapSense_CalcCentroid(uint8 maximum, uint8 offset, 
1000:Generated_Source\PSoC5/CapSense_CSHL.c ****                                         uint8 count, uint16 resolution, uint8 noiseThreshold)
1001:Generated_Source\PSoC5/CapSense_CSHL.c **** 	                                    
1002:Generated_Source\PSoC5/CapSense_CSHL.c ****     {
1003:Generated_Source\PSoC5/CapSense_CSHL.c ****         #if ((CapSense_TOTAL_LINEAR_SLIDERS_COUNT > 0u) || (CapSense_TOTAL_TOUCH_PADS_COUNT > 0u))
1004:Generated_Source\PSoC5/CapSense_CSHL.c ****             uint8 posPrev = 0u;
1005:Generated_Source\PSoC5/CapSense_CSHL.c ****             uint8 posNext = 0u;
1006:Generated_Source\PSoC5/CapSense_CSHL.c ****         #endif /* ((CapSense_TOTAL_LINEAR_SLIDERS_COUNT>0u) || (CapSense_TOTAL_TOUCH_PADS_COUNT>0u)
1007:Generated_Source\PSoC5/CapSense_CSHL.c ****                
1008:Generated_Source\PSoC5/CapSense_CSHL.c ****         #if (CapSense_IS_DIPLEX_SLIDER)                
1009:Generated_Source\PSoC5/CapSense_CSHL.c ****             uint8 pos;
1010:Generated_Source\PSoC5/CapSense_CSHL.c ****         #endif /* (CapSense_IS_DIPLEX_SLIDER) */
1011:Generated_Source\PSoC5/CapSense_CSHL.c ****         
1012:Generated_Source\PSoC5/CapSense_CSHL.c ****         /* Helps while centroid calulation */
1013:Generated_Source\PSoC5/CapSense_CSHL.c ****         static uint8 CapSense_centroid[3u];
1014:Generated_Source\PSoC5/CapSense_CSHL.c **** 
1015:Generated_Source\PSoC5/CapSense_CSHL.c ****         uint8 position;
1016:Generated_Source\PSoC5/CapSense_CSHL.c ****         uint32 numerator;
1017:Generated_Source\PSoC5/CapSense_CSHL.c ****         int32 denominator;
1018:Generated_Source\PSoC5/CapSense_CSHL.c ****         uint8 *startOfSlider = &CapSense_sensorSignal[offset];
1019:Generated_Source\PSoC5/CapSense_CSHL.c ****                     
1020:Generated_Source\PSoC5/CapSense_CSHL.c ****         #if (CapSense_ADD_SLIDER_TYPE)
1021:Generated_Source\PSoC5/CapSense_CSHL.c ****             if(type == CapSense_TYPE_RADIAL_SLIDER)
1022:Generated_Source\PSoC5/CapSense_CSHL.c ****             {
1023:Generated_Source\PSoC5/CapSense_CSHL.c ****         #endif /* (CapSense_ADD_SLIDER_TYPE) */
1024:Generated_Source\PSoC5/CapSense_CSHL.c **** 
1025:Generated_Source\PSoC5/CapSense_CSHL.c ****             #if (CapSense_TOTAL_RADIAL_SLIDERS_COUNT > 0u)                
1026:Generated_Source\PSoC5/CapSense_CSHL.c ****                 /* Copy Signal for found centriod */
1027:Generated_Source\PSoC5/CapSense_CSHL.c ****                 CapSense_centroid[CapSense_POS] = startOfSlider[maximum];
1028:Generated_Source\PSoC5/CapSense_CSHL.c ****                  
1029:Generated_Source\PSoC5/CapSense_CSHL.c ****                 /* Check borders for ROTARY Slider */
1030:Generated_Source\PSoC5/CapSense_CSHL.c ****                 if (maximum == 0u)                   /* Start of centroid */
1031:Generated_Source\PSoC5/CapSense_CSHL.c ****                 { 
1032:Generated_Source\PSoC5/CapSense_CSHL.c ****                     CapSense_centroid[CapSense_POS_PREV] = startOfSlider[count - 1u];
1033:Generated_Source\PSoC5/CapSense_CSHL.c ****                     CapSense_centroid[CapSense_POS_NEXT] = startOfSlider[1u];
1034:Generated_Source\PSoC5/CapSense_CSHL.c ****                 }
1035:Generated_Source\PSoC5/CapSense_CSHL.c ****                 else if (maximum == (count - 1u))    /* End of centroid */
1036:Generated_Source\PSoC5/CapSense_CSHL.c ****                 {
1037:Generated_Source\PSoC5/CapSense_CSHL.c ****                     CapSense_centroid[CapSense_POS_PREV] = startOfSlider[maximum - 1u];
1038:Generated_Source\PSoC5/CapSense_CSHL.c ****                     CapSense_centroid[CapSense_POS_NEXT] = startOfSlider[0u];
1039:Generated_Source\PSoC5/CapSense_CSHL.c ****                 }
1040:Generated_Source\PSoC5/CapSense_CSHL.c ****                 else                                /* Not first Not last */
1041:Generated_Source\PSoC5/CapSense_CSHL.c ****                 {
1042:Generated_Source\PSoC5/CapSense_CSHL.c ****                     CapSense_centroid[CapSense_POS_PREV] = startOfSlider[maximum - 1u];
1043:Generated_Source\PSoC5/CapSense_CSHL.c ****                     CapSense_centroid[CapSense_POS_NEXT] = startOfSlider[maximum + 1u];
1044:Generated_Source\PSoC5/CapSense_CSHL.c ****                 }
1045:Generated_Source\PSoC5/CapSense_CSHL.c ****             #endif /* (CapSense_TOTAL_RADIAL_SLIDERS_COUNT > 0u) */
ARM GAS  C:\Users\Xwx47\AppData\Local\Temp\ccyMTa9D.s 			page 24


1046:Generated_Source\PSoC5/CapSense_CSHL.c **** 
1047:Generated_Source\PSoC5/CapSense_CSHL.c ****         #if (CapSense_ADD_SLIDER_TYPE)
1048:Generated_Source\PSoC5/CapSense_CSHL.c ****             }
1049:Generated_Source\PSoC5/CapSense_CSHL.c ****             else
1050:Generated_Source\PSoC5/CapSense_CSHL.c ****             {
1051:Generated_Source\PSoC5/CapSense_CSHL.c ****         #endif /* (CapSense_ADD_SLIDER_TYPE) */
1052:Generated_Source\PSoC5/CapSense_CSHL.c **** 
1053:Generated_Source\PSoC5/CapSense_CSHL.c ****             #if ((CapSense_TOTAL_LINEAR_SLIDERS_COUNT > 0u) || (CapSense_TOTAL_TOUCH_PADS_COUNT > 0
1054:Generated_Source\PSoC5/CapSense_CSHL.c ****                 #if (CapSense_IS_DIPLEX_SLIDER && CapSense_IS_NON_DIPLEX_SLIDER)                   
1055:Generated_Source\PSoC5/CapSense_CSHL.c ****                     /* Calculate next and previous near to maximum */
1056:Generated_Source\PSoC5/CapSense_CSHL.c ****                     if(diplex == 0u)
1057:Generated_Source\PSoC5/CapSense_CSHL.c ****                     {
1058:Generated_Source\PSoC5/CapSense_CSHL.c ****                         pos     = maximum;
1059:Generated_Source\PSoC5/CapSense_CSHL.c ****                         posPrev = maximum - 1u;
1060:Generated_Source\PSoC5/CapSense_CSHL.c ****                         posNext = maximum + 1u; 
1061:Generated_Source\PSoC5/CapSense_CSHL.c ****                     }
1062:Generated_Source\PSoC5/CapSense_CSHL.c ****                     else
1063:Generated_Source\PSoC5/CapSense_CSHL.c ****                     {
1064:Generated_Source\PSoC5/CapSense_CSHL.c ****                         pos     = diplex[maximum];
1065:Generated_Source\PSoC5/CapSense_CSHL.c ****                         posPrev = diplex[maximum - 1u];
1066:Generated_Source\PSoC5/CapSense_CSHL.c ****                         posNext = diplex[maximum + 1u];
1067:Generated_Source\PSoC5/CapSense_CSHL.c ****                         count <<= 1u;
1068:Generated_Source\PSoC5/CapSense_CSHL.c ****                     }                    
1069:Generated_Source\PSoC5/CapSense_CSHL.c ****                 #elif (CapSense_IS_DIPLEX_SLIDER)
1070:Generated_Source\PSoC5/CapSense_CSHL.c ****                     /* Calculate next and previous near to maximum */
1071:Generated_Source\PSoC5/CapSense_CSHL.c ****                     pos     = diplex[maximum];
1072:Generated_Source\PSoC5/CapSense_CSHL.c ****                     posPrev = diplex[maximum - 1u];
1073:Generated_Source\PSoC5/CapSense_CSHL.c ****                     posNext = diplex[maximum + 1u];
1074:Generated_Source\PSoC5/CapSense_CSHL.c ****                     count <<= 1u;                    
1075:Generated_Source\PSoC5/CapSense_CSHL.c ****                 #else                    
1076:Generated_Source\PSoC5/CapSense_CSHL.c ****                     /* Calculate next and previous near to maximum */
1077:Generated_Source\PSoC5/CapSense_CSHL.c ****                     if (maximum >= 1u)
1078:Generated_Source\PSoC5/CapSense_CSHL.c ****                     {
1079:Generated_Source\PSoC5/CapSense_CSHL.c ****                         posPrev = maximum - 1u;
1080:Generated_Source\PSoC5/CapSense_CSHL.c ****                     }
1081:Generated_Source\PSoC5/CapSense_CSHL.c ****                     posNext = maximum + 1u; 
1082:Generated_Source\PSoC5/CapSense_CSHL.c ****                 #endif /* (CapSense_IS_DIPLEX_SLIDER && CapSense_IS_NON_DIPLEX_SLIDER) */
1083:Generated_Source\PSoC5/CapSense_CSHL.c ****                         
1084:Generated_Source\PSoC5/CapSense_CSHL.c ****                 /* Copy Signal for found centriod */
1085:Generated_Source\PSoC5/CapSense_CSHL.c ****                 #if (CapSense_IS_DIPLEX_SLIDER)
1086:Generated_Source\PSoC5/CapSense_CSHL.c ****                     CapSense_centroid[CapSense_POS] = startOfSlider[pos];
1087:Generated_Source\PSoC5/CapSense_CSHL.c ****                 #else
1088:Generated_Source\PSoC5/CapSense_CSHL.c ****                     CapSense_centroid[CapSense_POS] = startOfSlider[maximum];
1089:Generated_Source\PSoC5/CapSense_CSHL.c ****                 #endif /* (CapSense_IS_DIPLEX_SLIDER) */
1090:Generated_Source\PSoC5/CapSense_CSHL.c ****                     
1091:Generated_Source\PSoC5/CapSense_CSHL.c ****                 /* Check borders for LINEAR Slider */
1092:Generated_Source\PSoC5/CapSense_CSHL.c ****                 if (maximum == 0u)                   /* Start of centroid */
1093:Generated_Source\PSoC5/CapSense_CSHL.c ****                 { 
1094:Generated_Source\PSoC5/CapSense_CSHL.c ****                     CapSense_centroid[CapSense_POS_PREV] = 0u;
1095:Generated_Source\PSoC5/CapSense_CSHL.c ****                     CapSense_centroid[CapSense_POS_NEXT] = startOfSlider[posNext];
1096:Generated_Source\PSoC5/CapSense_CSHL.c ****                 }
1097:Generated_Source\PSoC5/CapSense_CSHL.c ****                 else if (maximum == ((count) - 1u)) /* End of centroid */
1098:Generated_Source\PSoC5/CapSense_CSHL.c ****                 {
1099:Generated_Source\PSoC5/CapSense_CSHL.c ****                     CapSense_centroid[CapSense_POS_PREV] = startOfSlider[posPrev];
1100:Generated_Source\PSoC5/CapSense_CSHL.c ****                     CapSense_centroid[CapSense_POS_NEXT] = 0u;
1101:Generated_Source\PSoC5/CapSense_CSHL.c ****                 }
1102:Generated_Source\PSoC5/CapSense_CSHL.c ****                 else                                /* Not first Not last */
ARM GAS  C:\Users\Xwx47\AppData\Local\Temp\ccyMTa9D.s 			page 25


1103:Generated_Source\PSoC5/CapSense_CSHL.c ****                 {
1104:Generated_Source\PSoC5/CapSense_CSHL.c ****                     CapSense_centroid[CapSense_POS_PREV] = startOfSlider[posPrev];
1105:Generated_Source\PSoC5/CapSense_CSHL.c ****                     CapSense_centroid[CapSense_POS_NEXT] = startOfSlider[posNext];
1106:Generated_Source\PSoC5/CapSense_CSHL.c ****                 }
1107:Generated_Source\PSoC5/CapSense_CSHL.c ****             #endif /* ((CapSense_TOTAL_LINEAR_SLIDERS_COUNT>0u)||(CapSense_TOTAL_TOUCH_PADS_COUNT>0
1108:Generated_Source\PSoC5/CapSense_CSHL.c **** 
1109:Generated_Source\PSoC5/CapSense_CSHL.c ****         #if (CapSense_ADD_SLIDER_TYPE)
1110:Generated_Source\PSoC5/CapSense_CSHL.c ****             }
1111:Generated_Source\PSoC5/CapSense_CSHL.c ****         #endif /* (CapSense_ADD_SLIDER_TYPE) */
1112:Generated_Source\PSoC5/CapSense_CSHL.c ****     
1113:Generated_Source\PSoC5/CapSense_CSHL.c ****         /* Subtract noiseThreshold */
1114:Generated_Source\PSoC5/CapSense_CSHL.c ****         if(CapSense_centroid[CapSense_POS_PREV] > noiseThreshold)
1115:Generated_Source\PSoC5/CapSense_CSHL.c ****         {
1116:Generated_Source\PSoC5/CapSense_CSHL.c ****             CapSense_centroid[CapSense_POS_PREV] -= noiseThreshold;
1117:Generated_Source\PSoC5/CapSense_CSHL.c ****         }
1118:Generated_Source\PSoC5/CapSense_CSHL.c ****         else
1119:Generated_Source\PSoC5/CapSense_CSHL.c ****         {
1120:Generated_Source\PSoC5/CapSense_CSHL.c ****             CapSense_centroid[CapSense_POS_PREV] = 0u;
1121:Generated_Source\PSoC5/CapSense_CSHL.c ****         }
1122:Generated_Source\PSoC5/CapSense_CSHL.c ****         
1123:Generated_Source\PSoC5/CapSense_CSHL.c ****         /* Maximum always grater than fingerThreshold, so grate than noiseThreshold */
1124:Generated_Source\PSoC5/CapSense_CSHL.c ****         CapSense_centroid[CapSense_POS] -= noiseThreshold;
1125:Generated_Source\PSoC5/CapSense_CSHL.c ****         
1126:Generated_Source\PSoC5/CapSense_CSHL.c ****         /* Subtract noiseThreshold */
1127:Generated_Source\PSoC5/CapSense_CSHL.c ****         if(CapSense_centroid[CapSense_POS_NEXT] > noiseThreshold)
1128:Generated_Source\PSoC5/CapSense_CSHL.c ****         {
1129:Generated_Source\PSoC5/CapSense_CSHL.c ****             CapSense_centroid[CapSense_POS_NEXT] -= noiseThreshold;
1130:Generated_Source\PSoC5/CapSense_CSHL.c ****         }
1131:Generated_Source\PSoC5/CapSense_CSHL.c ****         else
1132:Generated_Source\PSoC5/CapSense_CSHL.c ****         {
1133:Generated_Source\PSoC5/CapSense_CSHL.c ****             CapSense_centroid[CapSense_POS_NEXT] = 0u;
1134:Generated_Source\PSoC5/CapSense_CSHL.c ****         }
1135:Generated_Source\PSoC5/CapSense_CSHL.c ****         
1136:Generated_Source\PSoC5/CapSense_CSHL.c ****         
1137:Generated_Source\PSoC5/CapSense_CSHL.c ****         /* Si+1 - Si-1 */
1138:Generated_Source\PSoC5/CapSense_CSHL.c ****         numerator = (uint32) CapSense_centroid[CapSense_POS_NEXT] -
1139:Generated_Source\PSoC5/CapSense_CSHL.c ****                     (uint32) CapSense_centroid[CapSense_POS_PREV];
1140:Generated_Source\PSoC5/CapSense_CSHL.c **** 
1141:Generated_Source\PSoC5/CapSense_CSHL.c ****         /* Si+1 + Si + Si-1 */
1142:Generated_Source\PSoC5/CapSense_CSHL.c ****         denominator = (int32) CapSense_centroid[CapSense_POS_PREV] + 
1143:Generated_Source\PSoC5/CapSense_CSHL.c ****                       (int32) CapSense_centroid[CapSense_POS] + 
1144:Generated_Source\PSoC5/CapSense_CSHL.c ****                       (int32) CapSense_centroid[CapSense_POS_NEXT];
1145:Generated_Source\PSoC5/CapSense_CSHL.c ****         
1146:Generated_Source\PSoC5/CapSense_CSHL.c ****         /* (numerator/denominator) + maximum */
1147:Generated_Source\PSoC5/CapSense_CSHL.c ****         denominator = (((int32)(uint32)((uint32)numerator << 8u)/denominator) + (int32)(uint32)((ui
1148:Generated_Source\PSoC5/CapSense_CSHL.c **** 
1149:Generated_Source\PSoC5/CapSense_CSHL.c ****         #if(CapSense_TOTAL_RADIAL_SLIDERS_COUNT > 0u)
1150:Generated_Source\PSoC5/CapSense_CSHL.c ****             /* Only required for RADIAL Slider */
1151:Generated_Source\PSoC5/CapSense_CSHL.c ****             if(denominator < 0)
1152:Generated_Source\PSoC5/CapSense_CSHL.c ****             {
1153:Generated_Source\PSoC5/CapSense_CSHL.c ****                 denominator += (int32)((uint16)((uint16) count << 8u));
1154:Generated_Source\PSoC5/CapSense_CSHL.c ****             }
1155:Generated_Source\PSoC5/CapSense_CSHL.c ****         #endif /* (CapSense_TOTAL_RADIAL_SLIDERS_COUNT > 0u) */
1156:Generated_Source\PSoC5/CapSense_CSHL.c **** 
1157:Generated_Source\PSoC5/CapSense_CSHL.c ****         denominator *= (int16)resolution;
1158:Generated_Source\PSoC5/CapSense_CSHL.c **** 
1159:Generated_Source\PSoC5/CapSense_CSHL.c ****         /* Round the relust and put it to uint8 */
ARM GAS  C:\Users\Xwx47\AppData\Local\Temp\ccyMTa9D.s 			page 26


1160:Generated_Source\PSoC5/CapSense_CSHL.c ****         position = ((uint8) HI16((uint32)denominator + CapSense_CENTROID_ROUND_VALUE));
1161:Generated_Source\PSoC5/CapSense_CSHL.c **** 
1162:Generated_Source\PSoC5/CapSense_CSHL.c ****         return (position);
1163:Generated_Source\PSoC5/CapSense_CSHL.c ****     }    
1164:Generated_Source\PSoC5/CapSense_CSHL.c **** #endif /* (CapSense_TOTAL_CENTROIDS_COUNT) */
1165:Generated_Source\PSoC5/CapSense_CSHL.c **** 
1166:Generated_Source\PSoC5/CapSense_CSHL.c **** 
1167:Generated_Source\PSoC5/CapSense_CSHL.c **** #if(CapSense_TOTAL_LINEAR_SLIDERS_COUNT > 0u)
1168:Generated_Source\PSoC5/CapSense_CSHL.c ****     /*******************************************************************************
1169:Generated_Source\PSoC5/CapSense_CSHL.c ****     * Function Name: CapSense_GetCentroidPos
1170:Generated_Source\PSoC5/CapSense_CSHL.c ****     ********************************************************************************
1171:Generated_Source\PSoC5/CapSense_CSHL.c ****     *
1172:Generated_Source\PSoC5/CapSense_CSHL.c ****     * Summary:
1173:Generated_Source\PSoC5/CapSense_CSHL.c ****     *  Checks the CapSense_Signal[ ] array for a centroid within
1174:Generated_Source\PSoC5/CapSense_CSHL.c ****     *  slider specified range. The centroid position is calculated to the resolution
1175:Generated_Source\PSoC5/CapSense_CSHL.c ****     *  specified in the CapSense customizer. The position filters are applied to the
1176:Generated_Source\PSoC5/CapSense_CSHL.c ****     *  result if enabled.
1177:Generated_Source\PSoC5/CapSense_CSHL.c ****     *
1178:Generated_Source\PSoC5/CapSense_CSHL.c ****     * Parameters:
1179:Generated_Source\PSoC5/CapSense_CSHL.c ****     *  widget:  Widget number.
1180:Generated_Source\PSoC5/CapSense_CSHL.c ****     *  For every linear slider widget there are defines in this format:
1181:Generated_Source\PSoC5/CapSense_CSHL.c ****     *  #define CapSense_LS__"widget_name"            5
1182:Generated_Source\PSoC5/CapSense_CSHL.c ****     * 
1183:Generated_Source\PSoC5/CapSense_CSHL.c ****     * Return:
1184:Generated_Source\PSoC5/CapSense_CSHL.c ****     *  Returns position value of the linear slider.
1185:Generated_Source\PSoC5/CapSense_CSHL.c ****     *
1186:Generated_Source\PSoC5/CapSense_CSHL.c ****     * Side Effects:
1187:Generated_Source\PSoC5/CapSense_CSHL.c ****     *  If any sensor within the slider widget is active, the function returns values
1188:Generated_Source\PSoC5/CapSense_CSHL.c ****     *  from zero to the API resolution value set in the CapSense customizer. If no
1189:Generated_Source\PSoC5/CapSense_CSHL.c ****     *  sensors are active, the function returns 0xFFFF. If an error occurs during
1190:Generated_Source\PSoC5/CapSense_CSHL.c ****     *  execution of the centroid/diplexing algorithm, the function returns 0xFFFF.
1191:Generated_Source\PSoC5/CapSense_CSHL.c ****     *  There are no checks of widget type argument provided to this function.
1192:Generated_Source\PSoC5/CapSense_CSHL.c ****     *  The unproper widget type provided will cause unexpected position calculations.
1193:Generated_Source\PSoC5/CapSense_CSHL.c ****     *
1194:Generated_Source\PSoC5/CapSense_CSHL.c ****     * Note:
1195:Generated_Source\PSoC5/CapSense_CSHL.c ****     *  If noise counts on the slider segments are greater than the noise
1196:Generated_Source\PSoC5/CapSense_CSHL.c ****     *  threshold, this subroutine may generate a false centroid result. The noise
1197:Generated_Source\PSoC5/CapSense_CSHL.c ****     *  threshold should be set carefully (high enough above the noise level) so
1198:Generated_Source\PSoC5/CapSense_CSHL.c ****     *  that noise will not generate a false centroid.
1199:Generated_Source\PSoC5/CapSense_CSHL.c ****     *
1200:Generated_Source\PSoC5/CapSense_CSHL.c ****     * Reentrant:
1201:Generated_Source\PSoC5/CapSense_CSHL.c ****     *  No.
1202:Generated_Source\PSoC5/CapSense_CSHL.c ****     *
1203:Generated_Source\PSoC5/CapSense_CSHL.c ****     *******************************************************************************/
1204:Generated_Source\PSoC5/CapSense_CSHL.c ****     uint16 CapSense_GetCentroidPos(uint8 widget) 
1205:Generated_Source\PSoC5/CapSense_CSHL.c ****     {
1206:Generated_Source\PSoC5/CapSense_CSHL.c ****         #if (CapSense_IS_DIPLEX_SLIDER)
1207:Generated_Source\PSoC5/CapSense_CSHL.c ****             const uint8 CYCODE *diplex;
1208:Generated_Source\PSoC5/CapSense_CSHL.c ****         #endif /* (CapSense_IS_DIPLEX_SLIDER) */
1209:Generated_Source\PSoC5/CapSense_CSHL.c ****                 
1210:Generated_Source\PSoC5/CapSense_CSHL.c ****         #if (0u != CapSense_LINEAR_SLIDERS_POS_FILTERS_MASK)
1211:Generated_Source\PSoC5/CapSense_CSHL.c ****             uint8 posIndex;
1212:Generated_Source\PSoC5/CapSense_CSHL.c ****             uint8 firstTimeIndex = CapSense_posFiltersData[widget];
1213:Generated_Source\PSoC5/CapSense_CSHL.c ****             uint8 posFiltersMask = CapSense_posFiltersMask[widget];  
1214:Generated_Source\PSoC5/CapSense_CSHL.c ****         #endif /* (0u != CapSense_LINEAR_SLIDERS_POS_FILTERS_MASK) */
1215:Generated_Source\PSoC5/CapSense_CSHL.c **** 
1216:Generated_Source\PSoC5/CapSense_CSHL.c ****         #if ((0u != (CapSense_MEDIAN_FILTER & CapSense_LINEAR_SLIDERS_POS_FILTERS_MASK)) || \
ARM GAS  C:\Users\Xwx47\AppData\Local\Temp\ccyMTa9D.s 			page 27


1217:Generated_Source\PSoC5/CapSense_CSHL.c ****              (0u != (CapSense_AVERAGING_FILTER & CapSense_LINEAR_SLIDERS_POS_FILTERS_MASK)))
1218:Generated_Source\PSoC5/CapSense_CSHL.c ****             uint8 tempPos;
1219:Generated_Source\PSoC5/CapSense_CSHL.c ****         #endif /* ((0u != (CapSense_MEDIAN_FILTER & CapSense_LINEAR_SLIDERS_POS_FILTERS_MASK)) || \
1220:Generated_Source\PSoC5/CapSense_CSHL.c ****                *   (0u != (CapSense_AVERAGING_FILTER & CapSense_LINEAR_SLIDERS_POS_FILTERS_MASK)))
1221:Generated_Source\PSoC5/CapSense_CSHL.c ****                */
1222:Generated_Source\PSoC5/CapSense_CSHL.c **** 
1223:Generated_Source\PSoC5/CapSense_CSHL.c ****         uint8 maximum;
1224:Generated_Source\PSoC5/CapSense_CSHL.c ****         uint16 position;
1225:Generated_Source\PSoC5/CapSense_CSHL.c ****         uint8 offset = CapSense_rawDataIndex[widget];
1226:Generated_Source\PSoC5/CapSense_CSHL.c ****         uint8 count = CapSense_numberOfSensors[widget];
1227:Generated_Source\PSoC5/CapSense_CSHL.c ****                         
1228:Generated_Source\PSoC5/CapSense_CSHL.c ****         #if (CapSense_IS_DIPLEX_SLIDER)
1229:Generated_Source\PSoC5/CapSense_CSHL.c ****             if(widget < CapSense_TOTAL_DIPLEXED_SLIDERS_COUNT)
1230:Generated_Source\PSoC5/CapSense_CSHL.c ****             {
1231:Generated_Source\PSoC5/CapSense_CSHL.c ****                 maximum = CapSense_diplexTable[widget];
1232:Generated_Source\PSoC5/CapSense_CSHL.c ****                 diplex = &CapSense_diplexTable[maximum];
1233:Generated_Source\PSoC5/CapSense_CSHL.c ****             }
1234:Generated_Source\PSoC5/CapSense_CSHL.c ****             else
1235:Generated_Source\PSoC5/CapSense_CSHL.c ****             {
1236:Generated_Source\PSoC5/CapSense_CSHL.c ****                 diplex = 0u;
1237:Generated_Source\PSoC5/CapSense_CSHL.c ****             }
1238:Generated_Source\PSoC5/CapSense_CSHL.c ****         #endif /* (CapSense_IS_DIPLEX_SLIDER) */
1239:Generated_Source\PSoC5/CapSense_CSHL.c **** 
1240:Generated_Source\PSoC5/CapSense_CSHL.c ****         /* Find Maximum within centroid */      
1241:Generated_Source\PSoC5/CapSense_CSHL.c ****         #if (CapSense_IS_DIPLEX_SLIDER)        
1242:Generated_Source\PSoC5/CapSense_CSHL.c ****             maximum = CapSense_FindMaximum(offset, count, CapSense_fingerThreshold[widget], diplex)
1243:Generated_Source\PSoC5/CapSense_CSHL.c ****         #else
1244:Generated_Source\PSoC5/CapSense_CSHL.c ****             maximum = CapSense_FindMaximum(offset, count, CapSense_fingerThreshold[widget]);
1245:Generated_Source\PSoC5/CapSense_CSHL.c ****         #endif /* (CapSense_IS_DIPLEX_SLIDER) */
1246:Generated_Source\PSoC5/CapSense_CSHL.c **** 
1247:Generated_Source\PSoC5/CapSense_CSHL.c ****         if (maximum != 0xFFu)
1248:Generated_Source\PSoC5/CapSense_CSHL.c ****         {
1249:Generated_Source\PSoC5/CapSense_CSHL.c ****             /* Calculate centroid */
1250:Generated_Source\PSoC5/CapSense_CSHL.c ****             position = (uint16) CapSense_CalcCentroid(maximum, 
1251:Generated_Source\PSoC5/CapSense_CSHL.c ****                          offset, count, CapSense_centroidMult[widget], CapSense_noiseThreshold[widg
1252:Generated_Source\PSoC5/CapSense_CSHL.c **** 
1253:Generated_Source\PSoC5/CapSense_CSHL.c ****             #if (0u != CapSense_LINEAR_SLIDERS_POS_FILTERS_MASK)
1254:Generated_Source\PSoC5/CapSense_CSHL.c ****                 /* Check if this linear slider has enabled filters */
1255:Generated_Source\PSoC5/CapSense_CSHL.c ****                 if (0u != (posFiltersMask & CapSense_ANY_POS_FILTER))
1256:Generated_Source\PSoC5/CapSense_CSHL.c ****                 {
1257:Generated_Source\PSoC5/CapSense_CSHL.c ****                     /* Caluclate position to store filters data */
1258:Generated_Source\PSoC5/CapSense_CSHL.c ****                     posIndex  = firstTimeIndex + 1u;
1259:Generated_Source\PSoC5/CapSense_CSHL.c ****                     
1260:Generated_Source\PSoC5/CapSense_CSHL.c ****                     if (0u == CapSense_posFiltersData[firstTimeIndex])
1261:Generated_Source\PSoC5/CapSense_CSHL.c ****                     {
1262:Generated_Source\PSoC5/CapSense_CSHL.c ****                         /* Init filters */
1263:Generated_Source\PSoC5/CapSense_CSHL.c ****                         CapSense_posFiltersData[posIndex] = (uint8) position;
1264:Generated_Source\PSoC5/CapSense_CSHL.c ****                         #if ((0u != (CapSense_MEDIAN_FILTER & \
1265:Generated_Source\PSoC5/CapSense_CSHL.c ****                                      CapSense_LINEAR_SLIDERS_POS_FILTERS_MASK)) || \
1266:Generated_Source\PSoC5/CapSense_CSHL.c ****                              (0u != (CapSense_AVERAGING_FILTER & \
1267:Generated_Source\PSoC5/CapSense_CSHL.c ****                                      CapSense_LINEAR_SLIDERS_POS_FILTERS_MASK)))
1268:Generated_Source\PSoC5/CapSense_CSHL.c **** 
1269:Generated_Source\PSoC5/CapSense_CSHL.c ****                             if ( (0u != (posFiltersMask & CapSense_MEDIAN_FILTER)) || 
1270:Generated_Source\PSoC5/CapSense_CSHL.c ****                                  (0u != (posFiltersMask & CapSense_AVERAGING_FILTER)) )
1271:Generated_Source\PSoC5/CapSense_CSHL.c ****                             {
1272:Generated_Source\PSoC5/CapSense_CSHL.c ****                                 CapSense_posFiltersData[posIndex + 1u] = (uint8) position;
1273:Generated_Source\PSoC5/CapSense_CSHL.c ****                             }
ARM GAS  C:\Users\Xwx47\AppData\Local\Temp\ccyMTa9D.s 			page 28


1274:Generated_Source\PSoC5/CapSense_CSHL.c ****                         #endif /* ((0u != (CapSense_MEDIAN_FILTER & \
1275:Generated_Source\PSoC5/CapSense_CSHL.c ****                                *           CapSense_LINEAR_SLIDERS_POS_FILTERS_MASK)) || \
1276:Generated_Source\PSoC5/CapSense_CSHL.c ****                                *   (0u != (CapSense_AVERAGING_FILTER & \
1277:Generated_Source\PSoC5/CapSense_CSHL.c ****                                *           CapSense_LINEAR_SLIDERS_POS_FILTERS_MASK)))
1278:Generated_Source\PSoC5/CapSense_CSHL.c ****                                */
1279:Generated_Source\PSoC5/CapSense_CSHL.c ****                         
1280:Generated_Source\PSoC5/CapSense_CSHL.c ****                         CapSense_posFiltersData[firstTimeIndex] = 1u;
1281:Generated_Source\PSoC5/CapSense_CSHL.c ****                     }
1282:Generated_Source\PSoC5/CapSense_CSHL.c ****                     else
1283:Generated_Source\PSoC5/CapSense_CSHL.c ****                     {
1284:Generated_Source\PSoC5/CapSense_CSHL.c ****                         /* Do filtering */
1285:Generated_Source\PSoC5/CapSense_CSHL.c ****                         #if (0u != (CapSense_MEDIAN_FILTER & CapSense_LINEAR_SLIDERS_POS_FILTERS_MA
1286:Generated_Source\PSoC5/CapSense_CSHL.c ****                             if (0u != (posFiltersMask & CapSense_MEDIAN_FILTER))
1287:Generated_Source\PSoC5/CapSense_CSHL.c ****                             {
1288:Generated_Source\PSoC5/CapSense_CSHL.c ****                                 tempPos = (uint8) position;
1289:Generated_Source\PSoC5/CapSense_CSHL.c ****                                 position = CapSense_MedianFilter(position,
1290:Generated_Source\PSoC5/CapSense_CSHL.c ****                                                                 (uint16)CapSense_posFiltersData[pos
1291:Generated_Source\PSoC5/CapSense_CSHL.c ****                                                                 (uint16)CapSense_posFiltersData[pos
1292:Generated_Source\PSoC5/CapSense_CSHL.c ****                                 CapSense_posFiltersData[posIndex + 1u] =
1293:Generated_Source\PSoC5/CapSense_CSHL.c ****                                                                              CapSense_posFiltersDat
1294:Generated_Source\PSoC5/CapSense_CSHL.c ****                                 CapSense_posFiltersData[posIndex] = tempPos;
1295:Generated_Source\PSoC5/CapSense_CSHL.c ****                             }
1296:Generated_Source\PSoC5/CapSense_CSHL.c ****                         #endif /*(0u != (CapSense_MEDIAN_FILTER &
1297:Generated_Source\PSoC5/CapSense_CSHL.c ****                                *         CapSense_LINEAR_SLIDERS_POS_FILTERS_MASK))
1298:Generated_Source\PSoC5/CapSense_CSHL.c ****                                */
1299:Generated_Source\PSoC5/CapSense_CSHL.c **** 
1300:Generated_Source\PSoC5/CapSense_CSHL.c ****                         #if(0u!=(CapSense_AVERAGING_FILTER & CapSense_LINEAR_SLIDERS_POS_FILTERS_MA
1301:Generated_Source\PSoC5/CapSense_CSHL.c ****                             if (0u != (posFiltersMask & CapSense_AVERAGING_FILTER)) 
1302:Generated_Source\PSoC5/CapSense_CSHL.c ****                             {
1303:Generated_Source\PSoC5/CapSense_CSHL.c ****                                 tempPos = (uint8) position;
1304:Generated_Source\PSoC5/CapSense_CSHL.c ****                                 position = CapSense_AveragingFilter(position,
1305:Generated_Source\PSoC5/CapSense_CSHL.c ****                                                                 (uint16)CapSense_posFiltersData[pos
1306:Generated_Source\PSoC5/CapSense_CSHL.c ****                                                                 (uint16)CapSense_posFiltersData[pos
1307:Generated_Source\PSoC5/CapSense_CSHL.c ****                                 CapSense_posFiltersData[posIndex+1u]=CapSense_posFiltersData[posInd
1308:Generated_Source\PSoC5/CapSense_CSHL.c ****                                 CapSense_posFiltersData[posIndex] = tempPos;
1309:Generated_Source\PSoC5/CapSense_CSHL.c ****                             }
1310:Generated_Source\PSoC5/CapSense_CSHL.c ****                         #endif /* (0u != (CapSense_AVERAGING_FILTER & \
1311:Generated_Source\PSoC5/CapSense_CSHL.c ****                                *           CapSense_LINEAR_SLIDERS_POS_FILTERS_MASK))
1312:Generated_Source\PSoC5/CapSense_CSHL.c ****                                */
1313:Generated_Source\PSoC5/CapSense_CSHL.c **** 
1314:Generated_Source\PSoC5/CapSense_CSHL.c ****                         #if (0u != (CapSense_IIR2_FILTER & CapSense_LINEAR_SLIDERS_POS_FILTERS_MASK
1315:Generated_Source\PSoC5/CapSense_CSHL.c ****                             if (0u != (posFiltersMask & CapSense_IIR2_FILTER)) 
1316:Generated_Source\PSoC5/CapSense_CSHL.c ****                             {
1317:Generated_Source\PSoC5/CapSense_CSHL.c ****                                 position = CapSense_IIR2Filter(position,
1318:Generated_Source\PSoC5/CapSense_CSHL.c ****                                                                     (uint16)CapSense_posFiltersData
1319:Generated_Source\PSoC5/CapSense_CSHL.c ****                                 CapSense_posFiltersData[posIndex] = (uint8) position;
1320:Generated_Source\PSoC5/CapSense_CSHL.c ****                             }
1321:Generated_Source\PSoC5/CapSense_CSHL.c ****                         #endif /* (0u != (CapSense_IIR2_FILTER & \
1322:Generated_Source\PSoC5/CapSense_CSHL.c ****                                *          CapSense_LINEAR_SLIDERS_POS_FILTERS_MASK))
1323:Generated_Source\PSoC5/CapSense_CSHL.c ****                                */
1324:Generated_Source\PSoC5/CapSense_CSHL.c **** 
1325:Generated_Source\PSoC5/CapSense_CSHL.c ****                         #if (0u != (CapSense_IIR4_FILTER & CapSense_LINEAR_SLIDERS_POS_FILTERS_MASK
1326:Generated_Source\PSoC5/CapSense_CSHL.c ****                             if (0u != (posFiltersMask & CapSense_IIR4_FILTER))
1327:Generated_Source\PSoC5/CapSense_CSHL.c ****                             {
1328:Generated_Source\PSoC5/CapSense_CSHL.c ****                                 position = CapSense_IIR4Filter(position,
1329:Generated_Source\PSoC5/CapSense_CSHL.c ****                                                                     (uint16)CapSense_posFiltersData
1330:Generated_Source\PSoC5/CapSense_CSHL.c ****                                 CapSense_posFiltersData[posIndex] = (uint8) position;
ARM GAS  C:\Users\Xwx47\AppData\Local\Temp\ccyMTa9D.s 			page 29


1331:Generated_Source\PSoC5/CapSense_CSHL.c ****                             }                                
1332:Generated_Source\PSoC5/CapSense_CSHL.c ****                         #endif /* (0u != (CapSense_IIR4_FILTER & \
1333:Generated_Source\PSoC5/CapSense_CSHL.c ****                                *          CapSense_LINEAR_SLIDERS_POS_FILTERS_MASK))
1334:Generated_Source\PSoC5/CapSense_CSHL.c ****                                */
1335:Generated_Source\PSoC5/CapSense_CSHL.c **** 
1336:Generated_Source\PSoC5/CapSense_CSHL.c ****                         #if (0u != (CapSense_JITTER_FILTER & CapSense_LINEAR_SLIDERS_POS_FILTERS_MA
1337:Generated_Source\PSoC5/CapSense_CSHL.c ****                             if (0u != (posFiltersMask & CapSense_JITTER_FILTER))
1338:Generated_Source\PSoC5/CapSense_CSHL.c ****                             {
1339:Generated_Source\PSoC5/CapSense_CSHL.c ****                                 position = CapSense_JitterFilter(position,
1340:Generated_Source\PSoC5/CapSense_CSHL.c ****                                                                     (uint16)CapSense_posFiltersData
1341:Generated_Source\PSoC5/CapSense_CSHL.c ****                                 CapSense_posFiltersData[posIndex] = (uint8) position;
1342:Generated_Source\PSoC5/CapSense_CSHL.c ****                             }
1343:Generated_Source\PSoC5/CapSense_CSHL.c ****                         #endif /* (0u != (CapSense_JITTER_FILTER & \
1344:Generated_Source\PSoC5/CapSense_CSHL.c ****                                *           CapSense_LINEAR_SLIDERS_POS_FILTERS_MASK))
1345:Generated_Source\PSoC5/CapSense_CSHL.c ****                                */
1346:Generated_Source\PSoC5/CapSense_CSHL.c ****                     }
1347:Generated_Source\PSoC5/CapSense_CSHL.c ****                 }
1348:Generated_Source\PSoC5/CapSense_CSHL.c ****             #endif /* (0u != CapSense_LINEAR_SLIDERS_POS_FILTERS_MASK) */
1349:Generated_Source\PSoC5/CapSense_CSHL.c **** 
1350:Generated_Source\PSoC5/CapSense_CSHL.c ****         }
1351:Generated_Source\PSoC5/CapSense_CSHL.c ****         else
1352:Generated_Source\PSoC5/CapSense_CSHL.c ****         {
1353:Generated_Source\PSoC5/CapSense_CSHL.c ****             /* The maximum wasn't found */
1354:Generated_Source\PSoC5/CapSense_CSHL.c ****             position = 0xFFFFu;
1355:Generated_Source\PSoC5/CapSense_CSHL.c **** 
1356:Generated_Source\PSoC5/CapSense_CSHL.c ****             #if(0u != CapSense_LINEAR_SLIDERS_POS_FILTERS_MASK)
1357:Generated_Source\PSoC5/CapSense_CSHL.c ****                 /* Reset the filters */
1358:Generated_Source\PSoC5/CapSense_CSHL.c ****                 if(0u != (posFiltersMask & CapSense_ANY_POS_FILTER))
1359:Generated_Source\PSoC5/CapSense_CSHL.c ****                 {
1360:Generated_Source\PSoC5/CapSense_CSHL.c ****                     CapSense_posFiltersData[firstTimeIndex] = 0u;
1361:Generated_Source\PSoC5/CapSense_CSHL.c ****                 }
1362:Generated_Source\PSoC5/CapSense_CSHL.c ****             #endif /* (0u != CapSense_LINEAR_SLIDERS_POS_FILTERS_MASK) */
1363:Generated_Source\PSoC5/CapSense_CSHL.c ****         }
1364:Generated_Source\PSoC5/CapSense_CSHL.c **** 
1365:Generated_Source\PSoC5/CapSense_CSHL.c ****         
1366:Generated_Source\PSoC5/CapSense_CSHL.c ****         return (position);
1367:Generated_Source\PSoC5/CapSense_CSHL.c ****     }
1368:Generated_Source\PSoC5/CapSense_CSHL.c **** #endif /* (CapSense_TOTAL_LINEAR_SLIDERS_COUNT > 0u) */
1369:Generated_Source\PSoC5/CapSense_CSHL.c **** 
1370:Generated_Source\PSoC5/CapSense_CSHL.c **** 
1371:Generated_Source\PSoC5/CapSense_CSHL.c **** #if(CapSense_TOTAL_RADIAL_SLIDERS_COUNT > 0u)
1372:Generated_Source\PSoC5/CapSense_CSHL.c ****     /*******************************************************************************
1373:Generated_Source\PSoC5/CapSense_CSHL.c ****     * Function Name: CapSense_GetRadialCentroidPos
1374:Generated_Source\PSoC5/CapSense_CSHL.c ****     ********************************************************************************
1375:Generated_Source\PSoC5/CapSense_CSHL.c ****     *
1376:Generated_Source\PSoC5/CapSense_CSHL.c ****     * Summary:
1377:Generated_Source\PSoC5/CapSense_CSHL.c ****     *  Checks the CapSense_Signal[ ] array for a centroid within
1378:Generated_Source\PSoC5/CapSense_CSHL.c ****     *  slider specified range. The centroid position is calculated to the resolution
1379:Generated_Source\PSoC5/CapSense_CSHL.c ****     *  specified in the CapSense customizer. The position filters are applied to the
1380:Generated_Source\PSoC5/CapSense_CSHL.c ****     *  result if enabled.
1381:Generated_Source\PSoC5/CapSense_CSHL.c ****     *
1382:Generated_Source\PSoC5/CapSense_CSHL.c ****     * Parameters:
1383:Generated_Source\PSoC5/CapSense_CSHL.c ****     *  widget:  Widget number.
1384:Generated_Source\PSoC5/CapSense_CSHL.c ****     *  For every radial slider widget there are defines in this format:
1385:Generated_Source\PSoC5/CapSense_CSHL.c ****     *  #define CapSense_RS_"widget_name"            5
1386:Generated_Source\PSoC5/CapSense_CSHL.c ****     * 
1387:Generated_Source\PSoC5/CapSense_CSHL.c ****     * Return:
ARM GAS  C:\Users\Xwx47\AppData\Local\Temp\ccyMTa9D.s 			page 30


1388:Generated_Source\PSoC5/CapSense_CSHL.c ****     *  Returns position value of the radial slider.
1389:Generated_Source\PSoC5/CapSense_CSHL.c ****     *
1390:Generated_Source\PSoC5/CapSense_CSHL.c ****     * Side Effects:
1391:Generated_Source\PSoC5/CapSense_CSHL.c ****     *  If any sensor within the slider widget is active, the function returns values
1392:Generated_Source\PSoC5/CapSense_CSHL.c ****     *  from zero to the API resolution value set in the CapSense customizer. If no
1393:Generated_Source\PSoC5/CapSense_CSHL.c ****     *  sensors are active, the function returns 0xFFFF.
1394:Generated_Source\PSoC5/CapSense_CSHL.c ****     *  There are no checks of widget type argument provided to this function.
1395:Generated_Source\PSoC5/CapSense_CSHL.c ****     *  The unproper widget type provided will cause unexpected position calculations.
1396:Generated_Source\PSoC5/CapSense_CSHL.c ****     *
1397:Generated_Source\PSoC5/CapSense_CSHL.c ****     * Note:
1398:Generated_Source\PSoC5/CapSense_CSHL.c ****     *  If noise counts on the slider segments are greater than the noise
1399:Generated_Source\PSoC5/CapSense_CSHL.c ****     *  threshold, this subroutine may generate a false centroid result. The noise
1400:Generated_Source\PSoC5/CapSense_CSHL.c ****     *  threshold should be set carefully (high enough above the noise level) so 
1401:Generated_Source\PSoC5/CapSense_CSHL.c ****     *  that noise will not generate a false centroid.
1402:Generated_Source\PSoC5/CapSense_CSHL.c ****     *
1403:Generated_Source\PSoC5/CapSense_CSHL.c ****     *
1404:Generated_Source\PSoC5/CapSense_CSHL.c ****     * Reentrant:
1405:Generated_Source\PSoC5/CapSense_CSHL.c ****     *  No.
1406:Generated_Source\PSoC5/CapSense_CSHL.c ****     *
1407:Generated_Source\PSoC5/CapSense_CSHL.c ****     *******************************************************************************/
1408:Generated_Source\PSoC5/CapSense_CSHL.c ****      uint16 CapSense_GetRadialCentroidPos(uint8 widget)
1409:Generated_Source\PSoC5/CapSense_CSHL.c **** 	                                       
1410:Generated_Source\PSoC5/CapSense_CSHL.c ****     {
1411:Generated_Source\PSoC5/CapSense_CSHL.c ****         #if (0u != CapSense_RADIAL_SLIDERS_POS_FILTERS_MASK)
1412:Generated_Source\PSoC5/CapSense_CSHL.c ****             uint8 posIndex;
1413:Generated_Source\PSoC5/CapSense_CSHL.c ****             uint8 firstTimeIndex = CapSense_posFiltersData[widget];
1414:Generated_Source\PSoC5/CapSense_CSHL.c ****             uint8 posFiltersMask = CapSense_posFiltersMask[widget]; 
1415:Generated_Source\PSoC5/CapSense_CSHL.c ****         #endif /* (0u != CapSense_RADIAL_SLIDERS_POS_FILTERS_MASK) */
1416:Generated_Source\PSoC5/CapSense_CSHL.c **** 
1417:Generated_Source\PSoC5/CapSense_CSHL.c ****         #if ((0u != (CapSense_MEDIAN_FILTER & CapSense_RADIAL_SLIDERS_POS_FILTERS_MASK)) || \
1418:Generated_Source\PSoC5/CapSense_CSHL.c ****              (0u != (CapSense_AVERAGING_FILTER & CapSense_RADIAL_SLIDERS_POS_FILTERS_MASK)))
1419:Generated_Source\PSoC5/CapSense_CSHL.c ****             uint8 tempPos;
1420:Generated_Source\PSoC5/CapSense_CSHL.c ****         #endif /* ((0u != (CapSense_MEDIAN_FILTER & CapSense_RADIAL_SLIDERS_POS_FILTERS_MASK)) || \
1421:Generated_Source\PSoC5/CapSense_CSHL.c ****                *   (0u != (CapSense_AVERAGING_FILTER & CapSense_RADIAL_SLIDERS_POS_FILTERS_MASK)))
1422:Generated_Source\PSoC5/CapSense_CSHL.c ****                */
1423:Generated_Source\PSoC5/CapSense_CSHL.c **** 
1424:Generated_Source\PSoC5/CapSense_CSHL.c ****         uint8 maximum;
1425:Generated_Source\PSoC5/CapSense_CSHL.c ****         uint16 position;
1426:Generated_Source\PSoC5/CapSense_CSHL.c ****         uint8 offset = CapSense_rawDataIndex[widget];
1427:Generated_Source\PSoC5/CapSense_CSHL.c ****         uint8 count = CapSense_numberOfSensors[widget];
1428:Generated_Source\PSoC5/CapSense_CSHL.c ****         
1429:Generated_Source\PSoC5/CapSense_CSHL.c ****         /* Find Maximum within centroid */        
1430:Generated_Source\PSoC5/CapSense_CSHL.c ****         #if (CapSense_IS_DIPLEX_SLIDER)
1431:Generated_Source\PSoC5/CapSense_CSHL.c ****             maximum = CapSense_FindMaximum(offset, count, CapSense_fingerThreshold[widget], 0u);
1432:Generated_Source\PSoC5/CapSense_CSHL.c ****         #else
1433:Generated_Source\PSoC5/CapSense_CSHL.c ****             maximum = CapSense_FindMaximum(offset, count, CapSense_fingerThreshold[widget]);
1434:Generated_Source\PSoC5/CapSense_CSHL.c ****         #endif /* (CapSense_IS_DIPLEX_SLIDER) */
1435:Generated_Source\PSoC5/CapSense_CSHL.c ****         
1436:Generated_Source\PSoC5/CapSense_CSHL.c ****         if (maximum != 0xFFu)
1437:Generated_Source\PSoC5/CapSense_CSHL.c ****         {
1438:Generated_Source\PSoC5/CapSense_CSHL.c ****             /* Calculate centroid */
1439:Generated_Source\PSoC5/CapSense_CSHL.c ****             position = (uint16) CapSense_CalcCentroid(maximum, 
1440:Generated_Source\PSoC5/CapSense_CSHL.c ****                          offset, count, CapSense_centroidMult[widget], CapSense_noiseThreshold[widg
1441:Generated_Source\PSoC5/CapSense_CSHL.c **** 
1442:Generated_Source\PSoC5/CapSense_CSHL.c ****             #if (0u != CapSense_RADIAL_SLIDERS_POS_FILTERS_MASK)
1443:Generated_Source\PSoC5/CapSense_CSHL.c ****                 /* Check if this Radial slider has enabled filters */
1444:Generated_Source\PSoC5/CapSense_CSHL.c ****                 if (0u != (posFiltersMask & CapSense_ANY_POS_FILTER))
ARM GAS  C:\Users\Xwx47\AppData\Local\Temp\ccyMTa9D.s 			page 31


1445:Generated_Source\PSoC5/CapSense_CSHL.c ****                 {
1446:Generated_Source\PSoC5/CapSense_CSHL.c ****                     /* Caluclate position to store filters data */
1447:Generated_Source\PSoC5/CapSense_CSHL.c ****                     posIndex  = firstTimeIndex + 1u;
1448:Generated_Source\PSoC5/CapSense_CSHL.c ****                     
1449:Generated_Source\PSoC5/CapSense_CSHL.c ****                     if (0u == CapSense_posFiltersData[firstTimeIndex])
1450:Generated_Source\PSoC5/CapSense_CSHL.c ****                     {
1451:Generated_Source\PSoC5/CapSense_CSHL.c ****                         /* Init filters */
1452:Generated_Source\PSoC5/CapSense_CSHL.c ****                         CapSense_posFiltersData[posIndex] = (uint8) position;
1453:Generated_Source\PSoC5/CapSense_CSHL.c ****                         #if ((0u != (CapSense_MEDIAN_FILTER & \
1454:Generated_Source\PSoC5/CapSense_CSHL.c ****                                      CapSense_RADIAL_SLIDERS_POS_FILTERS_MASK)) || \
1455:Generated_Source\PSoC5/CapSense_CSHL.c ****                              (0u != (CapSense_AVERAGING_FILTER & \
1456:Generated_Source\PSoC5/CapSense_CSHL.c ****                                      CapSense_RADIAL_SLIDERS_POS_FILTERS_MASK)))
1457:Generated_Source\PSoC5/CapSense_CSHL.c **** 
1458:Generated_Source\PSoC5/CapSense_CSHL.c ****                             if ( (0u != (posFiltersMask & CapSense_MEDIAN_FILTER))  || 
1459:Generated_Source\PSoC5/CapSense_CSHL.c ****                                  (0u != (posFiltersMask & CapSense_AVERAGING_FILTER)) )
1460:Generated_Source\PSoC5/CapSense_CSHL.c ****                             {
1461:Generated_Source\PSoC5/CapSense_CSHL.c ****                                 CapSense_posFiltersData[posIndex + 1u] = (uint8) position;
1462:Generated_Source\PSoC5/CapSense_CSHL.c ****                             }
1463:Generated_Source\PSoC5/CapSense_CSHL.c ****                         #endif /* ((0u != (CapSense_MEDIAN_FILTER & \
1464:Generated_Source\PSoC5/CapSense_CSHL.c ****                                *           CapSense_RADIAL_SLIDERS_POS_FILTERS_MASK)) || \
1465:Generated_Source\PSoC5/CapSense_CSHL.c ****                                *   (0u != (CapSense_AVERAGING_FILTER & \
1466:Generated_Source\PSoC5/CapSense_CSHL.c ****                                *           CapSense_RADIAL_SLIDERS_POS_FILTERS_MASK)))
1467:Generated_Source\PSoC5/CapSense_CSHL.c ****                                */
1468:Generated_Source\PSoC5/CapSense_CSHL.c ****                         
1469:Generated_Source\PSoC5/CapSense_CSHL.c ****                         CapSense_posFiltersData[firstTimeIndex] = 1u;
1470:Generated_Source\PSoC5/CapSense_CSHL.c ****                     }
1471:Generated_Source\PSoC5/CapSense_CSHL.c ****                     else
1472:Generated_Source\PSoC5/CapSense_CSHL.c ****                     {
1473:Generated_Source\PSoC5/CapSense_CSHL.c ****                         /* Do filtering */
1474:Generated_Source\PSoC5/CapSense_CSHL.c ****                         #if (0u != (CapSense_MEDIAN_FILTER & CapSense_RADIAL_SLIDERS_POS_FILTERS_MA
1475:Generated_Source\PSoC5/CapSense_CSHL.c ****                             if (0u != (posFiltersMask & CapSense_MEDIAN_FILTER))
1476:Generated_Source\PSoC5/CapSense_CSHL.c ****                             {
1477:Generated_Source\PSoC5/CapSense_CSHL.c ****                                 tempPos = (uint8) position;
1478:Generated_Source\PSoC5/CapSense_CSHL.c ****                                 position = CapSense_MedianFilter(position,
1479:Generated_Source\PSoC5/CapSense_CSHL.c ****                                                                         CapSense_posFiltersData[pos
1480:Generated_Source\PSoC5/CapSense_CSHL.c ****                                                                         CapSense_posFiltersData[pos
1481:Generated_Source\PSoC5/CapSense_CSHL.c ****                                 CapSense_posFiltersData[posIndex + 1u] = 
1482:Generated_Source\PSoC5/CapSense_CSHL.c ****                                                                               CapSense_posFiltersDa
1483:Generated_Source\PSoC5/CapSense_CSHL.c ****                                 CapSense_posFiltersData[posIndex] = tempPos;
1484:Generated_Source\PSoC5/CapSense_CSHL.c ****                             }
1485:Generated_Source\PSoC5/CapSense_CSHL.c ****                         #endif /* (0u != (CapSense_MEDIAN_FILTER & 
1486:Generated_Source\PSoC5/CapSense_CSHL.c ****                                *          CapSense_RADIAL_SLIDERS_POS_FILTERS_MASK))
1487:Generated_Source\PSoC5/CapSense_CSHL.c ****                                */
1488:Generated_Source\PSoC5/CapSense_CSHL.c **** 
1489:Generated_Source\PSoC5/CapSense_CSHL.c ****                         #if (0u != (CapSense_AVERAGING_FILTER & \
1490:Generated_Source\PSoC5/CapSense_CSHL.c ****                                     CapSense_RADIAL_SLIDERS_POS_FILTERS_MASK))
1491:Generated_Source\PSoC5/CapSense_CSHL.c ****                             if (0u != (posFiltersMask & CapSense_AVERAGING_FILTER))
1492:Generated_Source\PSoC5/CapSense_CSHL.c ****                             {
1493:Generated_Source\PSoC5/CapSense_CSHL.c ****                                 tempPos = (uint8) position;
1494:Generated_Source\PSoC5/CapSense_CSHL.c ****                                 position = CapSense_AveragingFilter(position, 
1495:Generated_Source\PSoC5/CapSense_CSHL.c ****                                                                        CapSense_posFiltersData[posI
1496:Generated_Source\PSoC5/CapSense_CSHL.c ****                                                                        CapSense_posFiltersData[posI
1497:Generated_Source\PSoC5/CapSense_CSHL.c ****                                 CapSense_posFiltersData[posIndex+1u]= CapSense_posFiltersData[posIn
1498:Generated_Source\PSoC5/CapSense_CSHL.c ****                                 CapSense_posFiltersData[posIndex] = tempPos;
1499:Generated_Source\PSoC5/CapSense_CSHL.c ****                             }
1500:Generated_Source\PSoC5/CapSense_CSHL.c ****                         #endif /* (0u != (CapSense_AVERAGING_FILTER & \
1501:Generated_Source\PSoC5/CapSense_CSHL.c ****                                *          CapSense_RADIAL_SLIDERS_POS_FILTERS_MASK))
ARM GAS  C:\Users\Xwx47\AppData\Local\Temp\ccyMTa9D.s 			page 32


1502:Generated_Source\PSoC5/CapSense_CSHL.c ****                                */
1503:Generated_Source\PSoC5/CapSense_CSHL.c **** 
1504:Generated_Source\PSoC5/CapSense_CSHL.c ****                         #if (0u != (CapSense_IIR2_FILTER & CapSense_RADIAL_SLIDERS_POS_FILTERS_MASK
1505:Generated_Source\PSoC5/CapSense_CSHL.c ****                             if (0u != (posFiltersMask & CapSense_IIR2_FILTER))
1506:Generated_Source\PSoC5/CapSense_CSHL.c ****                             {
1507:Generated_Source\PSoC5/CapSense_CSHL.c ****                                 position = CapSense_IIR2Filter(position,
1508:Generated_Source\PSoC5/CapSense_CSHL.c ****                                                                     (uint16)CapSense_posFiltersData
1509:Generated_Source\PSoC5/CapSense_CSHL.c ****                                 CapSense_posFiltersData[posIndex] = (uint8) position;
1510:Generated_Source\PSoC5/CapSense_CSHL.c ****                             }
1511:Generated_Source\PSoC5/CapSense_CSHL.c ****                         #endif /* (0u != (CapSense_IIR2_FILTER & 
1512:Generated_Source\PSoC5/CapSense_CSHL.c ****                                *          CapSense_RADIAL_SLIDERS_POS_FILTERS_MASK))
1513:Generated_Source\PSoC5/CapSense_CSHL.c ****                                */
1514:Generated_Source\PSoC5/CapSense_CSHL.c **** 
1515:Generated_Source\PSoC5/CapSense_CSHL.c ****                         #if (0u != (CapSense_IIR4_FILTER & CapSense_RADIAL_SLIDERS_POS_FILTERS_MASK
1516:Generated_Source\PSoC5/CapSense_CSHL.c ****                             if (0u != (posFiltersMask & CapSense_IIR4_FILTER))
1517:Generated_Source\PSoC5/CapSense_CSHL.c ****                             {
1518:Generated_Source\PSoC5/CapSense_CSHL.c ****                                 position = CapSense_IIR4Filter(position,
1519:Generated_Source\PSoC5/CapSense_CSHL.c ****                                                                     (uint16)CapSense_posFiltersData
1520:Generated_Source\PSoC5/CapSense_CSHL.c ****                                 CapSense_posFiltersData[posIndex] = (uint8) position;
1521:Generated_Source\PSoC5/CapSense_CSHL.c ****                             }
1522:Generated_Source\PSoC5/CapSense_CSHL.c ****                         #endif /* (0u != (CapSense_IIR4_FILTER & 
1523:Generated_Source\PSoC5/CapSense_CSHL.c ****                                *          CapSense_RADIAL_SLIDERS_POS_FILTERS_MASK))
1524:Generated_Source\PSoC5/CapSense_CSHL.c ****                                */
1525:Generated_Source\PSoC5/CapSense_CSHL.c **** 
1526:Generated_Source\PSoC5/CapSense_CSHL.c ****                         #if (0u != (CapSense_JITTER_FILTER & CapSense_RADIAL_SLIDERS_POS_FILTERS_MA
1527:Generated_Source\PSoC5/CapSense_CSHL.c ****                             if (0u != (posFiltersMask & CapSense_JITTER_FILTER))
1528:Generated_Source\PSoC5/CapSense_CSHL.c ****                             {
1529:Generated_Source\PSoC5/CapSense_CSHL.c ****                                 position = CapSense_JitterFilter(position, 
1530:Generated_Source\PSoC5/CapSense_CSHL.c ****                                                                          CapSense_posFiltersData[po
1531:Generated_Source\PSoC5/CapSense_CSHL.c ****                                 CapSense_posFiltersData[posIndex] = (uint8) position;
1532:Generated_Source\PSoC5/CapSense_CSHL.c ****                             }
1533:Generated_Source\PSoC5/CapSense_CSHL.c ****                         #endif /* (0u != (CapSense_JITTER_FILTER &
1534:Generated_Source\PSoC5/CapSense_CSHL.c ****                                *           CapSense_RADIAL_SLIDERS_POS_FILTERS_MASK))
1535:Generated_Source\PSoC5/CapSense_CSHL.c ****                                */
1536:Generated_Source\PSoC5/CapSense_CSHL.c ****                     }
1537:Generated_Source\PSoC5/CapSense_CSHL.c ****                 }
1538:Generated_Source\PSoC5/CapSense_CSHL.c ****             #endif /* (0u != CapSense_RADIAL_SLIDERS_POS_FILTERS_MASK) */
1539:Generated_Source\PSoC5/CapSense_CSHL.c **** 
1540:Generated_Source\PSoC5/CapSense_CSHL.c ****         }
1541:Generated_Source\PSoC5/CapSense_CSHL.c ****         else
1542:Generated_Source\PSoC5/CapSense_CSHL.c ****         {
1543:Generated_Source\PSoC5/CapSense_CSHL.c ****             /* The maximum didn't find */
1544:Generated_Source\PSoC5/CapSense_CSHL.c ****             position = 0xFFFFu;
1545:Generated_Source\PSoC5/CapSense_CSHL.c **** 
1546:Generated_Source\PSoC5/CapSense_CSHL.c ****             #if (0u != CapSense_RADIAL_SLIDERS_POS_FILTERS_MASK)
1547:Generated_Source\PSoC5/CapSense_CSHL.c ****                 /* Reset the filters */
1548:Generated_Source\PSoC5/CapSense_CSHL.c ****                 if((posFiltersMask & CapSense_ANY_POS_FILTER) != 0u)
1549:Generated_Source\PSoC5/CapSense_CSHL.c ****                 {
1550:Generated_Source\PSoC5/CapSense_CSHL.c ****                     CapSense_posFiltersData[firstTimeIndex] = 0u;
1551:Generated_Source\PSoC5/CapSense_CSHL.c ****                 }
1552:Generated_Source\PSoC5/CapSense_CSHL.c ****             #endif /* (0u != CapSense_RADIAL_SLIDERS_POS_FILTERS_MASK) */
1553:Generated_Source\PSoC5/CapSense_CSHL.c ****         }
1554:Generated_Source\PSoC5/CapSense_CSHL.c ****         
1555:Generated_Source\PSoC5/CapSense_CSHL.c ****         return (position);
1556:Generated_Source\PSoC5/CapSense_CSHL.c ****     }
1557:Generated_Source\PSoC5/CapSense_CSHL.c **** #endif
1558:Generated_Source\PSoC5/CapSense_CSHL.c **** 
ARM GAS  C:\Users\Xwx47\AppData\Local\Temp\ccyMTa9D.s 			page 33


1559:Generated_Source\PSoC5/CapSense_CSHL.c **** 
1560:Generated_Source\PSoC5/CapSense_CSHL.c **** #if(CapSense_TOTAL_TOUCH_PADS_COUNT > 0u)
1561:Generated_Source\PSoC5/CapSense_CSHL.c ****     /*******************************************************************************
1562:Generated_Source\PSoC5/CapSense_CSHL.c ****     * Function Name: CapSense_GetTouchCentroidPos
1563:Generated_Source\PSoC5/CapSense_CSHL.c ****     ********************************************************************************
1564:Generated_Source\PSoC5/CapSense_CSHL.c ****     *
1565:Generated_Source\PSoC5/CapSense_CSHL.c ****     * Summary:
1566:Generated_Source\PSoC5/CapSense_CSHL.c ****     *  If a finger is present on touch pad, this function calculates the X and Y
1567:Generated_Source\PSoC5/CapSense_CSHL.c ****     *  position of the finger by calculating the centroids within touch pad specified
1568:Generated_Source\PSoC5/CapSense_CSHL.c ****     *  range. The X and Y positions are calculated to the API resolutions set in the
1569:Generated_Source\PSoC5/CapSense_CSHL.c ****     *  CapSense customizer. Returns a 1 if a finger is on the touchpad.
1570:Generated_Source\PSoC5/CapSense_CSHL.c ****     *  The position filter is applied to the result if enabled.
1571:Generated_Source\PSoC5/CapSense_CSHL.c ****     *  This function is available only if a touch pad is defined by the CapSense
1572:Generated_Source\PSoC5/CapSense_CSHL.c ****     *  customizer.
1573:Generated_Source\PSoC5/CapSense_CSHL.c ****     *
1574:Generated_Source\PSoC5/CapSense_CSHL.c ****     * Parameters:
1575:Generated_Source\PSoC5/CapSense_CSHL.c ****     *  widget:  Widget number. 
1576:Generated_Source\PSoC5/CapSense_CSHL.c ****     *  For every touchpad widget there are defines in this format:
1577:Generated_Source\PSoC5/CapSense_CSHL.c ****     *  #define CapSense_TP_"widget_name"            5
1578:Generated_Source\PSoC5/CapSense_CSHL.c ****     *
1579:Generated_Source\PSoC5/CapSense_CSHL.c ****     *  pos:     Pointer to the array of two uint16 elements, where result
1580:Generated_Source\PSoC5/CapSense_CSHL.c ****     *  result of calculation of X and Y position are stored.
1581:Generated_Source\PSoC5/CapSense_CSHL.c ****     *  pos[0u]  - position of X
1582:Generated_Source\PSoC5/CapSense_CSHL.c ****     *  pos[1u]  - position of Y
1583:Generated_Source\PSoC5/CapSense_CSHL.c ****     *
1584:Generated_Source\PSoC5/CapSense_CSHL.c ****     * Return:
1585:Generated_Source\PSoC5/CapSense_CSHL.c ****     *  Returns a 1 if a finger is on the touch pad, 0 - if not.
1586:Generated_Source\PSoC5/CapSense_CSHL.c ****     *
1587:Generated_Source\PSoC5/CapSense_CSHL.c ****     * Side Effects:
1588:Generated_Source\PSoC5/CapSense_CSHL.c ****     *   There are no checks of widget type argument provided to this function.
1589:Generated_Source\PSoC5/CapSense_CSHL.c ****     *   The unproper widget type provided will cause unexpected position
1590:Generated_Source\PSoC5/CapSense_CSHL.c ****     *   calculations.
1591:Generated_Source\PSoC5/CapSense_CSHL.c ****     *
1592:Generated_Source\PSoC5/CapSense_CSHL.c ****     * Reentrant:
1593:Generated_Source\PSoC5/CapSense_CSHL.c ****     *  No.
1594:Generated_Source\PSoC5/CapSense_CSHL.c ****     *
1595:Generated_Source\PSoC5/CapSense_CSHL.c ****     *******************************************************************************/
1596:Generated_Source\PSoC5/CapSense_CSHL.c ****     uint8 CapSense_GetTouchCentroidPos(uint8 widget, uint16* pos)
1597:Generated_Source\PSoC5/CapSense_CSHL.c **** 	                                    
1598:Generated_Source\PSoC5/CapSense_CSHL.c ****     {
1599:Generated_Source\PSoC5/CapSense_CSHL.c ****         #if (0u != CapSense_TOUCH_PADS_POS_FILTERS_MASK)
1600:Generated_Source\PSoC5/CapSense_CSHL.c ****             uint8 posXIndex;
1601:Generated_Source\PSoC5/CapSense_CSHL.c ****             uint8 posYIndex;
1602:Generated_Source\PSoC5/CapSense_CSHL.c ****             uint8 firstTimeIndex = CapSense_posFiltersData[widget];
1603:Generated_Source\PSoC5/CapSense_CSHL.c ****             uint8 posFiltersMask = CapSense_posFiltersMask[widget];
1604:Generated_Source\PSoC5/CapSense_CSHL.c ****         #endif /* (0u != CapSense_TOUCH_PADS_POS_FILTERS_MASK) */
1605:Generated_Source\PSoC5/CapSense_CSHL.c **** 
1606:Generated_Source\PSoC5/CapSense_CSHL.c ****         #if ((0u != (CapSense_MEDIAN_FILTER & CapSense_TOUCH_PADS_POS_FILTERS_MASK)) || \
1607:Generated_Source\PSoC5/CapSense_CSHL.c ****              (0u != (CapSense_AVERAGING_FILTER & CapSense_TOUCH_PADS_POS_FILTERS_MASK)))
1608:Generated_Source\PSoC5/CapSense_CSHL.c ****             uint16 tempPos;
1609:Generated_Source\PSoC5/CapSense_CSHL.c ****         #endif /* ((0u != (CapSense_MEDIAN_FILTER & CapSense_TOUCH_PADS_POS_FILTERS_MASK)) || \
1610:Generated_Source\PSoC5/CapSense_CSHL.c ****                *   (0u != (CapSense_AVERAGING_FILTER & CapSense_TOUCH_PADS_POS_FILTERS_MASK)))
1611:Generated_Source\PSoC5/CapSense_CSHL.c ****                */
1612:Generated_Source\PSoC5/CapSense_CSHL.c **** 
1613:Generated_Source\PSoC5/CapSense_CSHL.c ****         uint8 maxX;
1614:Generated_Source\PSoC5/CapSense_CSHL.c ****         uint8 maxY;
1615:Generated_Source\PSoC5/CapSense_CSHL.c ****         uint8 posX;
ARM GAS  C:\Users\Xwx47\AppData\Local\Temp\ccyMTa9D.s 			page 34


1616:Generated_Source\PSoC5/CapSense_CSHL.c ****         uint8 posY;
1617:Generated_Source\PSoC5/CapSense_CSHL.c ****         uint8 touch = 0u;
1618:Generated_Source\PSoC5/CapSense_CSHL.c ****         uint8 offset = CapSense_rawDataIndex[widget];
1619:Generated_Source\PSoC5/CapSense_CSHL.c ****         uint8 count = CapSense_numberOfSensors[widget];
1620:Generated_Source\PSoC5/CapSense_CSHL.c ****         
1621:Generated_Source\PSoC5/CapSense_CSHL.c ****         /* Find Maximum within X centroid */
1622:Generated_Source\PSoC5/CapSense_CSHL.c ****         #if (CapSense_IS_DIPLEX_SLIDER)
1623:Generated_Source\PSoC5/CapSense_CSHL.c ****             maxX = CapSense_FindMaximum(offset, count, CapSense_fingerThreshold[widget], 0u);
1624:Generated_Source\PSoC5/CapSense_CSHL.c ****         #else
1625:Generated_Source\PSoC5/CapSense_CSHL.c ****             maxX = CapSense_FindMaximum(offset, count, CapSense_fingerThreshold[widget]);
1626:Generated_Source\PSoC5/CapSense_CSHL.c ****         #endif /* (CapSense_IS_DIPLEX_SLIDER) */
1627:Generated_Source\PSoC5/CapSense_CSHL.c **** 
1628:Generated_Source\PSoC5/CapSense_CSHL.c ****         if (maxX != 0xFFu)
1629:Generated_Source\PSoC5/CapSense_CSHL.c ****         {
1630:Generated_Source\PSoC5/CapSense_CSHL.c ****             offset = CapSense_rawDataIndex[widget + 1u];
1631:Generated_Source\PSoC5/CapSense_CSHL.c ****             count = CapSense_numberOfSensors[widget + 1u];
1632:Generated_Source\PSoC5/CapSense_CSHL.c **** 
1633:Generated_Source\PSoC5/CapSense_CSHL.c ****             /* Find Maximum within Y centroid */
1634:Generated_Source\PSoC5/CapSense_CSHL.c ****             #if (CapSense_IS_DIPLEX_SLIDER)
1635:Generated_Source\PSoC5/CapSense_CSHL.c ****                 maxY = CapSense_FindMaximum(offset, count, CapSense_fingerThreshold[widget + 1u], 0
1636:Generated_Source\PSoC5/CapSense_CSHL.c ****             #else
1637:Generated_Source\PSoC5/CapSense_CSHL.c ****                 maxY = CapSense_FindMaximum(offset, count, CapSense_fingerThreshold[widget + 1u]);
1638:Generated_Source\PSoC5/CapSense_CSHL.c ****             #endif /* (CapSense_IS_DIPLEX_SLIDER) */
1639:Generated_Source\PSoC5/CapSense_CSHL.c **** 
1640:Generated_Source\PSoC5/CapSense_CSHL.c ****             if (maxY != 0xFFu)
1641:Generated_Source\PSoC5/CapSense_CSHL.c ****             {
1642:Generated_Source\PSoC5/CapSense_CSHL.c ****                 /* X and Y maximums are found = true touch */
1643:Generated_Source\PSoC5/CapSense_CSHL.c ****                 touch = 1u;
1644:Generated_Source\PSoC5/CapSense_CSHL.c ****                 
1645:Generated_Source\PSoC5/CapSense_CSHL.c ****                 /* Calculate Y centroid */
1646:Generated_Source\PSoC5/CapSense_CSHL.c ****                 posY = CapSense_CalcCentroid(maxY, offset, count, 
1647:Generated_Source\PSoC5/CapSense_CSHL.c ****                             CapSense_centroidMult[widget + 1u], CapSense_noiseThreshold[widget + 1u
1648:Generated_Source\PSoC5/CapSense_CSHL.c ****                 
1649:Generated_Source\PSoC5/CapSense_CSHL.c ****                 /* Calculate X centroid */
1650:Generated_Source\PSoC5/CapSense_CSHL.c ****                 offset = CapSense_rawDataIndex[widget];
1651:Generated_Source\PSoC5/CapSense_CSHL.c ****                 count = CapSense_numberOfSensors[widget];
1652:Generated_Source\PSoC5/CapSense_CSHL.c ****                 
1653:Generated_Source\PSoC5/CapSense_CSHL.c ****                 posX = CapSense_CalcCentroid(maxX, offset, count, 
1654:Generated_Source\PSoC5/CapSense_CSHL.c ****                             CapSense_centroidMult[widget],CapSense_noiseThreshold[widget]);
1655:Generated_Source\PSoC5/CapSense_CSHL.c ****     
1656:Generated_Source\PSoC5/CapSense_CSHL.c ****                 #if (0u != CapSense_TOUCH_PADS_POS_FILTERS_MASK)
1657:Generated_Source\PSoC5/CapSense_CSHL.c ****                     /* Check if this TP has enabled filters */
1658:Generated_Source\PSoC5/CapSense_CSHL.c ****                     if (0u != (posFiltersMask & CapSense_ANY_POS_FILTER))
1659:Generated_Source\PSoC5/CapSense_CSHL.c ****                     {
1660:Generated_Source\PSoC5/CapSense_CSHL.c ****                         /* Caluclate position to store filters data */
1661:Generated_Source\PSoC5/CapSense_CSHL.c ****                         posXIndex  = firstTimeIndex + 1u;
1662:Generated_Source\PSoC5/CapSense_CSHL.c ****                         posYIndex  = CapSense_posFiltersData[widget + 1u];
1663:Generated_Source\PSoC5/CapSense_CSHL.c ****                         
1664:Generated_Source\PSoC5/CapSense_CSHL.c ****                         if (0u == CapSense_posFiltersData[firstTimeIndex])
1665:Generated_Source\PSoC5/CapSense_CSHL.c ****                         {
1666:Generated_Source\PSoC5/CapSense_CSHL.c ****                             /* Init filters */
1667:Generated_Source\PSoC5/CapSense_CSHL.c ****                             CapSense_posFiltersData[posXIndex] = posX;
1668:Generated_Source\PSoC5/CapSense_CSHL.c ****                             CapSense_posFiltersData[posYIndex] = posY;
1669:Generated_Source\PSoC5/CapSense_CSHL.c **** 
1670:Generated_Source\PSoC5/CapSense_CSHL.c ****                             #if((0u != (CapSense_MEDIAN_FILTER & \
1671:Generated_Source\PSoC5/CapSense_CSHL.c ****                                         CapSense_TOUCH_PADS_POS_FILTERS_MASK))|| \
1672:Generated_Source\PSoC5/CapSense_CSHL.c ****                                 (0u != (CapSense_AVERAGING_FILTER & \
ARM GAS  C:\Users\Xwx47\AppData\Local\Temp\ccyMTa9D.s 			page 35


1673:Generated_Source\PSoC5/CapSense_CSHL.c ****                                         CapSense_TOUCH_PADS_POS_FILTERS_MASK)))
1674:Generated_Source\PSoC5/CapSense_CSHL.c **** 
1675:Generated_Source\PSoC5/CapSense_CSHL.c ****                                 if ( (0u != (posFiltersMask & CapSense_MEDIAN_FILTER)) || 
1676:Generated_Source\PSoC5/CapSense_CSHL.c ****                                      (0u != (posFiltersMask & CapSense_AVERAGING_FILTER)) )
1677:Generated_Source\PSoC5/CapSense_CSHL.c ****                                 {
1678:Generated_Source\PSoC5/CapSense_CSHL.c ****                                     CapSense_posFiltersData[posXIndex + 1u] = posX;
1679:Generated_Source\PSoC5/CapSense_CSHL.c ****                                     CapSense_posFiltersData[posYIndex + 1u] = posY;
1680:Generated_Source\PSoC5/CapSense_CSHL.c ****                                 }
1681:Generated_Source\PSoC5/CapSense_CSHL.c ****                             #endif /* ((0u != (CapSense_MEDIAN_FILTER & \
1682:Generated_Source\PSoC5/CapSense_CSHL.c ****                                    *           CapSense_TOUCH_PADS_POS_FILTERS_MASK)) || \
1683:Generated_Source\PSoC5/CapSense_CSHL.c ****                                    *    (0u != (CapSense_AVERAGING_FILTER & \
1684:Generated_Source\PSoC5/CapSense_CSHL.c ****                                    *            CapSense_TOUCH_PADS_POS_FILTERS_MASK)))
1685:Generated_Source\PSoC5/CapSense_CSHL.c ****                                    */
1686:Generated_Source\PSoC5/CapSense_CSHL.c ****                             
1687:Generated_Source\PSoC5/CapSense_CSHL.c ****                             CapSense_posFiltersData[firstTimeIndex] = 1u;
1688:Generated_Source\PSoC5/CapSense_CSHL.c ****                         }
1689:Generated_Source\PSoC5/CapSense_CSHL.c ****                         else
1690:Generated_Source\PSoC5/CapSense_CSHL.c ****                         {
1691:Generated_Source\PSoC5/CapSense_CSHL.c ****                             /* Do filtering */
1692:Generated_Source\PSoC5/CapSense_CSHL.c ****                             #if (0u != (CapSense_MEDIAN_FILTER & CapSense_TOUCH_PADS_POS_FILTERS_MA
1693:Generated_Source\PSoC5/CapSense_CSHL.c ****                                 if (0u != (posFiltersMask & CapSense_MEDIAN_FILTER))
1694:Generated_Source\PSoC5/CapSense_CSHL.c ****                                 {
1695:Generated_Source\PSoC5/CapSense_CSHL.c ****                                     tempPos = posX;
1696:Generated_Source\PSoC5/CapSense_CSHL.c ****                                     posX = (uint8) CapSense_MedianFilter(posX,
1697:Generated_Source\PSoC5/CapSense_CSHL.c ****                                                                       CapSense_posFiltersData[posXI
1698:Generated_Source\PSoC5/CapSense_CSHL.c ****                                                                       CapSense_posFiltersData[posXI
1699:Generated_Source\PSoC5/CapSense_CSHL.c ****                                     CapSense_posFiltersData[posXIndex + 1u] = 
1700:Generated_Source\PSoC5/CapSense_CSHL.c ****                                                                              CapSense_posFiltersDat
1701:Generated_Source\PSoC5/CapSense_CSHL.c ****                                     CapSense_posFiltersData[posXIndex] = tempPos;
1702:Generated_Source\PSoC5/CapSense_CSHL.c ****                                     
1703:Generated_Source\PSoC5/CapSense_CSHL.c ****                                     tempPos = posY;
1704:Generated_Source\PSoC5/CapSense_CSHL.c ****                                     posY = (uint8) CapSense_MedianFilter(posY,
1705:Generated_Source\PSoC5/CapSense_CSHL.c ****                                                                        CapSense_posFiltersData[posY
1706:Generated_Source\PSoC5/CapSense_CSHL.c ****                                                                        CapSense_posFiltersData[posY
1707:Generated_Source\PSoC5/CapSense_CSHL.c ****                                     CapSense_posFiltersData[posYIndex + 1u] = 
1708:Generated_Source\PSoC5/CapSense_CSHL.c ****                                                                              CapSense_posFiltersDat
1709:Generated_Source\PSoC5/CapSense_CSHL.c ****                                     CapSense_posFiltersData[posYIndex] = tempPos;
1710:Generated_Source\PSoC5/CapSense_CSHL.c ****                                 }
1711:Generated_Source\PSoC5/CapSense_CSHL.c ****                                 
1712:Generated_Source\PSoC5/CapSense_CSHL.c ****                             #endif /* (0u != (CapSense_MEDIAN_FILTER & \
1713:Generated_Source\PSoC5/CapSense_CSHL.c ****                                    *          CapSense_TOUCH_PADS_POS_FILTERS_MASK))
1714:Generated_Source\PSoC5/CapSense_CSHL.c ****                                    */
1715:Generated_Source\PSoC5/CapSense_CSHL.c **** 
1716:Generated_Source\PSoC5/CapSense_CSHL.c ****                             #if(0u !=(CapSense_AVERAGING_FILTER & CapSense_TOUCH_PADS_POS_FILTERS_M
1717:Generated_Source\PSoC5/CapSense_CSHL.c ****                                 if (0u != (posFiltersMask & CapSense_AVERAGING_FILTER))
1718:Generated_Source\PSoC5/CapSense_CSHL.c ****                                 {
1719:Generated_Source\PSoC5/CapSense_CSHL.c ****                                     tempPos = posX;
1720:Generated_Source\PSoC5/CapSense_CSHL.c ****                                     posX = (uint8) CapSense_AveragingFilter(posX,
1721:Generated_Source\PSoC5/CapSense_CSHL.c ****                                                                        CapSense_posFiltersData[posX
1722:Generated_Source\PSoC5/CapSense_CSHL.c ****                                                                        CapSense_posFiltersData[posX
1723:Generated_Source\PSoC5/CapSense_CSHL.c ****                                     CapSense_posFiltersData[posXIndex + 1u] = 
1724:Generated_Source\PSoC5/CapSense_CSHL.c ****                                                                              CapSense_posFiltersDat
1725:Generated_Source\PSoC5/CapSense_CSHL.c ****                                     CapSense_posFiltersData[posXIndex] = tempPos;
1726:Generated_Source\PSoC5/CapSense_CSHL.c ****                                     
1727:Generated_Source\PSoC5/CapSense_CSHL.c ****                                     tempPos = posY;
1728:Generated_Source\PSoC5/CapSense_CSHL.c ****                                     posY = (uint8) CapSense_AveragingFilter(posY, 
1729:Generated_Source\PSoC5/CapSense_CSHL.c ****                                                                       CapSense_posFiltersData[posYI
ARM GAS  C:\Users\Xwx47\AppData\Local\Temp\ccyMTa9D.s 			page 36


1730:Generated_Source\PSoC5/CapSense_CSHL.c ****                                                                       CapSense_posFiltersData[posYI
1731:Generated_Source\PSoC5/CapSense_CSHL.c ****                                     CapSense_posFiltersData[posYIndex + 1u] = 
1732:Generated_Source\PSoC5/CapSense_CSHL.c ****                                                                             CapSense_posFiltersData
1733:Generated_Source\PSoC5/CapSense_CSHL.c ****                                     CapSense_posFiltersData[posYIndex] = tempPos;
1734:Generated_Source\PSoC5/CapSense_CSHL.c ****                                 }
1735:Generated_Source\PSoC5/CapSense_CSHL.c **** 
1736:Generated_Source\PSoC5/CapSense_CSHL.c ****                             #endif /* (0u != (CapSense_AVERAGING_FILTER & \
1737:Generated_Source\PSoC5/CapSense_CSHL.c ****                                    *           CapSense_TOUCH_PADS_POS_FILTERS_MASK))
1738:Generated_Source\PSoC5/CapSense_CSHL.c ****                                    */
1739:Generated_Source\PSoC5/CapSense_CSHL.c **** 
1740:Generated_Source\PSoC5/CapSense_CSHL.c ****                             #if (0u != (CapSense_IIR2_FILTER & CapSense_TOUCH_PADS_POS_FILTERS_MASK
1741:Generated_Source\PSoC5/CapSense_CSHL.c ****                                 if (0u != (posFiltersMask & CapSense_IIR2_FILTER))
1742:Generated_Source\PSoC5/CapSense_CSHL.c ****                                 {
1743:Generated_Source\PSoC5/CapSense_CSHL.c ****                                     posX = (uint8) CapSense_IIR2Filter(posX, 
1744:Generated_Source\PSoC5/CapSense_CSHL.c ****                                                                            CapSense_posFiltersData[
1745:Generated_Source\PSoC5/CapSense_CSHL.c ****                                     CapSense_posFiltersData[posXIndex] = posX;
1746:Generated_Source\PSoC5/CapSense_CSHL.c ****                                     
1747:Generated_Source\PSoC5/CapSense_CSHL.c ****                                     posY = (uint8) CapSense_IIR2Filter(posY, 
1748:Generated_Source\PSoC5/CapSense_CSHL.c ****                                                                             CapSense_posFiltersData
1749:Generated_Source\PSoC5/CapSense_CSHL.c ****                                     CapSense_posFiltersData[posYIndex] = posY;
1750:Generated_Source\PSoC5/CapSense_CSHL.c ****                                 }
1751:Generated_Source\PSoC5/CapSense_CSHL.c ****                                 
1752:Generated_Source\PSoC5/CapSense_CSHL.c ****                             #endif /* (0u != (CapSense_IIR2_FILTER & \
1753:Generated_Source\PSoC5/CapSense_CSHL.c ****                                    *          CapSense_TOUCH_PADS_POS_FILTERS_MASK))
1754:Generated_Source\PSoC5/CapSense_CSHL.c ****                                    */
1755:Generated_Source\PSoC5/CapSense_CSHL.c **** 
1756:Generated_Source\PSoC5/CapSense_CSHL.c ****                             #if (0u != (CapSense_IIR4_FILTER & CapSense_TOUCH_PADS_POS_FILTERS_MASK
1757:Generated_Source\PSoC5/CapSense_CSHL.c ****                                 if (0u != (posFiltersMask & CapSense_IIR4_FILTER))
1758:Generated_Source\PSoC5/CapSense_CSHL.c ****                                 {
1759:Generated_Source\PSoC5/CapSense_CSHL.c ****                                     posX = (uint8) CapSense_IIR4Filter((uint16)posX,
1760:Generated_Source\PSoC5/CapSense_CSHL.c ****                                                                     (uint16)CapSense_posFiltersData
1761:Generated_Source\PSoC5/CapSense_CSHL.c ****                                     CapSense_posFiltersData[posXIndex] = posX;
1762:Generated_Source\PSoC5/CapSense_CSHL.c **** 
1763:Generated_Source\PSoC5/CapSense_CSHL.c ****                                     posY = (uint8) CapSense_IIR4Filter((uint16)posY,
1764:Generated_Source\PSoC5/CapSense_CSHL.c ****                                                                     (uint16)CapSense_posFiltersData
1765:Generated_Source\PSoC5/CapSense_CSHL.c ****                                     CapSense_posFiltersData[posYIndex] = posY;
1766:Generated_Source\PSoC5/CapSense_CSHL.c ****                                 }
1767:Generated_Source\PSoC5/CapSense_CSHL.c ****                                 
1768:Generated_Source\PSoC5/CapSense_CSHL.c ****                             #endif /* (0u != (CapSense_IIR4_FILTER & \
1769:Generated_Source\PSoC5/CapSense_CSHL.c ****                                    *           CapSense_TOUCH_PADS_POS_FILTERS_MASK))
1770:Generated_Source\PSoC5/CapSense_CSHL.c ****                                    */
1771:Generated_Source\PSoC5/CapSense_CSHL.c **** 
1772:Generated_Source\PSoC5/CapSense_CSHL.c ****                             #if (0u != (CapSense_JITTER_FILTER & CapSense_TOUCH_PADS_POS_FILTERS_MA
1773:Generated_Source\PSoC5/CapSense_CSHL.c ****                                 if (0u != (posFiltersMask & CapSense_JITTER_FILTER))
1774:Generated_Source\PSoC5/CapSense_CSHL.c ****                                     {
1775:Generated_Source\PSoC5/CapSense_CSHL.c ****                                         posX = (uint8) CapSense_JitterFilter(posX, 
1776:Generated_Source\PSoC5/CapSense_CSHL.c ****                                                                             CapSense_posFiltersData
1777:Generated_Source\PSoC5/CapSense_CSHL.c ****                                         CapSense_posFiltersData[posXIndex] = posX;
1778:Generated_Source\PSoC5/CapSense_CSHL.c ****                                         
1779:Generated_Source\PSoC5/CapSense_CSHL.c ****                                         posY = (uint8) CapSense_JitterFilter(posY, 
1780:Generated_Source\PSoC5/CapSense_CSHL.c ****                                                                             CapSense_posFiltersData
1781:Generated_Source\PSoC5/CapSense_CSHL.c ****                                         CapSense_posFiltersData[posYIndex] = posY;
1782:Generated_Source\PSoC5/CapSense_CSHL.c ****                                     }
1783:Generated_Source\PSoC5/CapSense_CSHL.c ****                             #endif /* (0u != (CapSense_JITTER_FILTER & \
1784:Generated_Source\PSoC5/CapSense_CSHL.c ****                                    *           CapSense_TOUCH_PADS_POS_FILTERS_MASK))
1785:Generated_Source\PSoC5/CapSense_CSHL.c ****                                    */
1786:Generated_Source\PSoC5/CapSense_CSHL.c ****                         }
ARM GAS  C:\Users\Xwx47\AppData\Local\Temp\ccyMTa9D.s 			page 37


1787:Generated_Source\PSoC5/CapSense_CSHL.c ****                     }
1788:Generated_Source\PSoC5/CapSense_CSHL.c ****                 #endif /* (0u != CapSense_TOUCH_PADS_POS_FILTERS_MASK) */
1789:Generated_Source\PSoC5/CapSense_CSHL.c **** 
1790:Generated_Source\PSoC5/CapSense_CSHL.c ****                 /* Save positions */
1791:Generated_Source\PSoC5/CapSense_CSHL.c ****                 pos[0u] = posX;
1792:Generated_Source\PSoC5/CapSense_CSHL.c ****                 pos[1u] = posY;
1793:Generated_Source\PSoC5/CapSense_CSHL.c ****             }
1794:Generated_Source\PSoC5/CapSense_CSHL.c ****         }
1795:Generated_Source\PSoC5/CapSense_CSHL.c **** 
1796:Generated_Source\PSoC5/CapSense_CSHL.c ****         #if (0u != CapSense_TOUCH_PADS_POS_FILTERS_MASK)
1797:Generated_Source\PSoC5/CapSense_CSHL.c ****             if(touch == 0u)
1798:Generated_Source\PSoC5/CapSense_CSHL.c ****             {
1799:Generated_Source\PSoC5/CapSense_CSHL.c ****                 /* Reset the filters */
1800:Generated_Source\PSoC5/CapSense_CSHL.c ****                 if ((posFiltersMask & CapSense_ANY_POS_FILTER) != 0u)
1801:Generated_Source\PSoC5/CapSense_CSHL.c ****                 {
1802:Generated_Source\PSoC5/CapSense_CSHL.c ****                     CapSense_posFiltersData[firstTimeIndex] = 0u;
1803:Generated_Source\PSoC5/CapSense_CSHL.c ****                 }
1804:Generated_Source\PSoC5/CapSense_CSHL.c ****             }
1805:Generated_Source\PSoC5/CapSense_CSHL.c ****         #endif /* (0u != CapSense_TOUCH_PADS_POS_FILTERS_MASK) */
1806:Generated_Source\PSoC5/CapSense_CSHL.c ****         
1807:Generated_Source\PSoC5/CapSense_CSHL.c ****         return (touch);
1808:Generated_Source\PSoC5/CapSense_CSHL.c ****     }
1809:Generated_Source\PSoC5/CapSense_CSHL.c **** #endif /* (CapSense_TOTAL_TOUCH_PADS_COUNT > 0u) */
1810:Generated_Source\PSoC5/CapSense_CSHL.c **** 
1811:Generated_Source\PSoC5/CapSense_CSHL.c **** 
1812:Generated_Source\PSoC5/CapSense_CSHL.c **** #if ( (CapSense_RAW_FILTER_MASK & CapSense_MEDIAN_FILTER) | \
1813:Generated_Source\PSoC5/CapSense_CSHL.c ****       (CapSense_POS_FILTERS_MASK & CapSense_MEDIAN_FILTER) )
1814:Generated_Source\PSoC5/CapSense_CSHL.c ****     /*******************************************************************************
1815:Generated_Source\PSoC5/CapSense_CSHL.c ****     * Function Name: CapSense_MedianFilter
1816:Generated_Source\PSoC5/CapSense_CSHL.c ****     ********************************************************************************
1817:Generated_Source\PSoC5/CapSense_CSHL.c ****     *
1818:Generated_Source\PSoC5/CapSense_CSHL.c ****     * Summary:
1819:Generated_Source\PSoC5/CapSense_CSHL.c ****     *  Median filter function. 
1820:Generated_Source\PSoC5/CapSense_CSHL.c ****     *  The median filter looks at the three most recent samples and reports the 
1821:Generated_Source\PSoC5/CapSense_CSHL.c ****     *  median value.
1822:Generated_Source\PSoC5/CapSense_CSHL.c ****     *
1823:Generated_Source\PSoC5/CapSense_CSHL.c ****     * Parameters:
1824:Generated_Source\PSoC5/CapSense_CSHL.c ****     *  x1:  Current value.
1825:Generated_Source\PSoC5/CapSense_CSHL.c ****     *  x2:  Previous value.
1826:Generated_Source\PSoC5/CapSense_CSHL.c ****     *  x3:  Before previous value.
1827:Generated_Source\PSoC5/CapSense_CSHL.c ****     *
1828:Generated_Source\PSoC5/CapSense_CSHL.c ****     * Return:
1829:Generated_Source\PSoC5/CapSense_CSHL.c ****     *  Returns filtered value.
1830:Generated_Source\PSoC5/CapSense_CSHL.c ****     *
1831:Generated_Source\PSoC5/CapSense_CSHL.c ****     *******************************************************************************/
1832:Generated_Source\PSoC5/CapSense_CSHL.c ****     uint16 CapSense_MedianFilter(uint16 x1, uint16 x2, uint16 x3)
1833:Generated_Source\PSoC5/CapSense_CSHL.c ****                                          
1834:Generated_Source\PSoC5/CapSense_CSHL.c ****     {
1835:Generated_Source\PSoC5/CapSense_CSHL.c ****         uint16 tmp;
1836:Generated_Source\PSoC5/CapSense_CSHL.c ****         
1837:Generated_Source\PSoC5/CapSense_CSHL.c ****         if (x1 > x2)
1838:Generated_Source\PSoC5/CapSense_CSHL.c ****         {
1839:Generated_Source\PSoC5/CapSense_CSHL.c ****             tmp = x2;
1840:Generated_Source\PSoC5/CapSense_CSHL.c ****             x2 = x1;
1841:Generated_Source\PSoC5/CapSense_CSHL.c ****             x1 = tmp;
1842:Generated_Source\PSoC5/CapSense_CSHL.c ****         }
1843:Generated_Source\PSoC5/CapSense_CSHL.c ****         
ARM GAS  C:\Users\Xwx47\AppData\Local\Temp\ccyMTa9D.s 			page 38


1844:Generated_Source\PSoC5/CapSense_CSHL.c ****         if (x2 > x3)
1845:Generated_Source\PSoC5/CapSense_CSHL.c ****         {
1846:Generated_Source\PSoC5/CapSense_CSHL.c ****             x2 = x3;
1847:Generated_Source\PSoC5/CapSense_CSHL.c ****         }
1848:Generated_Source\PSoC5/CapSense_CSHL.c ****         
1849:Generated_Source\PSoC5/CapSense_CSHL.c ****         return ((x1 > x2) ? x1 : x2);
1850:Generated_Source\PSoC5/CapSense_CSHL.c ****     }
1851:Generated_Source\PSoC5/CapSense_CSHL.c **** #endif /* ( (CapSense_RAW_FILTER_MASK & CapSense_MEDIAN_FILTER) | \
1852:Generated_Source\PSoC5/CapSense_CSHL.c ****        *    (CapSense_POS_FILTERS_MASK & CapSense_MEDIAN_FILTER) )
1853:Generated_Source\PSoC5/CapSense_CSHL.c ****        */
1854:Generated_Source\PSoC5/CapSense_CSHL.c **** 
1855:Generated_Source\PSoC5/CapSense_CSHL.c **** 
1856:Generated_Source\PSoC5/CapSense_CSHL.c **** #if ( (CapSense_RAW_FILTER_MASK & CapSense_AVERAGING_FILTER) | \
1857:Generated_Source\PSoC5/CapSense_CSHL.c ****       (CapSense_POS_FILTERS_MASK & CapSense_AVERAGING_FILTER) )
1858:Generated_Source\PSoC5/CapSense_CSHL.c ****     /*******************************************************************************
1859:Generated_Source\PSoC5/CapSense_CSHL.c ****     * Function Name: CapSense_AveragingFilter
1860:Generated_Source\PSoC5/CapSense_CSHL.c ****     ********************************************************************************
1861:Generated_Source\PSoC5/CapSense_CSHL.c ****     *
1862:Generated_Source\PSoC5/CapSense_CSHL.c ****     * Summary:
1863:Generated_Source\PSoC5/CapSense_CSHL.c ****     *  Averaging filter function.
1864:Generated_Source\PSoC5/CapSense_CSHL.c ****     *  The averaging filter looks at the three most recent samples of position and
1865:Generated_Source\PSoC5/CapSense_CSHL.c ****     *  reports the averaging value.
1866:Generated_Source\PSoC5/CapSense_CSHL.c ****     *
1867:Generated_Source\PSoC5/CapSense_CSHL.c ****     * Parameters:
1868:Generated_Source\PSoC5/CapSense_CSHL.c ****     *  x1:  Current value.
1869:Generated_Source\PSoC5/CapSense_CSHL.c ****     *  x2:  Previous value.
1870:Generated_Source\PSoC5/CapSense_CSHL.c ****     *  x3:  Before previous value.
1871:Generated_Source\PSoC5/CapSense_CSHL.c ****     *
1872:Generated_Source\PSoC5/CapSense_CSHL.c ****     * Return:
1873:Generated_Source\PSoC5/CapSense_CSHL.c ****     *  Returns filtered value.
1874:Generated_Source\PSoC5/CapSense_CSHL.c ****     *
1875:Generated_Source\PSoC5/CapSense_CSHL.c ****     *******************************************************************************/
1876:Generated_Source\PSoC5/CapSense_CSHL.c ****     uint16 CapSense_AveragingFilter(uint16 x1, uint16 x2, uint16 x3)
1877:Generated_Source\PSoC5/CapSense_CSHL.c ****                                             
1878:Generated_Source\PSoC5/CapSense_CSHL.c ****     {
1879:Generated_Source\PSoC5/CapSense_CSHL.c ****         uint32 tmp = ((uint32)x1 + (uint32)x2 + (uint32)x3) / 3u;
1880:Generated_Source\PSoC5/CapSense_CSHL.c ****         
1881:Generated_Source\PSoC5/CapSense_CSHL.c ****         return ((uint16) tmp);
1882:Generated_Source\PSoC5/CapSense_CSHL.c ****     }
1883:Generated_Source\PSoC5/CapSense_CSHL.c **** #endif /* ( (CapSense_RAW_FILTER_MASK & CapSense_AVERAGING_FILTER) | \
1884:Generated_Source\PSoC5/CapSense_CSHL.c ****        *    (CapSense_POS_FILTERS_MASK & CapSense_AVERAGING_FILTER) )
1885:Generated_Source\PSoC5/CapSense_CSHL.c ****        */
1886:Generated_Source\PSoC5/CapSense_CSHL.c **** 
1887:Generated_Source\PSoC5/CapSense_CSHL.c **** 
1888:Generated_Source\PSoC5/CapSense_CSHL.c **** #if ( (CapSense_RAW_FILTER_MASK & CapSense_IIR2_FILTER) | \
1889:Generated_Source\PSoC5/CapSense_CSHL.c ****       (CapSense_POS_FILTERS_MASK & CapSense_IIR2_FILTER) )
1890:Generated_Source\PSoC5/CapSense_CSHL.c ****     /*******************************************************************************
1891:Generated_Source\PSoC5/CapSense_CSHL.c ****     * Function Name: CapSense_IIR2Filter
1892:Generated_Source\PSoC5/CapSense_CSHL.c ****     ********************************************************************************
1893:Generated_Source\PSoC5/CapSense_CSHL.c ****     *
1894:Generated_Source\PSoC5/CapSense_CSHL.c ****     * Summary:
1895:Generated_Source\PSoC5/CapSense_CSHL.c ****     *  IIR1/2 filter function. IIR1/2 = 1/2current + 1/2previous.
1896:Generated_Source\PSoC5/CapSense_CSHL.c ****     *
1897:Generated_Source\PSoC5/CapSense_CSHL.c ****     * Parameters:
1898:Generated_Source\PSoC5/CapSense_CSHL.c ****     *  x1:  Current value.
1899:Generated_Source\PSoC5/CapSense_CSHL.c ****     *  x2:  Previous value.
1900:Generated_Source\PSoC5/CapSense_CSHL.c ****     *
ARM GAS  C:\Users\Xwx47\AppData\Local\Temp\ccyMTa9D.s 			page 39


1901:Generated_Source\PSoC5/CapSense_CSHL.c ****     * Return:
1902:Generated_Source\PSoC5/CapSense_CSHL.c ****     *  Returns filtered value.
1903:Generated_Source\PSoC5/CapSense_CSHL.c ****     *
1904:Generated_Source\PSoC5/CapSense_CSHL.c ****     *******************************************************************************/
1905:Generated_Source\PSoC5/CapSense_CSHL.c ****     uint16 CapSense_IIR2Filter(uint16 x1, uint16 x2)
1906:Generated_Source\PSoC5/CapSense_CSHL.c ****                                        
1907:Generated_Source\PSoC5/CapSense_CSHL.c ****     {
1908:Generated_Source\PSoC5/CapSense_CSHL.c ****         uint32 tmp;
1909:Generated_Source\PSoC5/CapSense_CSHL.c ****         
1910:Generated_Source\PSoC5/CapSense_CSHL.c ****         /* IIR = 1/2 Current Value+ 1/2 Previous Value */
1911:Generated_Source\PSoC5/CapSense_CSHL.c ****         tmp = (uint32)x1 + (uint32)x2;
1912:Generated_Source\PSoC5/CapSense_CSHL.c ****         tmp >>= 1u;
1913:Generated_Source\PSoC5/CapSense_CSHL.c ****     
1914:Generated_Source\PSoC5/CapSense_CSHL.c ****         return ((uint16) tmp);
1915:Generated_Source\PSoC5/CapSense_CSHL.c ****     }
1916:Generated_Source\PSoC5/CapSense_CSHL.c **** #endif /* ( (CapSense_RAW_FILTER_MASK & CapSense_IIR2_FILTER) | \
1917:Generated_Source\PSoC5/CapSense_CSHL.c ****        *    (CapSense_POS_FILTERS_MASK & CapSense_IIR2_FILTER) )
1918:Generated_Source\PSoC5/CapSense_CSHL.c ****        */
1919:Generated_Source\PSoC5/CapSense_CSHL.c **** 
1920:Generated_Source\PSoC5/CapSense_CSHL.c **** 
1921:Generated_Source\PSoC5/CapSense_CSHL.c **** #if ( (CapSense_RAW_FILTER_MASK & CapSense_IIR4_FILTER) | \
1922:Generated_Source\PSoC5/CapSense_CSHL.c ****       (CapSense_POS_FILTERS_MASK & CapSense_IIR4_FILTER) )
1923:Generated_Source\PSoC5/CapSense_CSHL.c ****     /*******************************************************************************
1924:Generated_Source\PSoC5/CapSense_CSHL.c ****     * Function Name: CapSense_IIR4Filter
1925:Generated_Source\PSoC5/CapSense_CSHL.c ****     ********************************************************************************
1926:Generated_Source\PSoC5/CapSense_CSHL.c ****     *
1927:Generated_Source\PSoC5/CapSense_CSHL.c ****     * Summary:
1928:Generated_Source\PSoC5/CapSense_CSHL.c ****     *  IIR1/4 filter function. IIR1/4 = 1/4current + 3/4previous.
1929:Generated_Source\PSoC5/CapSense_CSHL.c ****     *
1930:Generated_Source\PSoC5/CapSense_CSHL.c ****     * Parameters:
1931:Generated_Source\PSoC5/CapSense_CSHL.c ****     *  x1:  Current value.
1932:Generated_Source\PSoC5/CapSense_CSHL.c ****     *  x2:  Previous value.
1933:Generated_Source\PSoC5/CapSense_CSHL.c ****     *
1934:Generated_Source\PSoC5/CapSense_CSHL.c ****     * Return:
1935:Generated_Source\PSoC5/CapSense_CSHL.c ****     *  Returns filtered value.
1936:Generated_Source\PSoC5/CapSense_CSHL.c ****     *
1937:Generated_Source\PSoC5/CapSense_CSHL.c ****     *******************************************************************************/
1938:Generated_Source\PSoC5/CapSense_CSHL.c ****     uint16 CapSense_IIR4Filter(uint16 x1, uint16 x2)
1939:Generated_Source\PSoC5/CapSense_CSHL.c ****                                        
1940:Generated_Source\PSoC5/CapSense_CSHL.c ****     {
1941:Generated_Source\PSoC5/CapSense_CSHL.c ****         uint32 tmp;
1942:Generated_Source\PSoC5/CapSense_CSHL.c ****         
1943:Generated_Source\PSoC5/CapSense_CSHL.c ****         /* IIR = 1/4 Current Value + 3/4 Previous Value */
1944:Generated_Source\PSoC5/CapSense_CSHL.c ****         tmp = (uint32)x1 + (uint32)x2;
 260              		.loc 1 1944 0
 261 0014 32F81020 		ldrh	r2, [r2, r0, lsl #1]
 262 0018 33F81010 		ldrh	r1, [r3, r0, lsl #1]
 263 001c B6B2     		uxth	r6, r6
 264              	.LVL18:
 265 001e 0A44     		add	r2, r2, r1
 266              	.LVL19:
1945:Generated_Source\PSoC5/CapSense_CSHL.c ****         tmp += ((uint32)x2 << 1u);
 267              		.loc 1 1945 0
 268 0020 02EB4102 		add	r2, r2, r1, lsl #1
 269              	.LVL20:
1946:Generated_Source\PSoC5/CapSense_CSHL.c ****         tmp >>= 2u;
 270              		.loc 1 1946 0
ARM GAS  C:\Users\Xwx47\AppData\Local\Temp\ccyMTa9D.s 			page 40


 271 0024 9708     		lsrs	r7, r2, #2
 272              	.LVL21:
1947:Generated_Source\PSoC5/CapSense_CSHL.c ****         
1948:Generated_Source\PSoC5/CapSense_CSHL.c ****         return ((uint16) tmp);
 273              		.loc 1 1948 0
 274 0026 BDB2     		uxth	r5, r7
 275              	.LVL22:
 276              	.LBE5:
 277              	.LBE4:
 387:Generated_Source\PSoC5/CapSense_CSHL.c ****             
 278              		.loc 1 387 0
 279 0028 23F81050 		strh	r5, [r3, r0, lsl #1]	@ movhi
 406:Generated_Source\PSoC5/CapSense_CSHL.c ****     #endif /* (CapSense_TUNING_METHOD == CapSense_AUTO_TUNING) */
 280              		.loc 1 406 0
 281 002c FFF7FEFF 		bl	CapSense_CalculateThresholds
 282              	.LVL23:
 412:Generated_Source\PSoC5/CapSense_CSHL.c ****     {
 283              		.loc 1 412 0
 284 0030 2648     		ldr	r0, .L33+16
 285 0032 30F81420 		ldrh	r2, [r0, r4, lsl #1]
 286 0036 AA42     		cmp	r2, r5
 287 0038 03D8     		bhi	.L18
 414:Generated_Source\PSoC5/CapSense_CSHL.c ****         widget = 1u;    /* Positive difference - Calculate the Signal */
 288              		.loc 1 414 0
 289 003a AD1A     		subs	r5, r5, r2
 290 003c ADB2     		uxth	r5, r5
 291              	.LVL24:
 415:Generated_Source\PSoC5/CapSense_CSHL.c ****     }
 292              		.loc 1 415 0
 293 003e 0123     		movs	r3, #1
 294 0040 16E0     		b	.L19
 295              	.LVL25:
 296              	.L18:
 419:Generated_Source\PSoC5/CapSense_CSHL.c ****         widget = 0u;    /* Negative difference - Do NOT calculate the Signal */
 297              		.loc 1 419 0
 298 0042 551B     		subs	r5, r2, r5
 299 0044 ADB2     		uxth	r5, r5
 300              	.LVL26:
 423:Generated_Source\PSoC5/CapSense_CSHL.c ****     {
 301              		.loc 1 423 0
 302 0046 142D     		cmp	r5, #20
 303 0048 11D9     		bls	.L26
 425:Generated_Source\PSoC5/CapSense_CSHL.c ****         {
 304              		.loc 1 425 0
 305 004a DFF88480 		ldr	r8, .L33+20
 306 004e 0027     		movs	r7, #0
 307 0050 18F80420 		ldrb	r2, [r8, r4]	@ zero_extendqisi2
 308 0054 042A     		cmp	r2, #4
 309 0056 05D9     		bls	.L20
 427:Generated_Source\PSoC5/CapSense_CSHL.c ****             CapSense_lowBaselineResetCnt[sensor] = 0u;
 310              		.loc 1 427 0
 311 0058 2046     		mov	r0, r4
 312 005a FFF7FEFF 		bl	CapSense_BaseInit
 313              	.LVL27:
 428:Generated_Source\PSoC5/CapSense_CSHL.c ****         }
 314              		.loc 1 428 0
 315 005e 08F80470 		strb	r7, [r8, r4]
ARM GAS  C:\Users\Xwx47\AppData\Local\Temp\ccyMTa9D.s 			page 41


 316 0062 02E0     		b	.L31
 317              	.L20:
 432:Generated_Source\PSoC5/CapSense_CSHL.c ****         }
 318              		.loc 1 432 0
 319 0064 0132     		adds	r2, r2, #1
 320 0066 08F80420 		strb	r2, [r8, r4]
 321              	.L31:
 420:Generated_Source\PSoC5/CapSense_CSHL.c ****     }
 322              		.loc 1 420 0
 323 006a 3B46     		mov	r3, r7
 324 006c 17E0     		b	.L21
 325              	.L26:
 326 006e 0023     		movs	r3, #0
 327              	.LVL28:
 328              	.L19:
 439:Generated_Source\PSoC5/CapSense_CSHL.c ****                  ((tempRaw < (uint16) CapSense_NEGATIVE_NOISE_THRESHOLD)
 329              		.loc 1 439 0
 330 0070 AE42     		cmp	r6, r5
 331 0072 02D2     		bcs	.L22
 439:Generated_Source\PSoC5/CapSense_CSHL.c ****                  ((tempRaw < (uint16) CapSense_NEGATIVE_NOISE_THRESHOLD)
 332              		.loc 1 439 0 is_stmt 0 discriminator 1
 333 0074 132D     		cmp	r5, #19
 334 0076 12D8     		bhi	.L21
 441:Generated_Source\PSoC5/CapSense_CSHL.c ****             {
 335              		.loc 1 441 0 is_stmt 1
 336 0078 83B9     		cbnz	r3, .L27
 337              	.L22:
 338              	.LVL29:
 446:Generated_Source\PSoC5/CapSense_CSHL.c **** 
 339              		.loc 1 446 0
 340 007a DFF85CE0 		ldr	lr, .L33+28
 341 007e 1EF80410 		ldrb	r1, [lr, r4]	@ zero_extendqisi2
 342 0082 41EA0221 		orr	r1, r1, r2, lsl #8
 343 0086 8A1A     		subs	r2, r1, r2
 344              	.LVL30:
 452:Generated_Source\PSoC5/CapSense_CSHL.c **** 
 345              		.loc 1 452 0
 346 0088 3A44     		add	r2, r2, r7
 347              	.LVL31:
 455:Generated_Source\PSoC5/CapSense_CSHL.c ****                 CapSense_sensorBaselineLow[sensor] = ((uint8) calc);
 348              		.loc 1 455 0
 349 008a 110A     		lsrs	r1, r2, #8
 456:Generated_Source\PSoC5/CapSense_CSHL.c **** 
 350              		.loc 1 456 0
 351 008c 0EF80420 		strb	r2, [lr, r4]
 458:Generated_Source\PSoC5/CapSense_CSHL.c ****         #if (CapSense_AUTO_RESET == CapSense_AUTO_RESET_DISABLE)
 352              		.loc 1 458 0
 353 0090 0F4A     		ldr	r2, .L33+20
 354              	.LVL32:
 455:Generated_Source\PSoC5/CapSense_CSHL.c ****                 CapSense_sensorBaselineLow[sensor] = ((uint8) calc);
 355              		.loc 1 455 0
 356 0092 20F81410 		strh	r1, [r0, r4, lsl #1]	@ movhi
 458:Generated_Source\PSoC5/CapSense_CSHL.c ****         #if (CapSense_AUTO_RESET == CapSense_AUTO_RESET_DISABLE)
 357              		.loc 1 458 0
 358 0096 0021     		movs	r1, #0
 359 0098 1155     		strb	r1, [r2, r4]
 360 009a 00E0     		b	.L21
ARM GAS  C:\Users\Xwx47\AppData\Local\Temp\ccyMTa9D.s 			page 42


 361              	.L27:
 362 009c 0123     		movs	r3, #1
 363              	.L21:
 465:Generated_Source\PSoC5/CapSense_CSHL.c ****     {
 364              		.loc 1 465 0
 365 009e AE42     		cmp	r6, r5
 366 00a0 0C4A     		ldr	r2, .L33+24
 367 00a2 07D2     		bcs	.L23
 465:Generated_Source\PSoC5/CapSense_CSHL.c ****     {
 368              		.loc 1 465 0 is_stmt 0 discriminator 1
 369 00a4 33B1     		cbz	r3, .L23
 469:Generated_Source\PSoC5/CapSense_CSHL.c ****             {
 370              		.loc 1 469 0 is_stmt 1
 371 00a6 FF2D     		cmp	r5, #255
 372 00a8 01D9     		bls	.L24
 471:Generated_Source\PSoC5/CapSense_CSHL.c ****             }    
 373              		.loc 1 471 0
 374 00aa FF23     		movs	r3, #255
 375 00ac 03E0     		b	.L32
 376              	.L24:
 475:Generated_Source\PSoC5/CapSense_CSHL.c ****             }
 377              		.loc 1 475 0
 378 00ae 1555     		strb	r5, [r2, r4]
 379 00b0 BDE8F081 		pop	{r4, r5, r6, r7, r8, pc}
 380              	.LVL33:
 381              	.L23:
 484:Generated_Source\PSoC5/CapSense_CSHL.c ****     }
 382              		.loc 1 484 0
 383 00b4 0023     		movs	r3, #0
 384              	.L32:
 385 00b6 1355     		strb	r3, [r2, r4]
 386 00b8 BDE8F081 		pop	{r4, r5, r6, r7, r8, pc}
 387              	.LVL34:
 388              	.L34:
 389              		.align	2
 390              	.L33:
 391 00bc 00000000 		.word	CapSense_widgetNumber
 392 00c0 00000000 		.word	.LANCHOR1
 393 00c4 00000000 		.word	CapSense_sensorRaw
 394 00c8 00000000 		.word	CapSense_rawFilterData1
 395 00cc 00000000 		.word	CapSense_sensorBaseline
 396 00d0 00000000 		.word	CapSense_lowBaselineResetCnt
 397 00d4 00000000 		.word	CapSense_sensorSignal
 398 00d8 00000000 		.word	CapSense_sensorBaselineLow
 399              		.cfi_endproc
 400              	.LFE4:
 401              		.size	CapSense_UpdateSensorBaseline, .-CapSense_UpdateSensorBaseline
 402              		.section	.text.CapSense_UpdateEnabledBaselines,"ax",%progbits
 403              		.align	1
 404              		.global	CapSense_UpdateEnabledBaselines
 405              		.thumb
 406              		.thumb_func
 407              		.type	CapSense_UpdateEnabledBaselines, %function
 408              	CapSense_UpdateEnabledBaselines:
 409              	.LFB5:
 525:Generated_Source\PSoC5/CapSense_CSHL.c ****     uint8 i;
 410              		.loc 1 525 0
ARM GAS  C:\Users\Xwx47\AppData\Local\Temp\ccyMTa9D.s 			page 43


 411              		.cfi_startproc
 412              		@ args = 0, pretend = 0, frame = 0
 413              		@ frame_needed = 0, uses_anonymous_args = 0
 414              	.LVL35:
 415 0000 70B5     		push	{r4, r5, r6, lr}
 416              		.cfi_def_cfa_offset 16
 417              		.cfi_offset 4, -16
 418              		.cfi_offset 5, -12
 419              		.cfi_offset 6, -8
 420              		.cfi_offset 14, -4
 534:Generated_Source\PSoC5/CapSense_CSHL.c ****         {
 421              		.loc 1 534 0
 422 0002 074E     		ldr	r6, .L42
 525:Generated_Source\PSoC5/CapSense_CSHL.c ****     uint8 i;
 423              		.loc 1 525 0
 424 0004 0024     		movs	r4, #0
 534:Generated_Source\PSoC5/CapSense_CSHL.c ****         {
 425              		.loc 1 534 0
 426 0006 0125     		movs	r5, #1
 427              	.LVL36:
 428              	.L37:
 429 0008 3278     		ldrb	r2, [r6]	@ zero_extendqisi2
 430 000a 05FA04F3 		lsl	r3, r5, r4
 431 000e 1342     		tst	r3, r2
 432 0010 E0B2     		uxtb	r0, r4
 433              	.LVL37:
 434 0012 01D0     		beq	.L36
 536:Generated_Source\PSoC5/CapSense_CSHL.c ****         }
 435              		.loc 1 536 0
 436 0014 FFF7FEFF 		bl	CapSense_UpdateSensorBaseline
 437              	.LVL38:
 438              	.L36:
 439 0018 0134     		adds	r4, r4, #1
 440              	.LVL39:
 530:Generated_Source\PSoC5/CapSense_CSHL.c ****     {
 441              		.loc 1 530 0 discriminator 2
 442 001a 032C     		cmp	r4, #3
 443 001c F4D1     		bne	.L37
 539:Generated_Source\PSoC5/CapSense_CSHL.c **** 
 444              		.loc 1 539 0
 445 001e 70BD     		pop	{r4, r5, r6, pc}
 446              	.L43:
 447              		.align	2
 448              	.L42:
 449 0020 00000000 		.word	CapSense_sensorEnableMask
 450              		.cfi_endproc
 451              	.LFE5:
 452              		.size	CapSense_UpdateEnabledBaselines, .-CapSense_UpdateEnabledBaselines
 453              		.section	.text.CapSense_CheckIsSensorActive,"ax",%progbits
 454              		.align	1
 455              		.global	CapSense_CheckIsSensorActive
 456              		.thumb
 457              		.thumb_func
 458              		.type	CapSense_CheckIsSensorActive, %function
 459              	CapSense_CheckIsSensorActive:
 460              	.LFB6:
 583:Generated_Source\PSoC5/CapSense_CSHL.c ****     uint8 debounceIndex;
ARM GAS  C:\Users\Xwx47\AppData\Local\Temp\ccyMTa9D.s 			page 44


 461              		.loc 1 583 0
 462              		.cfi_startproc
 463              		@ args = 0, pretend = 0, frame = 0
 464              		@ frame_needed = 0, uses_anonymous_args = 0
 465              	.LVL40:
 466 0000 F0B5     		push	{r4, r5, r6, r7, lr}
 467              		.cfi_def_cfa_offset 20
 468              		.cfi_offset 4, -20
 469              		.cfi_offset 5, -16
 470              		.cfi_offset 6, -12
 471              		.cfi_offset 7, -8
 472              		.cfi_offset 14, -4
 587:Generated_Source\PSoC5/CapSense_CSHL.c ****     /* Prepare to find debounce counter index */
 473              		.loc 1 587 0
 474 0002 00F00702 		and	r2, r0, #7
 475 0006 0123     		movs	r3, #1
 476 0008 9340     		lsls	r3, r3, r2
 589:Generated_Source\PSoC5/CapSense_CSHL.c ****     uint8 fingerThreshold = CapSense_fingerThreshold[widget];
 477              		.loc 1 589 0
 478 000a 184A     		ldr	r2, .L49
 598:Generated_Source\PSoC5/CapSense_CSHL.c ****     {
 479              		.loc 1 598 0
 480 000c 184C     		ldr	r4, .L49+4
 590:Generated_Source\PSoC5/CapSense_CSHL.c ****     uint8 hysteresis = CapSense_hysteresis[widget];
 481              		.loc 1 590 0
 482 000e 155C     		ldrb	r5, [r2, r0]	@ zero_extendqisi2
 483 0010 184A     		ldr	r2, .L49+8
 598:Generated_Source\PSoC5/CapSense_CSHL.c ****     {
 484              		.loc 1 598 0
 485 0012 C608     		lsrs	r6, r0, #3
 590:Generated_Source\PSoC5/CapSense_CSHL.c ****     uint8 hysteresis = CapSense_hysteresis[widget];
 486              		.loc 1 590 0
 487 0014 5119     		adds	r1, r2, r5
 592:Generated_Source\PSoC5/CapSense_CSHL.c ****     
 488              		.loc 1 592 0
 489 0016 575D     		ldrb	r7, [r2, r5]	@ zero_extendqisi2
 598:Generated_Source\PSoC5/CapSense_CSHL.c ****     {
 490              		.loc 1 598 0
 491 0018 A25D     		ldrb	r2, [r4, r6]	@ zero_extendqisi2
 587:Generated_Source\PSoC5/CapSense_CSHL.c ****     /* Prepare to find debounce counter index */
 492              		.loc 1 587 0
 493 001a DBB2     		uxtb	r3, r3
 494              	.LVL41:
 495 001c DFF85CC0 		ldr	ip, .L49+16
 598:Generated_Source\PSoC5/CapSense_CSHL.c ****     {
 496              		.loc 1 598 0
 497 0020 1342     		tst	r3, r2
 590:Generated_Source\PSoC5/CapSense_CSHL.c ****     uint8 hysteresis = CapSense_hysteresis[widget];
 498              		.loc 1 590 0
 499 0022 91F806E0 		ldrb	lr, [r1, #6]	@ zero_extendqisi2
 500              	.LVL42:
 601:Generated_Source\PSoC5/CapSense_CSHL.c ****         {
 501              		.loc 1 601 0
 502 0026 1CF80000 		ldrb	r0, [ip, r0]	@ zero_extendqisi2
 503              	.LVL43:
 591:Generated_Source\PSoC5/CapSense_CSHL.c ****     uint8 debounce = CapSense_debounce[widget];
 504              		.loc 1 591 0
ARM GAS  C:\Users\Xwx47\AppData\Local\Temp\ccyMTa9D.s 			page 45


 505 002a 497A     		ldrb	r1, [r1, #9]	@ zero_extendqisi2
 506              	.LVL44:
 598:Generated_Source\PSoC5/CapSense_CSHL.c ****     {
 507              		.loc 1 598 0
 508 002c 09D0     		beq	.L45
 601:Generated_Source\PSoC5/CapSense_CSHL.c ****         {
 509              		.loc 1 601 0
 510 002e C1EB0E01 		rsb	r1, r1, lr
 511              	.LVL45:
 512 0032 8842     		cmp	r0, r1
 513 0034 14DA     		bge	.L46
 603:Generated_Source\PSoC5/CapSense_CSHL.c ****             CapSense_debounceCounter[debounceIndex] = debounce; 
 514              		.loc 1 603 0
 515 0036 22EA0302 		bic	r2, r2, r3
 516 003a A255     		strb	r2, [r4, r6]
 604:Generated_Source\PSoC5/CapSense_CSHL.c ****         }
 517              		.loc 1 604 0
 518 003c 0E4A     		ldr	r2, .L49+12
 519 003e 5755     		strb	r7, [r2, r5]
 520 0040 0EE0     		b	.L46
 521              	.LVL46:
 522              	.L45:
 610:Generated_Source\PSoC5/CapSense_CSHL.c ****         {
 523              		.loc 1 610 0
 524 0042 7144     		add	r1, r1, lr
 525              	.LVL47:
 526 0044 8842     		cmp	r0, r1
 527 0046 0C48     		ldr	r0, .L49+12
 528 0048 09DD     		ble	.L47
 613:Generated_Source\PSoC5/CapSense_CSHL.c ****             {
 529              		.loc 1 613 0
 530 004a 415D     		ldrb	r1, [r0, r5]	@ zero_extendqisi2
 531 004c 0129     		cmp	r1, #1
 615:Generated_Source\PSoC5/CapSense_CSHL.c ****             }
 532              		.loc 1 615 0
 533 004e 98BF     		it	ls
 534 0050 1A43     		orrls	r2, r2, r3
 617:Generated_Source\PSoC5/CapSense_CSHL.c ****         }
 535              		.loc 1 617 0
 536 0052 01F1FF31 		add	r1, r1, #-1
 615:Generated_Source\PSoC5/CapSense_CSHL.c ****             }
 537              		.loc 1 615 0
 538 0056 98BF     		it	ls
 539 0058 A255     		strbls	r2, [r4, r6]
 617:Generated_Source\PSoC5/CapSense_CSHL.c ****         }
 540              		.loc 1 617 0
 541 005a 4155     		strb	r1, [r0, r5]
 542 005c 00E0     		b	.L46
 543              	.L47:
 622:Generated_Source\PSoC5/CapSense_CSHL.c ****         }
 544              		.loc 1 622 0
 545 005e 4755     		strb	r7, [r0, r5]
 546              	.L46:
 626:Generated_Source\PSoC5/CapSense_CSHL.c **** }
 547              		.loc 1 626 0
 548 0060 A25D     		ldrb	r2, [r4, r6]	@ zero_extendqisi2
 549 0062 1342     		tst	r3, r2
ARM GAS  C:\Users\Xwx47\AppData\Local\Temp\ccyMTa9D.s 			page 46


 627:Generated_Source\PSoC5/CapSense_CSHL.c **** 
 550              		.loc 1 627 0
 551 0064 14BF     		ite	ne
 552 0066 0120     		movne	r0, #1
 553 0068 0020     		moveq	r0, #0
 554 006a F0BD     		pop	{r4, r5, r6, r7, pc}
 555              	.LVL48:
 556              	.L50:
 557              		.align	2
 558              	.L49:
 559 006c 00000000 		.word	CapSense_widgetNumber
 560 0070 00000000 		.word	CapSense_sensorOnMask
 561 0074 00000000 		.word	.LANCHOR1
 562 0078 00000000 		.word	.LANCHOR0
 563 007c 00000000 		.word	CapSense_sensorSignal
 564              		.cfi_endproc
 565              	.LFE6:
 566              		.size	CapSense_CheckIsSensorActive, .-CapSense_CheckIsSensorActive
 567              		.section	.text.CapSense_CheckIsWidgetActive,"ax",%progbits
 568              		.align	1
 569              		.global	CapSense_CheckIsWidgetActive
 570              		.thumb
 571              		.thumb_func
 572              		.type	CapSense_CheckIsWidgetActive, %function
 573              	CapSense_CheckIsWidgetActive:
 574              	.LFB7:
 655:Generated_Source\PSoC5/CapSense_CSHL.c ****     uint8 rawIndex = CapSense_rawDataIndex[widget];
 575              		.loc 1 655 0
 576              		.cfi_startproc
 577              		@ args = 0, pretend = 0, frame = 0
 578              		@ frame_needed = 0, uses_anonymous_args = 0
 579              	.LVL49:
 656:Generated_Source\PSoC5/CapSense_CSHL.c ****     uint8 numberOfSensors = CapSense_numberOfSensors[widget] + rawIndex;
 580              		.loc 1 656 0
 581 0000 094B     		ldr	r3, .L57
 655:Generated_Source\PSoC5/CapSense_CSHL.c ****     uint8 rawIndex = CapSense_rawDataIndex[widget];
 582              		.loc 1 655 0
 583 0002 70B5     		push	{r4, r5, r6, lr}
 584              		.cfi_def_cfa_offset 16
 585              		.cfi_offset 4, -16
 586              		.cfi_offset 5, -12
 587              		.cfi_offset 6, -8
 588              		.cfi_offset 14, -4
 656:Generated_Source\PSoC5/CapSense_CSHL.c ****     uint8 numberOfSensors = CapSense_numberOfSensors[widget] + rawIndex;
 589              		.loc 1 656 0
 590 0004 1C5C     		ldrb	r4, [r3, r0]	@ zero_extendqisi2
 591              	.LVL50:
 657:Generated_Source\PSoC5/CapSense_CSHL.c ****     uint8 state = 0u;
 592              		.loc 1 657 0
 593 0006 1844     		add	r0, r0, r3
 594              	.LVL51:
 595 0008 C578     		ldrb	r5, [r0, #3]	@ zero_extendqisi2
 658:Generated_Source\PSoC5/CapSense_CSHL.c **** 
 596              		.loc 1 658 0
 597 000a 0026     		movs	r6, #0
 657:Generated_Source\PSoC5/CapSense_CSHL.c ****     uint8 state = 0u;
 598              		.loc 1 657 0
ARM GAS  C:\Users\Xwx47\AppData\Local\Temp\ccyMTa9D.s 			page 47


 599 000c 2544     		add	r5, r5, r4
 600 000e EDB2     		uxtb	r5, r5
 601              	.LVL52:
 602              	.L53:
 663:Generated_Source\PSoC5/CapSense_CSHL.c ****         {
 603              		.loc 1 663 0
 604 0010 2046     		mov	r0, r4
 605 0012 FFF7FEFF 		bl	CapSense_CheckIsSensorActive
 606              	.LVL53:
 667:Generated_Source\PSoC5/CapSense_CSHL.c ****     }
 607              		.loc 1 667 0
 608 0016 0134     		adds	r4, r4, #1
 609              	.LVL54:
 665:Generated_Source\PSoC5/CapSense_CSHL.c ****         }
 610              		.loc 1 665 0
 611 0018 0028     		cmp	r0, #0
 667:Generated_Source\PSoC5/CapSense_CSHL.c ****     }
 612              		.loc 1 667 0
 613 001a E4B2     		uxtb	r4, r4
 665:Generated_Source\PSoC5/CapSense_CSHL.c ****         }
 614              		.loc 1 665 0
 615 001c 18BF     		it	ne
 616 001e 0126     		movne	r6, #1
 617              	.LVL55:
 669:Generated_Source\PSoC5/CapSense_CSHL.c ****     
 618              		.loc 1 669 0
 619 0020 A542     		cmp	r5, r4
 620 0022 F5D8     		bhi	.L53
 674:Generated_Source\PSoC5/CapSense_CSHL.c **** 
 621              		.loc 1 674 0
 622 0024 3046     		mov	r0, r6
 623 0026 70BD     		pop	{r4, r5, r6, pc}
 624              	.LVL56:
 625              	.L58:
 626              		.align	2
 627              	.L57:
 628 0028 00000000 		.word	.LANCHOR2
 629              		.cfi_endproc
 630              	.LFE7:
 631              		.size	CapSense_CheckIsWidgetActive, .-CapSense_CheckIsWidgetActive
 632              		.section	.text.CapSense_CheckIsAnyWidgetActive,"ax",%progbits
 633              		.align	1
 634              		.global	CapSense_CheckIsAnyWidgetActive
 635              		.thumb
 636              		.thumb_func
 637              		.type	CapSense_CheckIsAnyWidgetActive, %function
 638              	CapSense_CheckIsAnyWidgetActive:
 639              	.LFB8:
 699:Generated_Source\PSoC5/CapSense_CSHL.c ****     uint8 i;
 640              		.loc 1 699 0
 641              		.cfi_startproc
 642              		@ args = 0, pretend = 0, frame = 0
 643              		@ frame_needed = 0, uses_anonymous_args = 0
 644              	.LVL57:
 645 0000 38B5     		push	{r3, r4, r5, lr}
 646              		.cfi_def_cfa_offset 16
 647              		.cfi_offset 3, -16
ARM GAS  C:\Users\Xwx47\AppData\Local\Temp\ccyMTa9D.s 			page 48


 648              		.cfi_offset 4, -12
 649              		.cfi_offset 5, -8
 650              		.cfi_offset 14, -4
 699:Generated_Source\PSoC5/CapSense_CSHL.c ****     uint8 i;
 651              		.loc 1 699 0
 652 0002 0024     		movs	r4, #0
 701:Generated_Source\PSoC5/CapSense_CSHL.c ****     
 653              		.loc 1 701 0
 654 0004 2546     		mov	r5, r4
 655              	.LVL58:
 656              	.L61:
 705:Generated_Source\PSoC5/CapSense_CSHL.c ****         {
 657              		.loc 1 705 0
 658 0006 E0B2     		uxtb	r0, r4
 659 0008 FFF7FEFF 		bl	CapSense_CheckIsWidgetActive
 660              	.LVL59:
 661 000c 0134     		adds	r4, r4, #1
 662              	.LVL60:
 707:Generated_Source\PSoC5/CapSense_CSHL.c ****         }
 663              		.loc 1 707 0
 664 000e 0028     		cmp	r0, #0
 665 0010 18BF     		it	ne
 666 0012 0125     		movne	r5, #1
 667              	.LVL61:
 703:Generated_Source\PSoC5/CapSense_CSHL.c ****     {
 668              		.loc 1 703 0
 669 0014 032C     		cmp	r4, #3
 670 0016 F6D1     		bne	.L61
 713:Generated_Source\PSoC5/CapSense_CSHL.c **** 
 671              		.loc 1 713 0
 672 0018 2846     		mov	r0, r5
 673 001a 38BD     		pop	{r3, r4, r5, pc}
 674              		.cfi_endproc
 675              	.LFE8:
 676              		.size	CapSense_CheckIsAnyWidgetActive, .-CapSense_CheckIsAnyWidgetActive
 677              		.section	.text.CapSense_EnableWidget,"ax",%progbits
 678              		.align	1
 679              		.global	CapSense_EnableWidget
 680              		.thumb
 681              		.thumb_func
 682              		.type	CapSense_EnableWidget, %function
 683              	CapSense_EnableWidget:
 684              	.LFB9:
 745:Generated_Source\PSoC5/CapSense_CSHL.c ****     uint8 pos;
 685              		.loc 1 745 0
 686              		.cfi_startproc
 687              		@ args = 0, pretend = 0, frame = 0
 688              		@ frame_needed = 0, uses_anonymous_args = 0
 689              	.LVL62:
 748:Generated_Source\PSoC5/CapSense_CSHL.c ****     uint8 numberOfSensors = CapSense_numberOfSensors[widget] + rawIndex;
 690              		.loc 1 748 0
 691 0000 0A4A     		ldr	r2, .L68
 745:Generated_Source\PSoC5/CapSense_CSHL.c ****     uint8 pos;
 692              		.loc 1 745 0
 693 0002 70B5     		push	{r4, r5, r6, lr}
 694              		.cfi_def_cfa_offset 16
 695              		.cfi_offset 4, -16
ARM GAS  C:\Users\Xwx47\AppData\Local\Temp\ccyMTa9D.s 			page 49


 696              		.cfi_offset 5, -12
 697              		.cfi_offset 6, -8
 698              		.cfi_offset 14, -4
 748:Generated_Source\PSoC5/CapSense_CSHL.c ****     uint8 numberOfSensors = CapSense_numberOfSensors[widget] + rawIndex;
 699              		.loc 1 748 0
 700 0004 135C     		ldrb	r3, [r2, r0]	@ zero_extendqisi2
 701              	.LVL63:
 749:Generated_Source\PSoC5/CapSense_CSHL.c ****     
 702              		.loc 1 749 0
 703 0006 1044     		add	r0, r0, r2
 704              	.LVL64:
 705 0008 C278     		ldrb	r2, [r0, #3]	@ zero_extendqisi2
 757:Generated_Source\PSoC5/CapSense_CSHL.c ****         rawIndex++;
 706              		.loc 1 757 0
 707 000a 094D     		ldr	r5, .L68+4
 749:Generated_Source\PSoC5/CapSense_CSHL.c ****     
 708              		.loc 1 749 0
 709 000c 1A44     		add	r2, r2, r3
 710 000e D2B2     		uxtb	r2, r2
 711              	.LVL65:
 757:Generated_Source\PSoC5/CapSense_CSHL.c ****         rawIndex++;
 712              		.loc 1 757 0
 713 0010 0126     		movs	r6, #1
 714              	.L66:
 715              	.LVL66:
 757:Generated_Source\PSoC5/CapSense_CSHL.c ****         rawIndex++;
 716              		.loc 1 757 0 is_stmt 0 discriminator 1
 717 0012 DC08     		lsrs	r4, r3, #3
 718 0014 03F00701 		and	r1, r3, #7
 719 0018 06FA01F0 		lsl	r0, r6, r1
 758:Generated_Source\PSoC5/CapSense_CSHL.c ****     }
 720              		.loc 1 758 0 is_stmt 1 discriminator 1
 721 001c 0133     		adds	r3, r3, #1
 722              	.LVL67:
 757:Generated_Source\PSoC5/CapSense_CSHL.c ****         rawIndex++;
 723              		.loc 1 757 0 discriminator 1
 724 001e 295D     		ldrb	r1, [r5, r4]	@ zero_extendqisi2
 758:Generated_Source\PSoC5/CapSense_CSHL.c ****     }
 725              		.loc 1 758 0 discriminator 1
 726 0020 DBB2     		uxtb	r3, r3
 727              	.LVL68:
 757:Generated_Source\PSoC5/CapSense_CSHL.c ****         rawIndex++;
 728              		.loc 1 757 0 discriminator 1
 729 0022 0143     		orrs	r1, r1, r0
 760:Generated_Source\PSoC5/CapSense_CSHL.c ****     
 730              		.loc 1 760 0 discriminator 1
 731 0024 9A42     		cmp	r2, r3
 757:Generated_Source\PSoC5/CapSense_CSHL.c ****         rawIndex++;
 732              		.loc 1 757 0 discriminator 1
 733 0026 2955     		strb	r1, [r5, r4]
 760:Generated_Source\PSoC5/CapSense_CSHL.c ****     
 734              		.loc 1 760 0 discriminator 1
 735 0028 F3D8     		bhi	.L66
 763:Generated_Source\PSoC5/CapSense_CSHL.c **** 
 736              		.loc 1 763 0
 737 002a 70BD     		pop	{r4, r5, r6, pc}
 738              	.L69:
ARM GAS  C:\Users\Xwx47\AppData\Local\Temp\ccyMTa9D.s 			page 50


 739              		.align	2
 740              	.L68:
 741 002c 00000000 		.word	.LANCHOR2
 742 0030 00000000 		.word	CapSense_sensorEnableMask
 743              		.cfi_endproc
 744              	.LFE9:
 745              		.size	CapSense_EnableWidget, .-CapSense_EnableWidget
 746              		.section	.text.CapSense_DisableWidget,"ax",%progbits
 747              		.align	1
 748              		.global	CapSense_DisableWidget
 749              		.thumb
 750              		.thumb_func
 751              		.type	CapSense_DisableWidget, %function
 752              	CapSense_DisableWidget:
 753              	.LFB10:
 795:Generated_Source\PSoC5/CapSense_CSHL.c ****     uint8 pos;
 754              		.loc 1 795 0
 755              		.cfi_startproc
 756              		@ args = 0, pretend = 0, frame = 0
 757              		@ frame_needed = 0, uses_anonymous_args = 0
 758              	.LVL69:
 798:Generated_Source\PSoC5/CapSense_CSHL.c ****     uint8 numberOfSensors = CapSense_numberOfSensors[widget] + rawIndex;
 759              		.loc 1 798 0
 760 0000 0B4A     		ldr	r2, .L73
 795:Generated_Source\PSoC5/CapSense_CSHL.c ****     uint8 pos;
 761              		.loc 1 795 0
 762 0002 70B5     		push	{r4, r5, r6, lr}
 763              		.cfi_def_cfa_offset 16
 764              		.cfi_offset 4, -16
 765              		.cfi_offset 5, -12
 766              		.cfi_offset 6, -8
 767              		.cfi_offset 14, -4
 798:Generated_Source\PSoC5/CapSense_CSHL.c ****     uint8 numberOfSensors = CapSense_numberOfSensors[widget] + rawIndex;
 768              		.loc 1 798 0
 769 0004 135C     		ldrb	r3, [r2, r0]	@ zero_extendqisi2
 770              	.LVL70:
 799:Generated_Source\PSoC5/CapSense_CSHL.c ****    
 771              		.loc 1 799 0
 772 0006 1044     		add	r0, r0, r2
 773              	.LVL71:
 774 0008 C278     		ldrb	r2, [r0, #3]	@ zero_extendqisi2
 807:Generated_Source\PSoC5/CapSense_CSHL.c ****         rawIndex++;
 775              		.loc 1 807 0
 776 000a 0A4D     		ldr	r5, .L73+4
 799:Generated_Source\PSoC5/CapSense_CSHL.c ****    
 777              		.loc 1 799 0
 778 000c 1A44     		add	r2, r2, r3
 779 000e D2B2     		uxtb	r2, r2
 780              	.LVL72:
 807:Generated_Source\PSoC5/CapSense_CSHL.c ****         rawIndex++;
 781              		.loc 1 807 0
 782 0010 0126     		movs	r6, #1
 783              	.L71:
 784              	.LVL73:
 807:Generated_Source\PSoC5/CapSense_CSHL.c ****         rawIndex++;
 785              		.loc 1 807 0 is_stmt 0 discriminator 1
 786 0012 DC08     		lsrs	r4, r3, #3
ARM GAS  C:\Users\Xwx47\AppData\Local\Temp\ccyMTa9D.s 			page 51


 787 0014 03F00701 		and	r1, r3, #7
 788 0018 06FA01F0 		lsl	r0, r6, r1
 808:Generated_Source\PSoC5/CapSense_CSHL.c ****     }
 789              		.loc 1 808 0 is_stmt 1 discriminator 1
 790 001c 0133     		adds	r3, r3, #1
 791              	.LVL74:
 807:Generated_Source\PSoC5/CapSense_CSHL.c ****         rawIndex++;
 792              		.loc 1 807 0 discriminator 1
 793 001e 295D     		ldrb	r1, [r5, r4]	@ zero_extendqisi2
 808:Generated_Source\PSoC5/CapSense_CSHL.c ****     }
 794              		.loc 1 808 0 discriminator 1
 795 0020 DBB2     		uxtb	r3, r3
 796              	.LVL75:
 807:Generated_Source\PSoC5/CapSense_CSHL.c ****         rawIndex++;
 797              		.loc 1 807 0 discriminator 1
 798 0022 21EA0001 		bic	r1, r1, r0
 810:Generated_Source\PSoC5/CapSense_CSHL.c ****     
 799              		.loc 1 810 0 discriminator 1
 800 0026 9A42     		cmp	r2, r3
 807:Generated_Source\PSoC5/CapSense_CSHL.c ****         rawIndex++;
 801              		.loc 1 807 0 discriminator 1
 802 0028 2955     		strb	r1, [r5, r4]
 810:Generated_Source\PSoC5/CapSense_CSHL.c ****     
 803              		.loc 1 810 0 discriminator 1
 804 002a F2D8     		bhi	.L71
 813:Generated_Source\PSoC5/CapSense_CSHL.c **** #if(CapSense_TOTAL_CENTROIDS_COUNT)
 805              		.loc 1 813 0
 806 002c 70BD     		pop	{r4, r5, r6, pc}
 807              	.L74:
 808 002e 00BF     		.align	2
 809              	.L73:
 810 0030 00000000 		.word	.LANCHOR2
 811 0034 00000000 		.word	CapSense_sensorEnableMask
 812              		.cfi_endproc
 813              	.LFE10:
 814              		.size	CapSense_DisableWidget, .-CapSense_DisableWidget
 815              		.section	.text.CapSense_IIR4Filter,"ax",%progbits
 816              		.align	1
 817              		.global	CapSense_IIR4Filter
 818              		.thumb
 819              		.thumb_func
 820              		.type	CapSense_IIR4Filter, %function
 821              	CapSense_IIR4Filter:
 822              	.LFB11:
1940:Generated_Source\PSoC5/CapSense_CSHL.c ****         uint32 tmp;
 823              		.loc 1 1940 0
 824              		.cfi_startproc
 825              		@ args = 0, pretend = 0, frame = 0
 826              		@ frame_needed = 0, uses_anonymous_args = 0
 827              		@ link register save eliminated.
 828              	.LVL76:
1945:Generated_Source\PSoC5/CapSense_CSHL.c ****         tmp >>= 2u;
 829              		.loc 1 1945 0
 830 0000 00EB4100 		add	r0, r0, r1, lsl #1
 831              	.LVL77:
 832 0004 0844     		add	r0, r0, r1
 833              	.LVL78:
ARM GAS  C:\Users\Xwx47\AppData\Local\Temp\ccyMTa9D.s 			page 52


1949:Generated_Source\PSoC5/CapSense_CSHL.c ****     }
 834              		.loc 1 1949 0
 835 0006 C0F38F00 		ubfx	r0, r0, #2, #16
 836              	.LVL79:
 837 000a 7047     		bx	lr
 838              		.cfi_endproc
 839              	.LFE11:
 840              		.size	CapSense_IIR4Filter, .-CapSense_IIR4Filter
 841              		.global	CapSense_numberOfSensors
 842              		.global	CapSense_rawDataIndex
 843              		.global	CapSense_debounceCounter
 844              		.global	CapSense_debounce
 845              		.global	CapSense_hysteresis
 846              		.global	CapSense_noiseThreshold
 847              		.global	CapSense_fingerThreshold
 848              		.comm	CapSense_lowBaselineResetCnt,3,1
 849              		.comm	CapSense_sensorOnMask,1,1
 850              		.comm	CapSense_sensorSignal,3,1
 851              		.comm	CapSense_sensorBaselineLow,3,1
 852              		.comm	CapSense_sensorBaseline,6,2
 853              		.comm	CapSense_rawFilterData1,6,2
 854              		.section	.rodata
 855              		.set	.LANCHOR2,. + 0
 856              		.type	CapSense_rawDataIndex, %object
 857              		.size	CapSense_rawDataIndex, 3
 858              	CapSense_rawDataIndex:
 859 0000 00       		.byte	0
 860 0001 01       		.byte	1
 861 0002 02       		.byte	2
 862              		.type	CapSense_numberOfSensors, %object
 863              		.size	CapSense_numberOfSensors, 3
 864              	CapSense_numberOfSensors:
 865 0003 01       		.byte	1
 866 0004 01       		.byte	1
 867 0005 01       		.byte	1
 868              		.data
 869              		.set	.LANCHOR1,. + 0
 870              		.type	CapSense_debounce, %object
 871              		.size	CapSense_debounce, 3
 872              	CapSense_debounce:
 873 0000 01       		.byte	1
 874 0001 01       		.byte	1
 875 0002 01       		.byte	1
 876              		.type	CapSense_noiseThreshold, %object
 877              		.size	CapSense_noiseThreshold, 3
 878              	CapSense_noiseThreshold:
 879 0003 14       		.byte	20
 880 0004 14       		.byte	20
 881 0005 14       		.byte	20
 882              		.type	CapSense_fingerThreshold, %object
 883              		.size	CapSense_fingerThreshold, 3
 884              	CapSense_fingerThreshold:
 885 0006 64       		.byte	100
 886 0007 64       		.byte	100
 887 0008 64       		.byte	100
 888              		.type	CapSense_hysteresis, %object
 889              		.size	CapSense_hysteresis, 3
ARM GAS  C:\Users\Xwx47\AppData\Local\Temp\ccyMTa9D.s 			page 53


 890              	CapSense_hysteresis:
 891 0009 0A       		.byte	10
 892 000a 0A       		.byte	10
 893 000b 0A       		.byte	10
 894              		.bss
 895              		.set	.LANCHOR0,. + 0
 896              		.type	CapSense_debounceCounter, %object
 897              		.size	CapSense_debounceCounter, 4
 898              	CapSense_debounceCounter:
 899 0000 00000000 		.space	4
 900              		.text
 901              	.Letext0:
 902              		.file 2 "Generated_Source\\PSoC5\\cytypes.h"
 903              		.file 3 "Generated_Source\\PSoC5\\CapSense.h"
 904              		.file 4 "Generated_Source\\PSoC5\\CapSense_CSHL.h"