ARM GAS  C:\Users\Xwx47\AppData\Local\Temp\cc9bgkKO.s 			page 1


   1              		.syntax unified
   2              		.cpu cortex-m3
   3              		.fpu softvfp
   4              		.eabi_attribute 20, 1
   5              		.eabi_attribute 21, 1
   6              		.eabi_attribute 23, 3
   7              		.eabi_attribute 24, 1
   8              		.eabi_attribute 25, 1
   9              		.eabi_attribute 26, 1
  10              		.eabi_attribute 30, 4
  11              		.eabi_attribute 34, 1
  12              		.eabi_attribute 18, 4
  13              		.thumb
  14              		.syntax unified
  15              		.file	"CapSense_IdacCH0.c"
  16              		.text
  17              	.Ltext0:
  18              		.cfi_sections	.debug_frame
  19              		.section	.text.CapSense_IdacCH0_Enable,"ax",%progbits
  20              		.align	1
  21              		.global	CapSense_IdacCH0_Enable
  22              		.thumb
  23              		.thumb_func
  24              		.type	CapSense_IdacCH0_Enable, %function
  25              	CapSense_IdacCH0_Enable:
  26              	.LFB1:
  27              		.file 1 "Generated_Source\\PSoC5\\CapSense_IdacCH0.c"
   1:Generated_Source\PSoC5/CapSense_IdacCH0.c **** /*******************************************************************************
   2:Generated_Source\PSoC5/CapSense_IdacCH0.c **** * File Name: CapSense_IdacCH0.c
   3:Generated_Source\PSoC5/CapSense_IdacCH0.c **** * Version 2.0
   4:Generated_Source\PSoC5/CapSense_IdacCH0.c **** *
   5:Generated_Source\PSoC5/CapSense_IdacCH0.c **** * Description:
   6:Generated_Source\PSoC5/CapSense_IdacCH0.c **** *  This file provides the source code to the API for the 8-bit Current 
   7:Generated_Source\PSoC5/CapSense_IdacCH0.c **** *  DAC (IDAC8) User Module.
   8:Generated_Source\PSoC5/CapSense_IdacCH0.c **** *
   9:Generated_Source\PSoC5/CapSense_IdacCH0.c **** * Note:
  10:Generated_Source\PSoC5/CapSense_IdacCH0.c **** *  None
  11:Generated_Source\PSoC5/CapSense_IdacCH0.c **** *
  12:Generated_Source\PSoC5/CapSense_IdacCH0.c **** ********************************************************************************
  13:Generated_Source\PSoC5/CapSense_IdacCH0.c **** * Copyright 2008-2012, Cypress Semiconductor Corporation.  All rights reserved.
  14:Generated_Source\PSoC5/CapSense_IdacCH0.c **** * You may use this file only in accordance with the license, terms, conditions, 
  15:Generated_Source\PSoC5/CapSense_IdacCH0.c **** * disclaimers, and limitations in the end user license agreement accompanying 
  16:Generated_Source\PSoC5/CapSense_IdacCH0.c **** * the software package with which this file was provided.
  17:Generated_Source\PSoC5/CapSense_IdacCH0.c **** *******************************************************************************/
  18:Generated_Source\PSoC5/CapSense_IdacCH0.c **** 
  19:Generated_Source\PSoC5/CapSense_IdacCH0.c **** #include "cytypes.h"
  20:Generated_Source\PSoC5/CapSense_IdacCH0.c **** #include "CapSense_IdacCH0.h"   
  21:Generated_Source\PSoC5/CapSense_IdacCH0.c **** 
  22:Generated_Source\PSoC5/CapSense_IdacCH0.c **** #if (CY_PSOC5A)
  23:Generated_Source\PSoC5/CapSense_IdacCH0.c ****     #include <CyLib.h>
  24:Generated_Source\PSoC5/CapSense_IdacCH0.c **** #endif /* CY_PSOC5A */
  25:Generated_Source\PSoC5/CapSense_IdacCH0.c **** 
  26:Generated_Source\PSoC5/CapSense_IdacCH0.c **** 
  27:Generated_Source\PSoC5/CapSense_IdacCH0.c **** uint8 CapSense_IdacCH0_initVar = 0u;
  28:Generated_Source\PSoC5/CapSense_IdacCH0.c **** 
  29:Generated_Source\PSoC5/CapSense_IdacCH0.c **** 
  30:Generated_Source\PSoC5/CapSense_IdacCH0.c **** #if (CY_PSOC5A)
ARM GAS  C:\Users\Xwx47\AppData\Local\Temp\cc9bgkKO.s 			page 2


  31:Generated_Source\PSoC5/CapSense_IdacCH0.c ****     static CapSense_IdacCH0_LOWPOWER_BACKUP_STRUCT  CapSense_IdacCH0_lowPowerBackup;
  32:Generated_Source\PSoC5/CapSense_IdacCH0.c **** #endif /* CY_PSOC5A */
  33:Generated_Source\PSoC5/CapSense_IdacCH0.c **** 
  34:Generated_Source\PSoC5/CapSense_IdacCH0.c **** /* Variable to decide whether or not to restore control register in Enable()
  35:Generated_Source\PSoC5/CapSense_IdacCH0.c ****    API. This valid only for PSoC5A */
  36:Generated_Source\PSoC5/CapSense_IdacCH0.c **** #if (CY_PSOC5A)
  37:Generated_Source\PSoC5/CapSense_IdacCH0.c ****     static uint8 CapSense_IdacCH0_restoreReg = 0u;
  38:Generated_Source\PSoC5/CapSense_IdacCH0.c **** #endif /* CY_PSOC5A */
  39:Generated_Source\PSoC5/CapSense_IdacCH0.c **** 
  40:Generated_Source\PSoC5/CapSense_IdacCH0.c **** 
  41:Generated_Source\PSoC5/CapSense_IdacCH0.c **** /*******************************************************************************
  42:Generated_Source\PSoC5/CapSense_IdacCH0.c **** * Function Name: CapSense_IdacCH0_Init
  43:Generated_Source\PSoC5/CapSense_IdacCH0.c **** ********************************************************************************
  44:Generated_Source\PSoC5/CapSense_IdacCH0.c **** * Summary:
  45:Generated_Source\PSoC5/CapSense_IdacCH0.c **** *  Initialize to the schematic state.
  46:Generated_Source\PSoC5/CapSense_IdacCH0.c **** * 
  47:Generated_Source\PSoC5/CapSense_IdacCH0.c **** * Parameters:
  48:Generated_Source\PSoC5/CapSense_IdacCH0.c **** *  void:
  49:Generated_Source\PSoC5/CapSense_IdacCH0.c **** *
  50:Generated_Source\PSoC5/CapSense_IdacCH0.c **** * Return:
  51:Generated_Source\PSoC5/CapSense_IdacCH0.c **** *  (void)
  52:Generated_Source\PSoC5/CapSense_IdacCH0.c **** *
  53:Generated_Source\PSoC5/CapSense_IdacCH0.c **** * Theory:
  54:Generated_Source\PSoC5/CapSense_IdacCH0.c **** *
  55:Generated_Source\PSoC5/CapSense_IdacCH0.c **** * Side Effects:
  56:Generated_Source\PSoC5/CapSense_IdacCH0.c **** *
  57:Generated_Source\PSoC5/CapSense_IdacCH0.c **** *******************************************************************************/
  58:Generated_Source\PSoC5/CapSense_IdacCH0.c **** void CapSense_IdacCH0_Init(void) 
  59:Generated_Source\PSoC5/CapSense_IdacCH0.c **** {
  60:Generated_Source\PSoC5/CapSense_IdacCH0.c ****     CapSense_IdacCH0_CR0 = (CapSense_IdacCH0_MODE_I | CapSense_IdacCH0_DEFAULT_RANGE );
  61:Generated_Source\PSoC5/CapSense_IdacCH0.c **** 
  62:Generated_Source\PSoC5/CapSense_IdacCH0.c ****     /* Set default data source */
  63:Generated_Source\PSoC5/CapSense_IdacCH0.c ****     #if(CapSense_IdacCH0_DEFAULT_DATA_SRC != 0u )    
  64:Generated_Source\PSoC5/CapSense_IdacCH0.c ****         CapSense_IdacCH0_CR1 = (CapSense_IdacCH0_DEFAULT_CNTL | CapSense_IdacCH0_DACBUS_ENABLE);
  65:Generated_Source\PSoC5/CapSense_IdacCH0.c ****     #else
  66:Generated_Source\PSoC5/CapSense_IdacCH0.c ****         CapSense_IdacCH0_CR1 = (CapSense_IdacCH0_DEFAULT_CNTL | CapSense_IdacCH0_DACBUS_DISABLE);
  67:Generated_Source\PSoC5/CapSense_IdacCH0.c ****     #endif /* (CapSense_IdacCH0_DEFAULT_DATA_SRC != 0u ) */
  68:Generated_Source\PSoC5/CapSense_IdacCH0.c ****     
  69:Generated_Source\PSoC5/CapSense_IdacCH0.c ****     /*Controls polarity from UDB Control*/
  70:Generated_Source\PSoC5/CapSense_IdacCH0.c ****     #if(CapSense_IdacCH0_DEFAULT_POLARITY == CapSense_IdacCH0_HARDWARE_CONTROLLED)
  71:Generated_Source\PSoC5/CapSense_IdacCH0.c ****         CapSense_IdacCH0_CR1 |= CapSense_IdacCH0_IDIR_SRC_UDB;
  72:Generated_Source\PSoC5/CapSense_IdacCH0.c ****     #else
  73:Generated_Source\PSoC5/CapSense_IdacCH0.c ****         CapSense_IdacCH0_CR1 |= CapSense_IdacCH0_DEFAULT_POLARITY;
  74:Generated_Source\PSoC5/CapSense_IdacCH0.c ****     #endif/* (CapSense_IdacCH0_DEFAULT_POLARITY == CapSense_IdacCH0_HARDWARE_CONTROLLED) */
  75:Generated_Source\PSoC5/CapSense_IdacCH0.c ****     /*Controls Current Source from UDB Control*/
  76:Generated_Source\PSoC5/CapSense_IdacCH0.c ****     #if(CapSense_IdacCH0_HARDWARE_ENABLE != 0u ) 
  77:Generated_Source\PSoC5/CapSense_IdacCH0.c ****         CapSense_IdacCH0_CR1 |= CapSense_IdacCH0_IDIR_CTL_UDB;
  78:Generated_Source\PSoC5/CapSense_IdacCH0.c ****     #endif /* (CapSense_IdacCH0_HARDWARE_ENABLE != 0u ) */ 
  79:Generated_Source\PSoC5/CapSense_IdacCH0.c ****     
  80:Generated_Source\PSoC5/CapSense_IdacCH0.c ****     /* Set default strobe mode */
  81:Generated_Source\PSoC5/CapSense_IdacCH0.c ****     #if(CapSense_IdacCH0_DEFAULT_STRB != 0u)
  82:Generated_Source\PSoC5/CapSense_IdacCH0.c ****         CapSense_IdacCH0_Strobe |= CapSense_IdacCH0_STRB_EN;
  83:Generated_Source\PSoC5/CapSense_IdacCH0.c ****     #endif /* (CapSense_IdacCH0_DEFAULT_STRB != 0u) */
  84:Generated_Source\PSoC5/CapSense_IdacCH0.c ****     
  85:Generated_Source\PSoC5/CapSense_IdacCH0.c ****     /* Set default speed */
  86:Generated_Source\PSoC5/CapSense_IdacCH0.c ****     CapSense_IdacCH0_SetSpeed(CapSense_IdacCH0_DEFAULT_SPEED);
  87:Generated_Source\PSoC5/CapSense_IdacCH0.c ****     
ARM GAS  C:\Users\Xwx47\AppData\Local\Temp\cc9bgkKO.s 			page 3


  88:Generated_Source\PSoC5/CapSense_IdacCH0.c ****     /* Set proper DAC trim */
  89:Generated_Source\PSoC5/CapSense_IdacCH0.c ****     CapSense_IdacCH0_DacTrim();
  90:Generated_Source\PSoC5/CapSense_IdacCH0.c ****     
  91:Generated_Source\PSoC5/CapSense_IdacCH0.c **** }
  92:Generated_Source\PSoC5/CapSense_IdacCH0.c **** 
  93:Generated_Source\PSoC5/CapSense_IdacCH0.c **** 
  94:Generated_Source\PSoC5/CapSense_IdacCH0.c **** /*******************************************************************************
  95:Generated_Source\PSoC5/CapSense_IdacCH0.c **** * Function Name: CapSense_IdacCH0_Enable
  96:Generated_Source\PSoC5/CapSense_IdacCH0.c **** ********************************************************************************
  97:Generated_Source\PSoC5/CapSense_IdacCH0.c **** * Summary:
  98:Generated_Source\PSoC5/CapSense_IdacCH0.c **** *  Enable the IDAC8
  99:Generated_Source\PSoC5/CapSense_IdacCH0.c **** * 
 100:Generated_Source\PSoC5/CapSense_IdacCH0.c **** * Parameters:
 101:Generated_Source\PSoC5/CapSense_IdacCH0.c **** *  void:
 102:Generated_Source\PSoC5/CapSense_IdacCH0.c **** *
 103:Generated_Source\PSoC5/CapSense_IdacCH0.c **** * Return:
 104:Generated_Source\PSoC5/CapSense_IdacCH0.c **** *  (void)
 105:Generated_Source\PSoC5/CapSense_IdacCH0.c **** *
 106:Generated_Source\PSoC5/CapSense_IdacCH0.c **** * Theory:
 107:Generated_Source\PSoC5/CapSense_IdacCH0.c **** *
 108:Generated_Source\PSoC5/CapSense_IdacCH0.c **** * Side Effects:
 109:Generated_Source\PSoC5/CapSense_IdacCH0.c **** *
 110:Generated_Source\PSoC5/CapSense_IdacCH0.c **** *******************************************************************************/
 111:Generated_Source\PSoC5/CapSense_IdacCH0.c **** void CapSense_IdacCH0_Enable(void) 
 112:Generated_Source\PSoC5/CapSense_IdacCH0.c **** {
  28              		.loc 1 112 0
  29              		.cfi_startproc
  30              		@ args = 0, pretend = 0, frame = 0
  31              		@ frame_needed = 0, uses_anonymous_args = 0
  32              		@ link register save eliminated.
 113:Generated_Source\PSoC5/CapSense_IdacCH0.c ****     CapSense_IdacCH0_PWRMGR |= CapSense_IdacCH0_ACT_PWR_EN;
  33              		.loc 1 113 0
  34 0000 044A     		ldr	r2, .L2
  35 0002 1378     		ldrb	r3, [r2]	@ zero_extendqisi2
  36 0004 43F00803 		orr	r3, r3, #8
  37 0008 1370     		strb	r3, [r2]
 114:Generated_Source\PSoC5/CapSense_IdacCH0.c ****     CapSense_IdacCH0_STBY_PWRMGR |= CapSense_IdacCH0_STBY_PWR_EN;
  38              		.loc 1 114 0
  39 000a 137C     		ldrb	r3, [r2, #16]	@ zero_extendqisi2
  40 000c 43F00803 		orr	r3, r3, #8
  41 0010 1374     		strb	r3, [r2, #16]
  42 0012 7047     		bx	lr
  43              	.L3:
  44              		.align	2
  45              	.L2:
  46 0014 A8430040 		.word	1073759144
  47              		.cfi_endproc
  48              	.LFE1:
  49              		.size	CapSense_IdacCH0_Enable, .-CapSense_IdacCH0_Enable
  50              		.section	.text.CapSense_IdacCH0_Stop,"ax",%progbits
  51              		.align	1
  52              		.global	CapSense_IdacCH0_Stop
  53              		.thumb
  54              		.thumb_func
  55              		.type	CapSense_IdacCH0_Stop, %function
  56              	CapSense_IdacCH0_Stop:
  57              	.LFB3:
ARM GAS  C:\Users\Xwx47\AppData\Local\Temp\cc9bgkKO.s 			page 4


 115:Generated_Source\PSoC5/CapSense_IdacCH0.c **** 
 116:Generated_Source\PSoC5/CapSense_IdacCH0.c ****     /* This is to restore the value of register CR0 which is saved 
 117:Generated_Source\PSoC5/CapSense_IdacCH0.c ****       in prior to the modification in stop() API */
 118:Generated_Source\PSoC5/CapSense_IdacCH0.c ****     #if (CY_PSOC5A)
 119:Generated_Source\PSoC5/CapSense_IdacCH0.c ****         if(CapSense_IdacCH0_restoreReg == 1u)
 120:Generated_Source\PSoC5/CapSense_IdacCH0.c ****         {
 121:Generated_Source\PSoC5/CapSense_IdacCH0.c ****             CapSense_IdacCH0_CR0 = CapSense_IdacCH0_lowPowerBackup.DACCR0Reg;
 122:Generated_Source\PSoC5/CapSense_IdacCH0.c **** 
 123:Generated_Source\PSoC5/CapSense_IdacCH0.c ****             /* Clear the flag */
 124:Generated_Source\PSoC5/CapSense_IdacCH0.c ****             CapSense_IdacCH0_restoreReg = 0u;
 125:Generated_Source\PSoC5/CapSense_IdacCH0.c ****         }
 126:Generated_Source\PSoC5/CapSense_IdacCH0.c ****     #endif /* CY_PSOC5A */
 127:Generated_Source\PSoC5/CapSense_IdacCH0.c **** }
 128:Generated_Source\PSoC5/CapSense_IdacCH0.c **** 
 129:Generated_Source\PSoC5/CapSense_IdacCH0.c **** 
 130:Generated_Source\PSoC5/CapSense_IdacCH0.c **** /*******************************************************************************
 131:Generated_Source\PSoC5/CapSense_IdacCH0.c **** * Function Name: CapSense_IdacCH0_Start
 132:Generated_Source\PSoC5/CapSense_IdacCH0.c **** ********************************************************************************
 133:Generated_Source\PSoC5/CapSense_IdacCH0.c **** * Summary:
 134:Generated_Source\PSoC5/CapSense_IdacCH0.c **** *  Set power level then turn on IDAC8.
 135:Generated_Source\PSoC5/CapSense_IdacCH0.c **** *
 136:Generated_Source\PSoC5/CapSense_IdacCH0.c **** * Parameters:  
 137:Generated_Source\PSoC5/CapSense_IdacCH0.c **** *  power: Sets power level between off (0) and (3) high power
 138:Generated_Source\PSoC5/CapSense_IdacCH0.c **** *
 139:Generated_Source\PSoC5/CapSense_IdacCH0.c **** * Return:
 140:Generated_Source\PSoC5/CapSense_IdacCH0.c **** *  (void)
 141:Generated_Source\PSoC5/CapSense_IdacCH0.c **** *
 142:Generated_Source\PSoC5/CapSense_IdacCH0.c **** * Global variables:
 143:Generated_Source\PSoC5/CapSense_IdacCH0.c **** *  CapSense_IdacCH0_initVar: Is modified when this function is called for 
 144:Generated_Source\PSoC5/CapSense_IdacCH0.c **** *   the first time. Is used to ensure that initialization happens only once.
 145:Generated_Source\PSoC5/CapSense_IdacCH0.c **** *
 146:Generated_Source\PSoC5/CapSense_IdacCH0.c **** *******************************************************************************/
 147:Generated_Source\PSoC5/CapSense_IdacCH0.c **** void CapSense_IdacCH0_Start(void) 
 148:Generated_Source\PSoC5/CapSense_IdacCH0.c **** {
 149:Generated_Source\PSoC5/CapSense_IdacCH0.c ****     /* Hardware initiazation only needs to occur the first time */
 150:Generated_Source\PSoC5/CapSense_IdacCH0.c ****     if ( CapSense_IdacCH0_initVar == 0u)  
 151:Generated_Source\PSoC5/CapSense_IdacCH0.c ****     {
 152:Generated_Source\PSoC5/CapSense_IdacCH0.c ****         CapSense_IdacCH0_Init();
 153:Generated_Source\PSoC5/CapSense_IdacCH0.c ****         
 154:Generated_Source\PSoC5/CapSense_IdacCH0.c ****         CapSense_IdacCH0_initVar = 1u;
 155:Generated_Source\PSoC5/CapSense_IdacCH0.c ****     }
 156:Generated_Source\PSoC5/CapSense_IdacCH0.c ****    
 157:Generated_Source\PSoC5/CapSense_IdacCH0.c ****     /* Enable power to DAC */
 158:Generated_Source\PSoC5/CapSense_IdacCH0.c ****     CapSense_IdacCH0_Enable();
 159:Generated_Source\PSoC5/CapSense_IdacCH0.c **** 
 160:Generated_Source\PSoC5/CapSense_IdacCH0.c ****     /* Set default value */
 161:Generated_Source\PSoC5/CapSense_IdacCH0.c ****     CapSense_IdacCH0_SetValue(CapSense_IdacCH0_DEFAULT_DATA);
 162:Generated_Source\PSoC5/CapSense_IdacCH0.c **** 
 163:Generated_Source\PSoC5/CapSense_IdacCH0.c **** }
 164:Generated_Source\PSoC5/CapSense_IdacCH0.c **** 
 165:Generated_Source\PSoC5/CapSense_IdacCH0.c **** 
 166:Generated_Source\PSoC5/CapSense_IdacCH0.c **** /*******************************************************************************
 167:Generated_Source\PSoC5/CapSense_IdacCH0.c **** * Function Name: CapSense_IdacCH0_Stop
 168:Generated_Source\PSoC5/CapSense_IdacCH0.c **** ********************************************************************************
 169:Generated_Source\PSoC5/CapSense_IdacCH0.c **** * Summary:
 170:Generated_Source\PSoC5/CapSense_IdacCH0.c **** *  Powers down IDAC8 to lowest power state.
 171:Generated_Source\PSoC5/CapSense_IdacCH0.c **** *
ARM GAS  C:\Users\Xwx47\AppData\Local\Temp\cc9bgkKO.s 			page 5


 172:Generated_Source\PSoC5/CapSense_IdacCH0.c **** * Parameters:
 173:Generated_Source\PSoC5/CapSense_IdacCH0.c **** *  (void)
 174:Generated_Source\PSoC5/CapSense_IdacCH0.c **** *
 175:Generated_Source\PSoC5/CapSense_IdacCH0.c **** * Return:
 176:Generated_Source\PSoC5/CapSense_IdacCH0.c **** *  (void)
 177:Generated_Source\PSoC5/CapSense_IdacCH0.c **** *
 178:Generated_Source\PSoC5/CapSense_IdacCH0.c **** * Theory:
 179:Generated_Source\PSoC5/CapSense_IdacCH0.c **** *
 180:Generated_Source\PSoC5/CapSense_IdacCH0.c **** * Side Effects:
 181:Generated_Source\PSoC5/CapSense_IdacCH0.c **** *
 182:Generated_Source\PSoC5/CapSense_IdacCH0.c **** *******************************************************************************/
 183:Generated_Source\PSoC5/CapSense_IdacCH0.c **** void CapSense_IdacCH0_Stop(void) 
 184:Generated_Source\PSoC5/CapSense_IdacCH0.c **** {
  58              		.loc 1 184 0
  59              		.cfi_startproc
  60              		@ args = 0, pretend = 0, frame = 0
  61              		@ frame_needed = 0, uses_anonymous_args = 0
  62              		@ link register save eliminated.
 185:Generated_Source\PSoC5/CapSense_IdacCH0.c ****     /* Disble power to DAC */
 186:Generated_Source\PSoC5/CapSense_IdacCH0.c ****     CapSense_IdacCH0_PWRMGR &= (uint8)(~CapSense_IdacCH0_ACT_PWR_EN);
  63              		.loc 1 186 0
  64 0000 044A     		ldr	r2, .L5
  65 0002 1378     		ldrb	r3, [r2]	@ zero_extendqisi2
  66 0004 03F0F703 		and	r3, r3, #247
  67 0008 1370     		strb	r3, [r2]
 187:Generated_Source\PSoC5/CapSense_IdacCH0.c ****     CapSense_IdacCH0_STBY_PWRMGR &= (uint8)(~CapSense_IdacCH0_STBY_PWR_EN);
  68              		.loc 1 187 0
  69 000a 137C     		ldrb	r3, [r2, #16]	@ zero_extendqisi2
  70 000c 03F0F703 		and	r3, r3, #247
  71 0010 1374     		strb	r3, [r2, #16]
  72 0012 7047     		bx	lr
  73              	.L6:
  74              		.align	2
  75              	.L5:
  76 0014 A8430040 		.word	1073759144
  77              		.cfi_endproc
  78              	.LFE3:
  79              		.size	CapSense_IdacCH0_Stop, .-CapSense_IdacCH0_Stop
  80              		.section	.text.CapSense_IdacCH0_SetSpeed,"ax",%progbits
  81              		.align	1
  82              		.global	CapSense_IdacCH0_SetSpeed
  83              		.thumb
  84              		.thumb_func
  85              		.type	CapSense_IdacCH0_SetSpeed, %function
  86              	CapSense_IdacCH0_SetSpeed:
  87              	.LFB4:
 188:Generated_Source\PSoC5/CapSense_IdacCH0.c ****     
 189:Generated_Source\PSoC5/CapSense_IdacCH0.c ****     #if (CY_PSOC5A)
 190:Generated_Source\PSoC5/CapSense_IdacCH0.c ****     
 191:Generated_Source\PSoC5/CapSense_IdacCH0.c ****         /* Set the global variable  */
 192:Generated_Source\PSoC5/CapSense_IdacCH0.c ****         CapSense_IdacCH0_restoreReg = 1u;
 193:Generated_Source\PSoC5/CapSense_IdacCH0.c **** 
 194:Generated_Source\PSoC5/CapSense_IdacCH0.c ****         /* Save the control register and then Clear it. */
 195:Generated_Source\PSoC5/CapSense_IdacCH0.c ****         CapSense_IdacCH0_lowPowerBackup.DACCR0Reg = CapSense_IdacCH0_CR0;
 196:Generated_Source\PSoC5/CapSense_IdacCH0.c ****         CapSense_IdacCH0_CR0 = (CapSense_IdacCH0_MODE_I | CapSense_IdacCH0_RANGE_3 | CapSense_IdacC
 197:Generated_Source\PSoC5/CapSense_IdacCH0.c ****     #endif /* CY_PSOC5A */
 198:Generated_Source\PSoC5/CapSense_IdacCH0.c **** }
ARM GAS  C:\Users\Xwx47\AppData\Local\Temp\cc9bgkKO.s 			page 6


 199:Generated_Source\PSoC5/CapSense_IdacCH0.c **** 
 200:Generated_Source\PSoC5/CapSense_IdacCH0.c **** 
 201:Generated_Source\PSoC5/CapSense_IdacCH0.c **** /*******************************************************************************
 202:Generated_Source\PSoC5/CapSense_IdacCH0.c **** * Function Name: CapSense_IdacCH0_SetSpeed
 203:Generated_Source\PSoC5/CapSense_IdacCH0.c **** ********************************************************************************
 204:Generated_Source\PSoC5/CapSense_IdacCH0.c **** * Summary:
 205:Generated_Source\PSoC5/CapSense_IdacCH0.c **** *  Set DAC speed
 206:Generated_Source\PSoC5/CapSense_IdacCH0.c **** *
 207:Generated_Source\PSoC5/CapSense_IdacCH0.c **** * Parameters:
 208:Generated_Source\PSoC5/CapSense_IdacCH0.c **** *  power: Sets speed value
 209:Generated_Source\PSoC5/CapSense_IdacCH0.c **** *
 210:Generated_Source\PSoC5/CapSense_IdacCH0.c **** * Return:
 211:Generated_Source\PSoC5/CapSense_IdacCH0.c **** *  (void)
 212:Generated_Source\PSoC5/CapSense_IdacCH0.c **** *
 213:Generated_Source\PSoC5/CapSense_IdacCH0.c **** * Theory:
 214:Generated_Source\PSoC5/CapSense_IdacCH0.c **** *
 215:Generated_Source\PSoC5/CapSense_IdacCH0.c **** * Side Effects:
 216:Generated_Source\PSoC5/CapSense_IdacCH0.c **** *
 217:Generated_Source\PSoC5/CapSense_IdacCH0.c **** *******************************************************************************/
 218:Generated_Source\PSoC5/CapSense_IdacCH0.c **** void CapSense_IdacCH0_SetSpeed(uint8 speed) 
 219:Generated_Source\PSoC5/CapSense_IdacCH0.c **** {
  88              		.loc 1 219 0
  89              		.cfi_startproc
  90              		@ args = 0, pretend = 0, frame = 0
  91              		@ frame_needed = 0, uses_anonymous_args = 0
  92              		@ link register save eliminated.
  93              	.LVL0:
 220:Generated_Source\PSoC5/CapSense_IdacCH0.c ****     /* Clear power mask then write in new value */
 221:Generated_Source\PSoC5/CapSense_IdacCH0.c ****     CapSense_IdacCH0_CR0 &= (uint8)(~CapSense_IdacCH0_HS_MASK);
  94              		.loc 1 221 0
  95 0000 054B     		ldr	r3, .L8
 222:Generated_Source\PSoC5/CapSense_IdacCH0.c ****     CapSense_IdacCH0_CR0 |=  ( speed & CapSense_IdacCH0_HS_MASK);
  96              		.loc 1 222 0
  97 0002 00F00200 		and	r0, r0, #2
  98              	.LVL1:
 221:Generated_Source\PSoC5/CapSense_IdacCH0.c ****     CapSense_IdacCH0_CR0 |=  ( speed & CapSense_IdacCH0_HS_MASK);
  99              		.loc 1 221 0
 100 0006 1A78     		ldrb	r2, [r3]	@ zero_extendqisi2
 101 0008 02F0FD02 		and	r2, r2, #253
 102 000c 1A70     		strb	r2, [r3]
 103              		.loc 1 222 0
 104 000e 1A78     		ldrb	r2, [r3]	@ zero_extendqisi2
 105 0010 1043     		orrs	r0, r0, r2
 106 0012 1870     		strb	r0, [r3]
 107 0014 7047     		bx	lr
 108              	.L9:
 109 0016 00BF     		.align	2
 110              	.L8:
 111 0018 2C580040 		.word	1073764396
 112              		.cfi_endproc
 113              	.LFE4:
 114              		.size	CapSense_IdacCH0_SetSpeed, .-CapSense_IdacCH0_SetSpeed
 115              		.section	.text.CapSense_IdacCH0_SetValue,"ax",%progbits
 116              		.align	1
 117              		.global	CapSense_IdacCH0_SetValue
 118              		.thumb
 119              		.thumb_func
ARM GAS  C:\Users\Xwx47\AppData\Local\Temp\cc9bgkKO.s 			page 7


 120              		.type	CapSense_IdacCH0_SetValue, %function
 121              	CapSense_IdacCH0_SetValue:
 122              	.LFB7:
 223:Generated_Source\PSoC5/CapSense_IdacCH0.c **** }
 224:Generated_Source\PSoC5/CapSense_IdacCH0.c **** 
 225:Generated_Source\PSoC5/CapSense_IdacCH0.c **** 
 226:Generated_Source\PSoC5/CapSense_IdacCH0.c **** /*******************************************************************************
 227:Generated_Source\PSoC5/CapSense_IdacCH0.c **** * Function Name: CapSense_IdacCH0_SetPolarity
 228:Generated_Source\PSoC5/CapSense_IdacCH0.c **** ********************************************************************************
 229:Generated_Source\PSoC5/CapSense_IdacCH0.c **** * Summary:
 230:Generated_Source\PSoC5/CapSense_IdacCH0.c **** *  Sets IDAC to Sink or Source current.
 231:Generated_Source\PSoC5/CapSense_IdacCH0.c **** *  
 232:Generated_Source\PSoC5/CapSense_IdacCH0.c **** * Parameters:
 233:Generated_Source\PSoC5/CapSense_IdacCH0.c **** *  Polarity: Sets the IDAC to Sink or Source 
 234:Generated_Source\PSoC5/CapSense_IdacCH0.c **** *  0x00 - Source
 235:Generated_Source\PSoC5/CapSense_IdacCH0.c **** *  0x04 - Sink
 236:Generated_Source\PSoC5/CapSense_IdacCH0.c **** *
 237:Generated_Source\PSoC5/CapSense_IdacCH0.c **** * Return:
 238:Generated_Source\PSoC5/CapSense_IdacCH0.c **** *  (void)
 239:Generated_Source\PSoC5/CapSense_IdacCH0.c **** *
 240:Generated_Source\PSoC5/CapSense_IdacCH0.c **** * Theory:
 241:Generated_Source\PSoC5/CapSense_IdacCH0.c **** *
 242:Generated_Source\PSoC5/CapSense_IdacCH0.c **** * Side Effects:
 243:Generated_Source\PSoC5/CapSense_IdacCH0.c **** *
 244:Generated_Source\PSoC5/CapSense_IdacCH0.c **** *******************************************************************************/
 245:Generated_Source\PSoC5/CapSense_IdacCH0.c **** #if(CapSense_IdacCH0_DEFAULT_POLARITY != CapSense_IdacCH0_HARDWARE_CONTROLLED)
 246:Generated_Source\PSoC5/CapSense_IdacCH0.c ****     void CapSense_IdacCH0_SetPolarity(uint8 polarity) 
 247:Generated_Source\PSoC5/CapSense_IdacCH0.c ****     {
 248:Generated_Source\PSoC5/CapSense_IdacCH0.c ****         CapSense_IdacCH0_CR1 &= (uint8)(~CapSense_IdacCH0_IDIR_MASK);                /* clear polar
 249:Generated_Source\PSoC5/CapSense_IdacCH0.c ****         CapSense_IdacCH0_CR1 |= (polarity & CapSense_IdacCH0_IDIR_MASK);             /* set new val
 250:Generated_Source\PSoC5/CapSense_IdacCH0.c ****     
 251:Generated_Source\PSoC5/CapSense_IdacCH0.c ****         CapSense_IdacCH0_DacTrim();
 252:Generated_Source\PSoC5/CapSense_IdacCH0.c ****     }
 253:Generated_Source\PSoC5/CapSense_IdacCH0.c **** #endif/*(CapSense_IdacCH0_DEFAULT_POLARITY != CapSense_IdacCH0_HARDWARE_CONTROLLED)*/
 254:Generated_Source\PSoC5/CapSense_IdacCH0.c **** 
 255:Generated_Source\PSoC5/CapSense_IdacCH0.c **** 
 256:Generated_Source\PSoC5/CapSense_IdacCH0.c **** /*******************************************************************************
 257:Generated_Source\PSoC5/CapSense_IdacCH0.c **** * Function Name: CapSense_IdacCH0_SetRange
 258:Generated_Source\PSoC5/CapSense_IdacCH0.c **** ********************************************************************************
 259:Generated_Source\PSoC5/CapSense_IdacCH0.c **** * Summary:
 260:Generated_Source\PSoC5/CapSense_IdacCH0.c **** *  Set current range
 261:Generated_Source\PSoC5/CapSense_IdacCH0.c **** *
 262:Generated_Source\PSoC5/CapSense_IdacCH0.c **** * Parameters:
 263:Generated_Source\PSoC5/CapSense_IdacCH0.c **** *  Range: Sets on of four valid ranges.
 264:Generated_Source\PSoC5/CapSense_IdacCH0.c **** *
 265:Generated_Source\PSoC5/CapSense_IdacCH0.c **** * Return:
 266:Generated_Source\PSoC5/CapSense_IdacCH0.c **** *  (void)
 267:Generated_Source\PSoC5/CapSense_IdacCH0.c **** *
 268:Generated_Source\PSoC5/CapSense_IdacCH0.c **** * Theory:
 269:Generated_Source\PSoC5/CapSense_IdacCH0.c **** *
 270:Generated_Source\PSoC5/CapSense_IdacCH0.c **** * Side Effects:
 271:Generated_Source\PSoC5/CapSense_IdacCH0.c **** *
 272:Generated_Source\PSoC5/CapSense_IdacCH0.c **** *******************************************************************************/
 273:Generated_Source\PSoC5/CapSense_IdacCH0.c **** void CapSense_IdacCH0_SetRange(uint8 range) 
 274:Generated_Source\PSoC5/CapSense_IdacCH0.c **** {
 275:Generated_Source\PSoC5/CapSense_IdacCH0.c ****     CapSense_IdacCH0_CR0 &= (uint8)(~CapSense_IdacCH0_RANGE_MASK);       /* Clear existing mode */
 276:Generated_Source\PSoC5/CapSense_IdacCH0.c ****     CapSense_IdacCH0_CR0 |= ( range & CapSense_IdacCH0_RANGE_MASK );     /*  Set Range  */
ARM GAS  C:\Users\Xwx47\AppData\Local\Temp\cc9bgkKO.s 			page 8


 277:Generated_Source\PSoC5/CapSense_IdacCH0.c ****     CapSense_IdacCH0_DacTrim();
 278:Generated_Source\PSoC5/CapSense_IdacCH0.c **** }
 279:Generated_Source\PSoC5/CapSense_IdacCH0.c **** 
 280:Generated_Source\PSoC5/CapSense_IdacCH0.c **** 
 281:Generated_Source\PSoC5/CapSense_IdacCH0.c **** /*******************************************************************************
 282:Generated_Source\PSoC5/CapSense_IdacCH0.c **** * Function Name: CapSense_IdacCH0_SetValue
 283:Generated_Source\PSoC5/CapSense_IdacCH0.c **** ********************************************************************************
 284:Generated_Source\PSoC5/CapSense_IdacCH0.c **** * Summary:
 285:Generated_Source\PSoC5/CapSense_IdacCH0.c **** *  Set DAC value
 286:Generated_Source\PSoC5/CapSense_IdacCH0.c **** *
 287:Generated_Source\PSoC5/CapSense_IdacCH0.c **** * Parameters:
 288:Generated_Source\PSoC5/CapSense_IdacCH0.c **** *  value: Sets DAC value between 0 and 255.
 289:Generated_Source\PSoC5/CapSense_IdacCH0.c **** *
 290:Generated_Source\PSoC5/CapSense_IdacCH0.c **** * Return:
 291:Generated_Source\PSoC5/CapSense_IdacCH0.c **** *  (void)
 292:Generated_Source\PSoC5/CapSense_IdacCH0.c **** *
 293:Generated_Source\PSoC5/CapSense_IdacCH0.c **** * Theory:
 294:Generated_Source\PSoC5/CapSense_IdacCH0.c **** *
 295:Generated_Source\PSoC5/CapSense_IdacCH0.c **** * Side Effects:
 296:Generated_Source\PSoC5/CapSense_IdacCH0.c **** *
 297:Generated_Source\PSoC5/CapSense_IdacCH0.c **** *******************************************************************************/
 298:Generated_Source\PSoC5/CapSense_IdacCH0.c **** void CapSense_IdacCH0_SetValue(uint8 value) 
 299:Generated_Source\PSoC5/CapSense_IdacCH0.c **** {
 123              		.loc 1 299 0
 124              		.cfi_startproc
 125              		@ args = 0, pretend = 0, frame = 0
 126              		@ frame_needed = 0, uses_anonymous_args = 0
 127              		@ link register save eliminated.
 128              	.LVL2:
 300:Generated_Source\PSoC5/CapSense_IdacCH0.c **** 
 301:Generated_Source\PSoC5/CapSense_IdacCH0.c ****     #if (CY_PSOC5A)
 302:Generated_Source\PSoC5/CapSense_IdacCH0.c ****         uint8 CapSense_IdacCH0_intrStatus = CyEnterCriticalSection();
 303:Generated_Source\PSoC5/CapSense_IdacCH0.c ****     #endif /* CY_PSOC5A */
 304:Generated_Source\PSoC5/CapSense_IdacCH0.c **** 
 305:Generated_Source\PSoC5/CapSense_IdacCH0.c ****     CapSense_IdacCH0_Data = value;         /*  Set Value  */
 129              		.loc 1 305 0
 130 0000 014B     		ldr	r3, .L11
 131 0002 1870     		strb	r0, [r3]
 132 0004 7047     		bx	lr
 133              	.L12:
 134 0006 00BF     		.align	2
 135              	.L11:
 136 0008 835B0040 		.word	1073765251
 137              		.cfi_endproc
 138              	.LFE7:
 139              		.size	CapSense_IdacCH0_SetValue, .-CapSense_IdacCH0_SetValue
 140              		.section	.text.CapSense_IdacCH0_DacTrim,"ax",%progbits
 141              		.align	1
 142              		.global	CapSense_IdacCH0_DacTrim
 143              		.thumb
 144              		.thumb_func
 145              		.type	CapSense_IdacCH0_DacTrim, %function
 146              	CapSense_IdacCH0_DacTrim:
 147              	.LFB8:
 306:Generated_Source\PSoC5/CapSense_IdacCH0.c ****     
 307:Generated_Source\PSoC5/CapSense_IdacCH0.c ****     /* PSOC5A silicons require a double write */
 308:Generated_Source\PSoC5/CapSense_IdacCH0.c ****     #if (CY_PSOC5A)
ARM GAS  C:\Users\Xwx47\AppData\Local\Temp\cc9bgkKO.s 			page 9


 309:Generated_Source\PSoC5/CapSense_IdacCH0.c ****         CapSense_IdacCH0_Data = value;
 310:Generated_Source\PSoC5/CapSense_IdacCH0.c ****         CyExitCriticalSection(CapSense_IdacCH0_intrStatus);
 311:Generated_Source\PSoC5/CapSense_IdacCH0.c ****     #endif /* CY_PSOC5A */
 312:Generated_Source\PSoC5/CapSense_IdacCH0.c **** }
 313:Generated_Source\PSoC5/CapSense_IdacCH0.c **** 
 314:Generated_Source\PSoC5/CapSense_IdacCH0.c **** 
 315:Generated_Source\PSoC5/CapSense_IdacCH0.c **** /*******************************************************************************
 316:Generated_Source\PSoC5/CapSense_IdacCH0.c **** * Function Name: CapSense_IdacCH0_DacTrim
 317:Generated_Source\PSoC5/CapSense_IdacCH0.c **** ********************************************************************************
 318:Generated_Source\PSoC5/CapSense_IdacCH0.c **** * Summary:
 319:Generated_Source\PSoC5/CapSense_IdacCH0.c **** *  Set the trim value for the given range.
 320:Generated_Source\PSoC5/CapSense_IdacCH0.c **** *
 321:Generated_Source\PSoC5/CapSense_IdacCH0.c **** * Parameters:
 322:Generated_Source\PSoC5/CapSense_IdacCH0.c **** *  None
 323:Generated_Source\PSoC5/CapSense_IdacCH0.c **** *
 324:Generated_Source\PSoC5/CapSense_IdacCH0.c **** * Return:
 325:Generated_Source\PSoC5/CapSense_IdacCH0.c **** *  (void) 
 326:Generated_Source\PSoC5/CapSense_IdacCH0.c **** *
 327:Generated_Source\PSoC5/CapSense_IdacCH0.c **** * Theory:
 328:Generated_Source\PSoC5/CapSense_IdacCH0.c **** *  Trim values for the IDAC blocks are stored in the "Customer Table" area in 
 329:Generated_Source\PSoC5/CapSense_IdacCH0.c **** *  Row 1 of the Hidden Flash.  There are 8 bytes of trim data for each 
 330:Generated_Source\PSoC5/CapSense_IdacCH0.c **** *  IDAC block.
 331:Generated_Source\PSoC5/CapSense_IdacCH0.c **** *  The values are:
 332:Generated_Source\PSoC5/CapSense_IdacCH0.c **** *       I Gain offset, min range, Sourcing
 333:Generated_Source\PSoC5/CapSense_IdacCH0.c **** *       I Gain offset, min range, Sinking
 334:Generated_Source\PSoC5/CapSense_IdacCH0.c **** *       I Gain offset, med range, Sourcing
 335:Generated_Source\PSoC5/CapSense_IdacCH0.c **** *       I Gain offset, med range, Sinking
 336:Generated_Source\PSoC5/CapSense_IdacCH0.c **** *       I Gain offset, max range, Sourcing
 337:Generated_Source\PSoC5/CapSense_IdacCH0.c **** *       I Gain offset, max range, Sinking
 338:Generated_Source\PSoC5/CapSense_IdacCH0.c **** *       V Gain offset, 1V range
 339:Generated_Source\PSoC5/CapSense_IdacCH0.c **** *       V Gain offset, 4V range
 340:Generated_Source\PSoC5/CapSense_IdacCH0.c **** *
 341:Generated_Source\PSoC5/CapSense_IdacCH0.c **** * Side Effects:
 342:Generated_Source\PSoC5/CapSense_IdacCH0.c **** *
 343:Generated_Source\PSoC5/CapSense_IdacCH0.c **** *******************************************************************************/
 344:Generated_Source\PSoC5/CapSense_IdacCH0.c **** void CapSense_IdacCH0_DacTrim(void) 
 345:Generated_Source\PSoC5/CapSense_IdacCH0.c **** {
 148              		.loc 1 345 0
 149              		.cfi_startproc
 150              		@ args = 0, pretend = 0, frame = 0
 151              		@ frame_needed = 0, uses_anonymous_args = 0
 152              		@ link register save eliminated.
 346:Generated_Source\PSoC5/CapSense_IdacCH0.c ****     uint8 mode;
 347:Generated_Source\PSoC5/CapSense_IdacCH0.c **** 
 348:Generated_Source\PSoC5/CapSense_IdacCH0.c ****     mode = ((CapSense_IdacCH0_CR0 & CapSense_IdacCH0_RANGE_MASK) >> 1u);
 153              		.loc 1 348 0
 154 0000 084B     		ldr	r3, .L18
 349:Generated_Source\PSoC5/CapSense_IdacCH0.c ****     
 350:Generated_Source\PSoC5/CapSense_IdacCH0.c ****     if((CapSense_IdacCH0_IDIR_MASK & CapSense_IdacCH0_CR1) == CapSense_IdacCH0_IDIR_SINK)
 155              		.loc 1 350 0
 156 0002 094A     		ldr	r2, .L18+4
 348:Generated_Source\PSoC5/CapSense_IdacCH0.c ****     
 157              		.loc 1 348 0
 158 0004 1B78     		ldrb	r3, [r3]	@ zero_extendqisi2
 159              		.loc 1 350 0
 160 0006 1278     		ldrb	r2, [r2]	@ zero_extendqisi2
 348:Generated_Source\PSoC5/CapSense_IdacCH0.c ****     
ARM GAS  C:\Users\Xwx47\AppData\Local\Temp\cc9bgkKO.s 			page 10


 161              		.loc 1 348 0
 162 0008 03F00C03 		and	r3, r3, #12
 163 000c 5B08     		lsrs	r3, r3, #1
 164              	.LVL3:
 165              		.loc 1 350 0
 166 000e 5207     		lsls	r2, r2, #29
 351:Generated_Source\PSoC5/CapSense_IdacCH0.c ****     {
 352:Generated_Source\PSoC5/CapSense_IdacCH0.c ****         mode++;
 167              		.loc 1 352 0
 168 0010 48BF     		it	mi
 169 0012 0133     		addmi	r3, r3, #1
 170              	.LVL4:
 353:Generated_Source\PSoC5/CapSense_IdacCH0.c ****     }
 354:Generated_Source\PSoC5/CapSense_IdacCH0.c **** 
 355:Generated_Source\PSoC5/CapSense_IdacCH0.c ****     CapSense_IdacCH0_TR = CY_GET_XTND_REG8((uint8 *)(CapSense_IdacCH0_DAC_TRIM_BASE + mode));
 171              		.loc 1 355 0
 172 0014 03F19243 		add	r3, r3, #1224736768
 173              	.LVL5:
 174 0018 93F83831 		ldrb	r3, [r3, #312]	@ zero_extendqisi2
 175              	.LVL6:
 176 001c 034A     		ldr	r2, .L18+8
 177 001e DBB2     		uxtb	r3, r3
 178 0020 1370     		strb	r3, [r2]
 179 0022 7047     		bx	lr
 180              	.L19:
 181              		.align	2
 182              	.L18:
 183 0024 2C580040 		.word	1073764396
 184 0028 2D580040 		.word	1073764397
 185 002c 0B460040 		.word	1073759755
 186              		.cfi_endproc
 187              	.LFE8:
 188              		.size	CapSense_IdacCH0_DacTrim, .-CapSense_IdacCH0_DacTrim
 189              		.section	.text.CapSense_IdacCH0_Init,"ax",%progbits
 190              		.align	1
 191              		.global	CapSense_IdacCH0_Init
 192              		.thumb
 193              		.thumb_func
 194              		.type	CapSense_IdacCH0_Init, %function
 195              	CapSense_IdacCH0_Init:
 196              	.LFB0:
  59:Generated_Source\PSoC5/CapSense_IdacCH0.c ****     CapSense_IdacCH0_CR0 = (CapSense_IdacCH0_MODE_I | CapSense_IdacCH0_DEFAULT_RANGE );
 197              		.loc 1 59 0
 198              		.cfi_startproc
 199              		@ args = 0, pretend = 0, frame = 0
 200              		@ frame_needed = 0, uses_anonymous_args = 0
 201 0000 08B5     		push	{r3, lr}
 202              		.cfi_def_cfa_offset 8
 203              		.cfi_offset 3, -8
 204              		.cfi_offset 14, -4
  60:Generated_Source\PSoC5/CapSense_IdacCH0.c **** 
 205              		.loc 1 60 0
 206 0002 094B     		ldr	r3, .L21
 207 0004 1422     		movs	r2, #20
  66:Generated_Source\PSoC5/CapSense_IdacCH0.c ****     #endif /* (CapSense_IdacCH0_DEFAULT_DATA_SRC != 0u ) */
 208              		.loc 1 66 0
 209 0006 0020     		movs	r0, #0
ARM GAS  C:\Users\Xwx47\AppData\Local\Temp\cc9bgkKO.s 			page 11


  60:Generated_Source\PSoC5/CapSense_IdacCH0.c **** 
 210              		.loc 1 60 0
 211 0008 1A70     		strb	r2, [r3]
  66:Generated_Source\PSoC5/CapSense_IdacCH0.c ****     #endif /* (CapSense_IdacCH0_DEFAULT_DATA_SRC != 0u ) */
 212              		.loc 1 66 0
 213 000a 5870     		strb	r0, [r3, #1]
  73:Generated_Source\PSoC5/CapSense_IdacCH0.c ****     #endif/* (CapSense_IdacCH0_DEFAULT_POLARITY == CapSense_IdacCH0_HARDWARE_CONTROLLED) */
 214              		.loc 1 73 0
 215 000c 5A78     		ldrb	r2, [r3, #1]	@ zero_extendqisi2
 216 000e 42F00402 		orr	r2, r2, #4
 217 0012 5A70     		strb	r2, [r3, #1]
  77:Generated_Source\PSoC5/CapSense_IdacCH0.c ****     #endif /* (CapSense_IdacCH0_HARDWARE_ENABLE != 0u ) */ 
 218              		.loc 1 77 0
 219 0014 5A78     		ldrb	r2, [r3, #1]	@ zero_extendqisi2
 220 0016 42F00202 		orr	r2, r2, #2
 221 001a 5A70     		strb	r2, [r3, #1]
  86:Generated_Source\PSoC5/CapSense_IdacCH0.c ****     
 222              		.loc 1 86 0
 223 001c FFF7FEFF 		bl	CapSense_IdacCH0_SetSpeed
 224              	.LVL7:
  91:Generated_Source\PSoC5/CapSense_IdacCH0.c **** 
 225              		.loc 1 91 0
 226 0020 BDE80840 		pop	{r3, lr}
 227              		.cfi_restore 14
 228              		.cfi_restore 3
 229              		.cfi_def_cfa_offset 0
  89:Generated_Source\PSoC5/CapSense_IdacCH0.c ****     
 230              		.loc 1 89 0
 231 0024 FFF7FEBF 		b	CapSense_IdacCH0_DacTrim
 232              	.LVL8:
 233              	.L22:
 234              		.align	2
 235              	.L21:
 236 0028 2C580040 		.word	1073764396
 237              		.cfi_endproc
 238              	.LFE0:
 239              		.size	CapSense_IdacCH0_Init, .-CapSense_IdacCH0_Init
 240              		.section	.text.CapSense_IdacCH0_Start,"ax",%progbits
 241              		.align	1
 242              		.global	CapSense_IdacCH0_Start
 243              		.thumb
 244              		.thumb_func
 245              		.type	CapSense_IdacCH0_Start, %function
 246              	CapSense_IdacCH0_Start:
 247              	.LFB2:
 148:Generated_Source\PSoC5/CapSense_IdacCH0.c ****     /* Hardware initiazation only needs to occur the first time */
 248              		.loc 1 148 0
 249              		.cfi_startproc
 250              		@ args = 0, pretend = 0, frame = 0
 251              		@ frame_needed = 0, uses_anonymous_args = 0
 252 0000 08B5     		push	{r3, lr}
 253              		.cfi_def_cfa_offset 8
 254              		.cfi_offset 3, -8
 255              		.cfi_offset 14, -4
 150:Generated_Source\PSoC5/CapSense_IdacCH0.c ****     {
 256              		.loc 1 150 0
 257 0002 0649     		ldr	r1, .L26
ARM GAS  C:\Users\Xwx47\AppData\Local\Temp\cc9bgkKO.s 			page 12


 258 0004 0B78     		ldrb	r3, [r1]	@ zero_extendqisi2
 259 0006 1BB9     		cbnz	r3, .L24
 152:Generated_Source\PSoC5/CapSense_IdacCH0.c ****         
 260              		.loc 1 152 0
 261 0008 FFF7FEFF 		bl	CapSense_IdacCH0_Init
 262              	.LVL9:
 154:Generated_Source\PSoC5/CapSense_IdacCH0.c ****     }
 263              		.loc 1 154 0
 264 000c 0123     		movs	r3, #1
 265 000e 0B70     		strb	r3, [r1]
 266              	.L24:
 158:Generated_Source\PSoC5/CapSense_IdacCH0.c **** 
 267              		.loc 1 158 0
 268 0010 FFF7FEFF 		bl	CapSense_IdacCH0_Enable
 269              	.LVL10:
 270              	.LBB4:
 271              	.LBB5:
 305:Generated_Source\PSoC5/CapSense_IdacCH0.c ****     
 272              		.loc 1 305 0
 273 0014 024B     		ldr	r3, .L26+4
 274 0016 0022     		movs	r2, #0
 275 0018 1A70     		strb	r2, [r3]
 276              	.LVL11:
 277 001a 08BD     		pop	{r3, pc}
 278              	.L27:
 279              		.align	2
 280              	.L26:
 281 001c 00000000 		.word	.LANCHOR0
 282 0020 835B0040 		.word	1073765251
 283              	.LBE5:
 284              	.LBE4:
 285              		.cfi_endproc
 286              	.LFE2:
 287              		.size	CapSense_IdacCH0_Start, .-CapSense_IdacCH0_Start
 288              		.section	.text.CapSense_IdacCH0_SetPolarity,"ax",%progbits
 289              		.align	1
 290              		.global	CapSense_IdacCH0_SetPolarity
 291              		.thumb
 292              		.thumb_func
 293              		.type	CapSense_IdacCH0_SetPolarity, %function
 294              	CapSense_IdacCH0_SetPolarity:
 295              	.LFB5:
 247:Generated_Source\PSoC5/CapSense_IdacCH0.c ****         CapSense_IdacCH0_CR1 &= (uint8)(~CapSense_IdacCH0_IDIR_MASK);                /* clear polar
 296              		.loc 1 247 0
 297              		.cfi_startproc
 298              		@ args = 0, pretend = 0, frame = 0
 299              		@ frame_needed = 0, uses_anonymous_args = 0
 300              		@ link register save eliminated.
 301              	.LVL12:
 248:Generated_Source\PSoC5/CapSense_IdacCH0.c ****         CapSense_IdacCH0_CR1 |= (polarity & CapSense_IdacCH0_IDIR_MASK);             /* set new val
 302              		.loc 1 248 0
 303 0000 054B     		ldr	r3, .L29
 249:Generated_Source\PSoC5/CapSense_IdacCH0.c ****     
 304              		.loc 1 249 0
 305 0002 00F00400 		and	r0, r0, #4
 306              	.LVL13:
 248:Generated_Source\PSoC5/CapSense_IdacCH0.c ****         CapSense_IdacCH0_CR1 |= (polarity & CapSense_IdacCH0_IDIR_MASK);             /* set new val
ARM GAS  C:\Users\Xwx47\AppData\Local\Temp\cc9bgkKO.s 			page 13


 307              		.loc 1 248 0
 308 0006 1A78     		ldrb	r2, [r3]	@ zero_extendqisi2
 309 0008 02F0FB02 		and	r2, r2, #251
 310 000c 1A70     		strb	r2, [r3]
 249:Generated_Source\PSoC5/CapSense_IdacCH0.c ****     
 311              		.loc 1 249 0
 312 000e 1A78     		ldrb	r2, [r3]	@ zero_extendqisi2
 313 0010 1043     		orrs	r0, r0, r2
 314 0012 1870     		strb	r0, [r3]
 251:Generated_Source\PSoC5/CapSense_IdacCH0.c ****     }
 315              		.loc 1 251 0
 316 0014 FFF7FEBF 		b	CapSense_IdacCH0_DacTrim
 317              	.LVL14:
 318              	.L30:
 319              		.align	2
 320              	.L29:
 321 0018 2D580040 		.word	1073764397
 322              		.cfi_endproc
 323              	.LFE5:
 324              		.size	CapSense_IdacCH0_SetPolarity, .-CapSense_IdacCH0_SetPolarity
 325              		.section	.text.CapSense_IdacCH0_SetRange,"ax",%progbits
 326              		.align	1
 327              		.global	CapSense_IdacCH0_SetRange
 328              		.thumb
 329              		.thumb_func
 330              		.type	CapSense_IdacCH0_SetRange, %function
 331              	CapSense_IdacCH0_SetRange:
 332              	.LFB6:
 274:Generated_Source\PSoC5/CapSense_IdacCH0.c ****     CapSense_IdacCH0_CR0 &= (uint8)(~CapSense_IdacCH0_RANGE_MASK);       /* Clear existing mode */
 333              		.loc 1 274 0
 334              		.cfi_startproc
 335              		@ args = 0, pretend = 0, frame = 0
 336              		@ frame_needed = 0, uses_anonymous_args = 0
 337              		@ link register save eliminated.
 338              	.LVL15:
 275:Generated_Source\PSoC5/CapSense_IdacCH0.c ****     CapSense_IdacCH0_CR0 |= ( range & CapSense_IdacCH0_RANGE_MASK );     /*  Set Range  */
 339              		.loc 1 275 0
 340 0000 054B     		ldr	r3, .L32
 276:Generated_Source\PSoC5/CapSense_IdacCH0.c ****     CapSense_IdacCH0_DacTrim();
 341              		.loc 1 276 0
 342 0002 00F00C00 		and	r0, r0, #12
 343              	.LVL16:
 275:Generated_Source\PSoC5/CapSense_IdacCH0.c ****     CapSense_IdacCH0_CR0 |= ( range & CapSense_IdacCH0_RANGE_MASK );     /*  Set Range  */
 344              		.loc 1 275 0
 345 0006 1A78     		ldrb	r2, [r3]	@ zero_extendqisi2
 346 0008 02F0F302 		and	r2, r2, #243
 347 000c 1A70     		strb	r2, [r3]
 276:Generated_Source\PSoC5/CapSense_IdacCH0.c ****     CapSense_IdacCH0_DacTrim();
 348              		.loc 1 276 0
 349 000e 1A78     		ldrb	r2, [r3]	@ zero_extendqisi2
 350 0010 1043     		orrs	r0, r0, r2
 351 0012 1870     		strb	r0, [r3]
 277:Generated_Source\PSoC5/CapSense_IdacCH0.c **** }
 352              		.loc 1 277 0
 353 0014 FFF7FEBF 		b	CapSense_IdacCH0_DacTrim
 354              	.LVL17:
 355              	.L33:
ARM GAS  C:\Users\Xwx47\AppData\Local\Temp\cc9bgkKO.s 			page 14


 356              		.align	2
 357              	.L32:
 358 0018 2C580040 		.word	1073764396
 359              		.cfi_endproc
 360              	.LFE6:
 361              		.size	CapSense_IdacCH0_SetRange, .-CapSense_IdacCH0_SetRange
 362              		.global	CapSense_IdacCH0_initVar
 363              		.bss
 364              		.set	.LANCHOR0,. + 0
 365              		.type	CapSense_IdacCH0_initVar, %object
 366              		.size	CapSense_IdacCH0_initVar, 1
 367              	CapSense_IdacCH0_initVar:
 368 0000 00       		.space	1
 369              		.text
 370              	.Letext0:
 371              		.file 2 "Generated_Source\\PSoC5\\cytypes.h"