ARM GAS  C:\Users\Xwx47\AppData\Local\Temp\ccd0GhAc.s 			page 1


   1              		.syntax unified
   2              		.cpu cortex-m3
   3              		.fpu softvfp
   4              		.eabi_attribute 20, 1
   5              		.eabi_attribute 21, 1
   6              		.eabi_attribute 23, 3
   7              		.eabi_attribute 24, 1
   8              		.eabi_attribute 25, 1
   9              		.eabi_attribute 26, 1
  10              		.eabi_attribute 30, 4
  11              		.eabi_attribute 34, 1
  12              		.eabi_attribute 18, 4
  13              		.thumb
  14              		.syntax unified
  15              		.file	"CapSense.c"
  16              		.text
  17              	.Ltext0:
  18              		.cfi_sections	.debug_frame
  19              		.section	.text.CapSense_Enable,"ax",%progbits
  20              		.align	1
  21              		.global	CapSense_Enable
  22              		.thumb
  23              		.thumb_func
  24              		.type	CapSense_Enable, %function
  25              	CapSense_Enable:
  26              	.LFB1:
  27              		.file 1 "Generated_Source\\PSoC5\\CapSense.c"
   1:Generated_Source\PSoC5/CapSense.c **** /*******************************************************************************
   2:Generated_Source\PSoC5/CapSense.c **** * File Name: CapSense.c
   3:Generated_Source\PSoC5/CapSense.c **** * Version 3.50
   4:Generated_Source\PSoC5/CapSense.c **** *
   5:Generated_Source\PSoC5/CapSense.c **** * Description:
   6:Generated_Source\PSoC5/CapSense.c **** *  This file provides the source code of scanning APIs for the CapSense CSD 
   7:Generated_Source\PSoC5/CapSense.c **** *  component.
   8:Generated_Source\PSoC5/CapSense.c **** *
   9:Generated_Source\PSoC5/CapSense.c **** * Note:
  10:Generated_Source\PSoC5/CapSense.c **** *
  11:Generated_Source\PSoC5/CapSense.c **** ********************************************************************************
  12:Generated_Source\PSoC5/CapSense.c **** * Copyright 2008-2013, Cypress Semiconductor Corporation.  All rights reserved.
  13:Generated_Source\PSoC5/CapSense.c **** * You may use this file only in accordance with the license, terms, conditions,
  14:Generated_Source\PSoC5/CapSense.c **** * disclaimers, and limitations in the end user license agreement accompanying
  15:Generated_Source\PSoC5/CapSense.c **** * the software package with which this file was provided.
  16:Generated_Source\PSoC5/CapSense.c **** *******************************************************************************/
  17:Generated_Source\PSoC5/CapSense.c **** 
  18:Generated_Source\PSoC5/CapSense.c **** #include "CapSense.h"
  19:Generated_Source\PSoC5/CapSense.c **** 
  20:Generated_Source\PSoC5/CapSense.c **** 
  21:Generated_Source\PSoC5/CapSense.c **** 
  22:Generated_Source\PSoC5/CapSense.c **** static uint8 CapSense_initVar = 0u;
  23:Generated_Source\PSoC5/CapSense.c ****             
  24:Generated_Source\PSoC5/CapSense.c **** /* Global software variables */
  25:Generated_Source\PSoC5/CapSense.c **** volatile uint8 CapSense_csv;            /* CapSense CSD status, control variable */
  26:Generated_Source\PSoC5/CapSense.c **** volatile uint8 CapSense_sensorIndex;    /* Index of scannig sensor */
  27:Generated_Source\PSoC5/CapSense.c **** 
  28:Generated_Source\PSoC5/CapSense.c **** /* AutoTunning start */
  29:Generated_Source\PSoC5/CapSense.c **** #if (CapSense_TUNING_METHOD == CapSense_AUTO_TUNING)
  30:Generated_Source\PSoC5/CapSense.c ****     uint8 CapSense_lowLevelTuningDone = 1u;
ARM GAS  C:\Users\Xwx47\AppData\Local\Temp\ccd0GhAc.s 			page 2


  31:Generated_Source\PSoC5/CapSense.c **** #endif /* (CapSense_TUNING_METHOD == CapSense_AUTO_TUNING) */
  32:Generated_Source\PSoC5/CapSense.c **** 
  33:Generated_Source\PSoC5/CapSense.c **** #if (CapSense_CURRENT_SOURCE == CapSense_EXTERNAL_RB)
  34:Generated_Source\PSoC5/CapSense.c ****     uint8  CapSense_extRbCh0Cur = CapSense_RBLEED1;
  35:Generated_Source\PSoC5/CapSense.c ****     #if (CapSense_DESIGN_TYPE == CapSense_TWO_CHANNELS_DESIGN)
  36:Generated_Source\PSoC5/CapSense.c ****         uint8  CapSense_extRbCh1Cur = (CapSense_RBLEED1 + CapSense_TOTAL_RB_NUMBER__CH0);
  37:Generated_Source\PSoC5/CapSense.c ****     #endif /* (CapSense_DESIGN_TYPE == CapSense_TWO_CHANNELS_DESIGN)*/ 
  38:Generated_Source\PSoC5/CapSense.c **** #endif /* (CapSense_CURRENT_SOURCE == CapSense_EXTERNAL_RB) */ 
  39:Generated_Source\PSoC5/CapSense.c ****         
  40:Generated_Source\PSoC5/CapSense.c **** /* Global array of Raw Counts */
  41:Generated_Source\PSoC5/CapSense.c **** uint16 CapSense_sensorRaw[CapSense_TOTAL_SENSOR_COUNT]; 
  42:Generated_Source\PSoC5/CapSense.c **** 
  43:Generated_Source\PSoC5/CapSense.c **** uint8 CapSense_sensorEnableMask[(((CapSense_TOTAL_SENSOR_COUNT - 1u) / 8u) + 1u)] = {
  44:Generated_Source\PSoC5/CapSense.c **** 0x7u, };
  45:Generated_Source\PSoC5/CapSense.c **** 
  46:Generated_Source\PSoC5/CapSense.c **** uint8 CYXDATA * const CYCODE CapSense_pcTable[] = {
  47:Generated_Source\PSoC5/CapSense.c ****     (uint8 CYXDATA *)CapSense_PortCH0__Button0__BTN__PC, 
  48:Generated_Source\PSoC5/CapSense.c ****     (uint8 CYXDATA *)CapSense_PortCH0__Button1__BTN__PC, 
  49:Generated_Source\PSoC5/CapSense.c ****     (uint8 CYXDATA *)CapSense_PortCH0__Button2__BTN__PC, 
  50:Generated_Source\PSoC5/CapSense.c **** };
  51:Generated_Source\PSoC5/CapSense.c **** 
  52:Generated_Source\PSoC5/CapSense.c **** const uint8 CYCODE CapSense_portTable[] = {
  53:Generated_Source\PSoC5/CapSense.c ****     CapSense_PortCH0__Button0__BTN__PORT, 
  54:Generated_Source\PSoC5/CapSense.c ****     CapSense_PortCH0__Button1__BTN__PORT, 
  55:Generated_Source\PSoC5/CapSense.c ****     CapSense_PortCH0__Button2__BTN__PORT, 
  56:Generated_Source\PSoC5/CapSense.c **** };
  57:Generated_Source\PSoC5/CapSense.c **** 
  58:Generated_Source\PSoC5/CapSense.c **** const uint8 CYCODE CapSense_maskTable[] = {
  59:Generated_Source\PSoC5/CapSense.c ****     CapSense_PortCH0__Button0__BTN__MASK,
  60:Generated_Source\PSoC5/CapSense.c ****     CapSense_PortCH0__Button1__BTN__MASK,
  61:Generated_Source\PSoC5/CapSense.c ****     CapSense_PortCH0__Button2__BTN__MASK,
  62:Generated_Source\PSoC5/CapSense.c **** };
  63:Generated_Source\PSoC5/CapSense.c **** 
  64:Generated_Source\PSoC5/CapSense.c **** uint8 CYXDATA * const CYCODE CapSense_csTable[] = {
  65:Generated_Source\PSoC5/CapSense.c ****     (uint8 CYXDATA *)CYREG_PRT0_CAPS_SEL, (uint8 CYXDATA *)CYREG_PRT1_CAPS_SEL, (uint8 CYXDATA *)CY
  66:Generated_Source\PSoC5/CapSense.c ****     (uint8 CYXDATA *)CYREG_PRT3_CAPS_SEL, (uint8 CYXDATA *)CYREG_PRT4_CAPS_SEL, (uint8 CYXDATA *)CY
  67:Generated_Source\PSoC5/CapSense.c ****     (uint8 CYXDATA *)CYREG_PRT6_CAPS_SEL, (uint8 CYXDATA *)CYREG_PRT15_CAPS_SEL,
  68:Generated_Source\PSoC5/CapSense.c **** };
  69:Generated_Source\PSoC5/CapSense.c **** 
  70:Generated_Source\PSoC5/CapSense.c **** uint8 CapSense_idacSettings[] = {
  71:Generated_Source\PSoC5/CapSense.c ****     200u,200u,200u,
  72:Generated_Source\PSoC5/CapSense.c **** };
  73:Generated_Source\PSoC5/CapSense.c **** 
  74:Generated_Source\PSoC5/CapSense.c **** uint8 CapSense_widgetResolution[] = {
  75:Generated_Source\PSoC5/CapSense.c ****     CapSense_PWM_RESOLUTION_10_BITS,
  76:Generated_Source\PSoC5/CapSense.c ****     CapSense_PWM_RESOLUTION_10_BITS,
  77:Generated_Source\PSoC5/CapSense.c ****     CapSense_PWM_RESOLUTION_10_BITS,
  78:Generated_Source\PSoC5/CapSense.c **** };
  79:Generated_Source\PSoC5/CapSense.c **** 
  80:Generated_Source\PSoC5/CapSense.c **** uint8 CapSense_analogSwitchDivider[CapSense_TOTAL_SCANSLOT_COUNT];
  81:Generated_Source\PSoC5/CapSense.c **** const uint8 CYCODE CapSense_widgetNumber[] = {
  82:Generated_Source\PSoC5/CapSense.c ****     0u, /* Button0__BTN */
  83:Generated_Source\PSoC5/CapSense.c ****     1u, /* Button1__BTN */
  84:Generated_Source\PSoC5/CapSense.c ****     2u, /* Button2__BTN */
  85:Generated_Source\PSoC5/CapSense.c ****     
  86:Generated_Source\PSoC5/CapSense.c **** };
  87:Generated_Source\PSoC5/CapSense.c **** 
ARM GAS  C:\Users\Xwx47\AppData\Local\Temp\ccd0GhAc.s 			page 3


  88:Generated_Source\PSoC5/CapSense.c **** 
  89:Generated_Source\PSoC5/CapSense.c **** 
  90:Generated_Source\PSoC5/CapSense.c **** 
  91:Generated_Source\PSoC5/CapSense.c **** /*******************************************************************************
  92:Generated_Source\PSoC5/CapSense.c **** * Function Name: CapSense_Init
  93:Generated_Source\PSoC5/CapSense.c **** ********************************************************************************
  94:Generated_Source\PSoC5/CapSense.c **** *
  95:Generated_Source\PSoC5/CapSense.c **** * Summary:
  96:Generated_Source\PSoC5/CapSense.c **** *  Inits default CapSense configuration provided with customizer that defines 
  97:Generated_Source\PSoC5/CapSense.c **** *  mode of component operations and resets all sensors to an inactive state.
  98:Generated_Source\PSoC5/CapSense.c **** *
  99:Generated_Source\PSoC5/CapSense.c **** * Parameters:
 100:Generated_Source\PSoC5/CapSense.c **** *  None
 101:Generated_Source\PSoC5/CapSense.c **** *
 102:Generated_Source\PSoC5/CapSense.c **** * Return:
 103:Generated_Source\PSoC5/CapSense.c **** *  None
 104:Generated_Source\PSoC5/CapSense.c **** *
 105:Generated_Source\PSoC5/CapSense.c **** *******************************************************************************/
 106:Generated_Source\PSoC5/CapSense.c **** void CapSense_Init(void) 
 107:Generated_Source\PSoC5/CapSense.c **** {
 108:Generated_Source\PSoC5/CapSense.c ****     #if ( (CapSense_PRS_OPTIONS) || \
 109:Generated_Source\PSoC5/CapSense.c ****           (CapSense_IMPLEMENTATION_CH0 == CapSense_MEASURE_IMPLEMENTATION_UDB) || \
 110:Generated_Source\PSoC5/CapSense.c ****           ( (CapSense_DESIGN_TYPE == CapSense_TWO_CHANNELS_DESIGN) && \
 111:Generated_Source\PSoC5/CapSense.c ****             (CapSense_IMPLEMENTATION_CH1 == CapSense_MEASURE_IMPLEMENTATION_UDB)) )
 112:Generated_Source\PSoC5/CapSense.c ****         
 113:Generated_Source\PSoC5/CapSense.c ****         uint8 enableInterrupts;
 114:Generated_Source\PSoC5/CapSense.c ****     #endif /* ( (CapSense_PRS_OPTIONS) || \
 115:Generated_Source\PSoC5/CapSense.c ****            * (CapSense_IMPLEMENTATION_CH0 == CapSense_MEASURE_IMPLEMENTATION_UDB) || \
 116:Generated_Source\PSoC5/CapSense.c ****            * ( (CapSense_DESIGN_TYPE == CapSense_TWO_CHANNELS_DESIGN) && \
 117:Generated_Source\PSoC5/CapSense.c ****            * (CapSense_IMPLEMENTATION_CH1 == CapSense_MEASURE_IMPLEMENTATION_UDB)) ) 
 118:Generated_Source\PSoC5/CapSense.c ****            */
 119:Generated_Source\PSoC5/CapSense.c ****     
 120:Generated_Source\PSoC5/CapSense.c ****     /* Clear all sensors */
 121:Generated_Source\PSoC5/CapSense.c ****     CapSense_ClearSensors();
 122:Generated_Source\PSoC5/CapSense.c **** 
 123:Generated_Source\PSoC5/CapSense.c ****     /* Set Prescaler */
 124:Generated_Source\PSoC5/CapSense.c ****     #if (CapSense_PRESCALER_OPTIONS == CapSense_PRESCALER_UDB)
 125:Generated_Source\PSoC5/CapSense.c ****         /* Do nothing = config without prescaler */
 126:Generated_Source\PSoC5/CapSense.c ****     #elif (CapSense_PRESCALER_OPTIONS == CapSense_PRESCALER_FF)
 127:Generated_Source\PSoC5/CapSense.c ****         CapSense_PRESCALER_CONTROL_REG   = (CapSense_PRESCALER_CTRL_ENABLE |
 128:Generated_Source\PSoC5/CapSense.c ****                                                     CapSense_PRESCALER_CTRL_MODE_CMP);
 129:Generated_Source\PSoC5/CapSense.c ****                                                
 130:Generated_Source\PSoC5/CapSense.c ****         CapSense_PRESCALER_CONTROL2_REG |= CapSense_PRESCALER_CTRL_CMP_LESS_EQ;
 131:Generated_Source\PSoC5/CapSense.c ****     #else
 132:Generated_Source\PSoC5/CapSense.c ****         /* Do nothing = config without prescaler */
 133:Generated_Source\PSoC5/CapSense.c ****     #endif  /* (CapSense_PRESCALER_OPTIONS == CapSense_PRESCALER_UDB) */
 134:Generated_Source\PSoC5/CapSense.c **** 
 135:Generated_Source\PSoC5/CapSense.c ****     /* Set PRS */
 136:Generated_Source\PSoC5/CapSense.c ****     #if (CapSense_PRS_OPTIONS)
 137:Generated_Source\PSoC5/CapSense.c ****         CapSense_SetAnalogSwitchesSource(CapSense_ANALOG_SWITCHES_SRC_PRS);
 138:Generated_Source\PSoC5/CapSense.c ****     #endif /* (CapSense_PRS_OPTIONS) */
 139:Generated_Source\PSoC5/CapSense.c **** 
 140:Generated_Source\PSoC5/CapSense.c ****     #if (CapSense_PRS_OPTIONS == CapSense_PRS_8BITS)
 141:Generated_Source\PSoC5/CapSense.c ****         /* Aux control set FIFO as REG */
 142:Generated_Source\PSoC5/CapSense.c ****         enableInterrupts = CyEnterCriticalSection();
 143:Generated_Source\PSoC5/CapSense.c ****         CapSense_AUX_CONTROL_A_REG |= CapSense_AUXCTRL_FIFO_SINGLE_REG;
 144:Generated_Source\PSoC5/CapSense.c ****         CyExitCriticalSection(enableInterrupts);
ARM GAS  C:\Users\Xwx47\AppData\Local\Temp\ccd0GhAc.s 			page 4


 145:Generated_Source\PSoC5/CapSense.c ****         
 146:Generated_Source\PSoC5/CapSense.c ****         /* Write polynomial */
 147:Generated_Source\PSoC5/CapSense.c ****         CapSense_POLYNOM_REG   = CapSense_PRS8_DEFAULT_POLYNOM;
 148:Generated_Source\PSoC5/CapSense.c ****         /* Write FIFO with seed */
 149:Generated_Source\PSoC5/CapSense.c ****         CapSense_SEED_COPY_REG = CapSense_MEASURE_FULL_RANGE_LOW;
 150:Generated_Source\PSoC5/CapSense.c ****         
 151:Generated_Source\PSoC5/CapSense.c ****     #elif (CapSense_PRS_OPTIONS == CapSense_PRS_16BITS)
 152:Generated_Source\PSoC5/CapSense.c ****         /* Aux control set FIFO as REG */ 
 153:Generated_Source\PSoC5/CapSense.c ****         enableInterrupts = CyEnterCriticalSection();  
 154:Generated_Source\PSoC5/CapSense.c ****         CapSense_AUX_CONTROL_A_REG |= CapSense_AUXCTRL_FIFO_SINGLE_REG;
 155:Generated_Source\PSoC5/CapSense.c ****         CapSense_AUX_CONTROL_B_REG |= CapSense_AUXCTRL_FIFO_SINGLE_REG;
 156:Generated_Source\PSoC5/CapSense.c ****         CyExitCriticalSection(enableInterrupts);
 157:Generated_Source\PSoC5/CapSense.c ****         
 158:Generated_Source\PSoC5/CapSense.c ****         /* Write polynomial */
 159:Generated_Source\PSoC5/CapSense.c ****         CY_SET_REG16(CapSense_POLYNOM_PTR, CapSense_PRS16_DEFAULT_POLYNOM);
 160:Generated_Source\PSoC5/CapSense.c ****         /* Write FIFO with seed */
 161:Generated_Source\PSoC5/CapSense.c ****         CY_SET_REG16(CapSense_SEED_COPY_PTR, CapSense_MEASURE_FULL_RANGE);
 162:Generated_Source\PSoC5/CapSense.c ****                 
 163:Generated_Source\PSoC5/CapSense.c ****     #elif (CapSense_PRS_OPTIONS == CapSense_PRS_16BITS_4X)
 164:Generated_Source\PSoC5/CapSense.c ****         /* Aux control set FIFO as REG */
 165:Generated_Source\PSoC5/CapSense.c ****         enableInterrupts = CyEnterCriticalSection();
 166:Generated_Source\PSoC5/CapSense.c ****         CapSense_AUX_CONTROL_A_REG  |= CapSense_AUXCTRL_FIFO_SINGLE_REG;
 167:Generated_Source\PSoC5/CapSense.c ****         CyExitCriticalSection(enableInterrupts);
 168:Generated_Source\PSoC5/CapSense.c ****         
 169:Generated_Source\PSoC5/CapSense.c ****         /* Write polynomial */
 170:Generated_Source\PSoC5/CapSense.c ****         CapSense_POLYNOM_A__D1_REG   = HI8(CapSense_PRS16_DEFAULT_POLYNOM);
 171:Generated_Source\PSoC5/CapSense.c ****         CapSense_POLYNOM_A__D0_REG   = LO8(CapSense_PRS16_DEFAULT_POLYNOM);
 172:Generated_Source\PSoC5/CapSense.c ****         /* Write FIFO with seed */
 173:Generated_Source\PSoC5/CapSense.c ****         CapSense_SEED_COPY_A__F1_REG = CapSense_MEASURE_FULL_RANGE_LOW;
 174:Generated_Source\PSoC5/CapSense.c ****         CapSense_SEED_COPY_A__F0_REG = CapSense_MEASURE_FULL_RANGE_LOW; 
 175:Generated_Source\PSoC5/CapSense.c ****         
 176:Generated_Source\PSoC5/CapSense.c ****     #else
 177:Generated_Source\PSoC5/CapSense.c ****         /* Do nothing = config without PRS */
 178:Generated_Source\PSoC5/CapSense.c ****     #endif  /* (CapSense_PRS_OPTIONS == CapSense_PRS_8BITS) */ 
 179:Generated_Source\PSoC5/CapSense.c ****     
 180:Generated_Source\PSoC5/CapSense.c ****     /* Set ScanSpeed */
 181:Generated_Source\PSoC5/CapSense.c ****     CapSense_SCANSPEED_PERIOD_REG = CapSense_SCANSPEED_VALUE;
 182:Generated_Source\PSoC5/CapSense.c ****     
 183:Generated_Source\PSoC5/CapSense.c ****     /* Set the Measure */
 184:Generated_Source\PSoC5/CapSense.c ****     #if (CapSense_IMPLEMENTATION_CH0 == CapSense_MEASURE_IMPLEMENTATION_FF)
 185:Generated_Source\PSoC5/CapSense.c ****         /* Window PWM */
 186:Generated_Source\PSoC5/CapSense.c ****         CapSense_PWM_CH0_CONTROL_REG      = CapSense_MEASURE_CTRL_ENABLE;
 187:Generated_Source\PSoC5/CapSense.c ****         CapSense_PWM_CH0_CONTROL2_REG    |= CapSense_MEASURE_CTRL_PULSEWIDTH;
 188:Generated_Source\PSoC5/CapSense.c ****         CY_SET_REG16(CapSense_PWM_CH0_COUNTER_PTR, CapSense_MEASURE_FULL_RANGE);
 189:Generated_Source\PSoC5/CapSense.c ****         
 190:Generated_Source\PSoC5/CapSense.c ****         /* Raw Counter */
 191:Generated_Source\PSoC5/CapSense.c ****         CapSense_RAW_CH0_CONTROL_REG      = CapSense_MEASURE_CTRL_ENABLE;
 192:Generated_Source\PSoC5/CapSense.c ****         CapSense_RAW_CH0_CONTROL2_REG    |= CapSense_MEASURE_CTRL_PULSEWIDTH;
 193:Generated_Source\PSoC5/CapSense.c ****         CY_SET_REG16(CapSense_RAW_CH0_PERIOD_PTR, CapSense_MEASURE_FULL_RANGE);
 194:Generated_Source\PSoC5/CapSense.c ****     
 195:Generated_Source\PSoC5/CapSense.c ****     #else
 196:Generated_Source\PSoC5/CapSense.c ****         /*Window PWM and Raw Counter AUX set */
 197:Generated_Source\PSoC5/CapSense.c ****         enableInterrupts = CyEnterCriticalSection();
 198:Generated_Source\PSoC5/CapSense.c ****         CapSense_PWM_CH0_AUX_CONTROL_REG |= CapSense_AUXCTRL_FIFO_SINGLE_REG;
 199:Generated_Source\PSoC5/CapSense.c ****         CapSense_RAW_CH0_AUX_CONTROL_REG |= CapSense_AUXCTRL_FIFO_SINGLE_REG;
 200:Generated_Source\PSoC5/CapSense.c ****         CyExitCriticalSection(enableInterrupts);
 201:Generated_Source\PSoC5/CapSense.c ****         
ARM GAS  C:\Users\Xwx47\AppData\Local\Temp\ccd0GhAc.s 			page 5


 202:Generated_Source\PSoC5/CapSense.c ****         /* Window PWM */
 203:Generated_Source\PSoC5/CapSense.c ****         CapSense_PWM_CH0_ADD_VALUE_REG    = CapSense_MEASURE_FULL_RANGE_LOW;
 204:Generated_Source\PSoC5/CapSense.c ****         CapSense_PWM_CH0_PERIOD_LO_REG    = CapSense_MEASURE_FULL_RANGE_LOW;
 205:Generated_Source\PSoC5/CapSense.c ****         CapSense_PWM_CH0_COUNTER_LO_REG   = CapSense_MEASURE_FULL_RANGE_LOW;
 206:Generated_Source\PSoC5/CapSense.c ****         
 207:Generated_Source\PSoC5/CapSense.c ****         /* Raw Counter */
 208:Generated_Source\PSoC5/CapSense.c ****         CapSense_RAW_CH0_ADD_VALUE_REG    = CapSense_MEASURE_FULL_RANGE_LOW;
 209:Generated_Source\PSoC5/CapSense.c ****         CapSense_RAW_CH0_PERIOD_HI_REG    = CapSense_MEASURE_FULL_RANGE_LOW;
 210:Generated_Source\PSoC5/CapSense.c ****         CapSense_RAW_CH0_PERIOD_LO_REG    = CapSense_MEASURE_FULL_RANGE_LOW;
 211:Generated_Source\PSoC5/CapSense.c ****         
 212:Generated_Source\PSoC5/CapSense.c ****     #endif  /* (CapSense_IMPLEMENTATION_CH0 == CapSense_MEASURE_IMPLEMENTATION_FF) */ 
 213:Generated_Source\PSoC5/CapSense.c ****     
 214:Generated_Source\PSoC5/CapSense.c ****     #if (CapSense_DESIGN_TYPE == CapSense_TWO_CHANNELS_DESIGN)
 215:Generated_Source\PSoC5/CapSense.c ****         #if (CapSense_IMPLEMENTATION_CH1 == CapSense_MEASURE_IMPLEMENTATION_FF)
 216:Generated_Source\PSoC5/CapSense.c ****             /* Window PWM */
 217:Generated_Source\PSoC5/CapSense.c ****             CapSense_PWM_CH1_CONTROL_REG      = CapSense_MEASURE_CTRL_ENABLE;
 218:Generated_Source\PSoC5/CapSense.c ****             CapSense_PWM_CH1_CONTROL2_REG    |= CapSense_MEASURE_CTRL_PULSEWIDTH;
 219:Generated_Source\PSoC5/CapSense.c ****             CY_SET_REG16(CapSense_PWM_CH1_COUNTER_PTR, CapSense_MEASURE_FULL_RANGE);
 220:Generated_Source\PSoC5/CapSense.c ****             
 221:Generated_Source\PSoC5/CapSense.c ****             /* Raw Counter */
 222:Generated_Source\PSoC5/CapSense.c ****             CapSense_RAW_CH1_CONTROL_REG      = CapSense_MEASURE_CTRL_ENABLE;
 223:Generated_Source\PSoC5/CapSense.c ****             CapSense_RAW_CH1_CONTROL2_REG    |= CapSense_MEASURE_CTRL_PULSEWIDTH;
 224:Generated_Source\PSoC5/CapSense.c ****             CY_SET_REG16(CapSense_RAW_CH1_PERIOD_PTR, CapSense_MEASURE_FULL_RANGE);
 225:Generated_Source\PSoC5/CapSense.c ****            
 226:Generated_Source\PSoC5/CapSense.c ****         #else
 227:Generated_Source\PSoC5/CapSense.c ****             /*Window PWM and Raw Counter AUX set */
 228:Generated_Source\PSoC5/CapSense.c ****             enableInterrupts = CyEnterCriticalSection();
 229:Generated_Source\PSoC5/CapSense.c ****             CapSense_PWM_CH1_AUX_CONTROL_REG |= CapSense_AUXCTRL_FIFO_SINGLE_REG;
 230:Generated_Source\PSoC5/CapSense.c ****             CapSense_RAW_CH1_AUX_CONTROL_REG |= CapSense_AUXCTRL_FIFO_SINGLE_REG;
 231:Generated_Source\PSoC5/CapSense.c ****             CyExitCriticalSection(enableInterrupts);
 232:Generated_Source\PSoC5/CapSense.c ****             
 233:Generated_Source\PSoC5/CapSense.c ****             /* Window PWM */
 234:Generated_Source\PSoC5/CapSense.c ****             CapSense_PWM_CH1_ADD_VALUE_REG    = CapSense_MEASURE_FULL_RANGE_LOW;
 235:Generated_Source\PSoC5/CapSense.c ****             CapSense_PWM_CH1_PERIOD_LO_REG    = CapSense_MEASURE_FULL_RANGE_LOW;
 236:Generated_Source\PSoC5/CapSense.c ****             CapSense_PWM_CH1_COUNTER_LO_REG   = CapSense_MEASURE_FULL_RANGE_LOW;
 237:Generated_Source\PSoC5/CapSense.c ****             
 238:Generated_Source\PSoC5/CapSense.c ****             /* Raw Counter */
 239:Generated_Source\PSoC5/CapSense.c ****             
 240:Generated_Source\PSoC5/CapSense.c ****             CapSense_RAW_CH1_ADD_VALUE_REG    = CapSense_MEASURE_FULL_RANGE_LOW;
 241:Generated_Source\PSoC5/CapSense.c ****             CapSense_RAW_CH1_PERIOD_HI_REG    = CapSense_MEASURE_FULL_RANGE_LOW;
 242:Generated_Source\PSoC5/CapSense.c ****             CapSense_RAW_CH1_PERIOD_LO_REG    = CapSense_MEASURE_FULL_RANGE_LOW;
 243:Generated_Source\PSoC5/CapSense.c ****             
 244:Generated_Source\PSoC5/CapSense.c ****         #endif  /* (CapSense_IMPLEMENTATION_CH1 == CapSense_MEASURE_IMPLEMENTATION_FF) */
 245:Generated_Source\PSoC5/CapSense.c ****     
 246:Generated_Source\PSoC5/CapSense.c ****     #endif  /* (CapSense_DESIGN_TYPE == TWO_CHANNELS_DESIGN) */
 247:Generated_Source\PSoC5/CapSense.c ****     
 248:Generated_Source\PSoC5/CapSense.c ****     /* Setup ISR */
 249:Generated_Source\PSoC5/CapSense.c ****     CyIntDisable(CapSense_IsrCH0_ISR_NUMBER);
 250:Generated_Source\PSoC5/CapSense.c ****     (void)CyIntSetVector(CapSense_IsrCH0_ISR_NUMBER, &CapSense_IsrCH0_ISR);
 251:Generated_Source\PSoC5/CapSense.c ****     CyIntSetPriority(CapSense_IsrCH0_ISR_NUMBER, CapSense_IsrCH0_ISR_PRIORITY);
 252:Generated_Source\PSoC5/CapSense.c ****     
 253:Generated_Source\PSoC5/CapSense.c ****     #if (CapSense_DESIGN_TYPE == CapSense_TWO_CHANNELS_DESIGN)
 254:Generated_Source\PSoC5/CapSense.c ****         CyIntDisable(CapSense_IsrCH1_ISR_NUMBER);
 255:Generated_Source\PSoC5/CapSense.c ****         CyIntSetVector(CapSense_IsrCH1_ISR_NUMBER, CapSense_IsrCH1_ISR);
 256:Generated_Source\PSoC5/CapSense.c ****         CyIntSetPriority(CapSense_IsrCH1_ISR_NUMBER, CapSense_IsrCH1_ISR_PRIORITY);
 257:Generated_Source\PSoC5/CapSense.c ****     #endif  /* CapSense_DESIGN_TYPE */
 258:Generated_Source\PSoC5/CapSense.c ****     
ARM GAS  C:\Users\Xwx47\AppData\Local\Temp\ccd0GhAc.s 			page 6


 259:Generated_Source\PSoC5/CapSense.c ****     /* Setup AMux Bus: Connect Cmod, Cmp, Idac */
 260:Generated_Source\PSoC5/CapSense.c ****     CapSense_AMuxCH0_Init();
 261:Generated_Source\PSoC5/CapSense.c ****     CapSense_AMuxCH0_Connect(CapSense_AMuxCH0_CMOD_CHANNEL);
 262:Generated_Source\PSoC5/CapSense.c ****     CapSense_AMuxCH0_Connect(CapSense_AMuxCH0_CMP_VP_CHANNEL);
 263:Generated_Source\PSoC5/CapSense.c ****     #if (CapSense_CURRENT_SOURCE)
 264:Generated_Source\PSoC5/CapSense.c ****         CapSense_AMuxCH0_Connect(CapSense_AMuxCH0_IDAC_CHANNEL);
 265:Generated_Source\PSoC5/CapSense.c ****     #endif  /* CapSense_CURRENT_SOURCE */
 266:Generated_Source\PSoC5/CapSense.c ****     
 267:Generated_Source\PSoC5/CapSense.c ****     #if (CapSense_DESIGN_TYPE == CapSense_TWO_CHANNELS_DESIGN) 
 268:Generated_Source\PSoC5/CapSense.c ****         CapSense_AMuxCH1_Init();
 269:Generated_Source\PSoC5/CapSense.c ****         CapSense_AMuxCH1_Connect(CapSense_AMuxCH1_CMOD_CHANNEL);
 270:Generated_Source\PSoC5/CapSense.c ****         CapSense_AMuxCH1_Connect(CapSense_AMuxCH1_CMP_VP_CHANNEL);
 271:Generated_Source\PSoC5/CapSense.c ****         #if (CapSense_CURRENT_SOURCE)
 272:Generated_Source\PSoC5/CapSense.c ****             CapSense_AMuxCH1_Connect(CapSense_AMuxCH1_IDAC_CHANNEL);
 273:Generated_Source\PSoC5/CapSense.c ****         #endif  /* CapSense_CURRENT_SOURCE */
 274:Generated_Source\PSoC5/CapSense.c ****     #endif  /* CapSense_DESIGN_TYPE */
 275:Generated_Source\PSoC5/CapSense.c ****     
 276:Generated_Source\PSoC5/CapSense.c ****     /* Int Rb */
 277:Generated_Source\PSoC5/CapSense.c ****     #if (CapSense_CURRENT_SOURCE == CapSense_EXTERNAL_RB)
 278:Generated_Source\PSoC5/CapSense.c ****         CapSense_InitRb();
 279:Generated_Source\PSoC5/CapSense.c ****     #endif /* (CapSense_CURRENT_SOURCE == CapSense_EXTERNAL_RB) */
 280:Generated_Source\PSoC5/CapSense.c ****     
 281:Generated_Source\PSoC5/CapSense.c ****     /* Enable window generation */
 282:Generated_Source\PSoC5/CapSense.c ****     CapSense_CONTROL_REG |= CapSense_CTRL_WINDOW_EN__CH0;
 283:Generated_Source\PSoC5/CapSense.c ****     #if (CapSense_DESIGN_TYPE == CapSense_TWO_CHANNELS_DESIGN)
 284:Generated_Source\PSoC5/CapSense.c ****         CapSense_CONTROL_REG |= CapSense_CTRL_WINDOW_EN__CH1;
 285:Generated_Source\PSoC5/CapSense.c ****     #endif  /* CapSense_DESIGN_TYPE */
 286:Generated_Source\PSoC5/CapSense.c ****     
 287:Generated_Source\PSoC5/CapSense.c ****     /* Initialize Cmp and Idac */
 288:Generated_Source\PSoC5/CapSense.c ****     CapSense_CompCH0_Init();
 289:Generated_Source\PSoC5/CapSense.c ****     #if (CapSense_CURRENT_SOURCE)
 290:Generated_Source\PSoC5/CapSense.c ****         CapSense_IdacCH0_Init();
 291:Generated_Source\PSoC5/CapSense.c ****         CapSense_IdacCH0_SetPolarity(CapSense_IdacCH0_IDIR);
 292:Generated_Source\PSoC5/CapSense.c ****         CapSense_IdacCH0_SetRange(CapSense_IDAC_RANGE_VALUE);
 293:Generated_Source\PSoC5/CapSense.c ****         CapSense_IdacCH0_SetValue(CapSense_TURN_OFF_IDAC);
 294:Generated_Source\PSoC5/CapSense.c ****     #endif  /* CapSense_CURRENT_SOURCE */
 295:Generated_Source\PSoC5/CapSense.c ****     
 296:Generated_Source\PSoC5/CapSense.c ****     #if (CapSense_DESIGN_TYPE == CapSense_TWO_CHANNELS_DESIGN) 
 297:Generated_Source\PSoC5/CapSense.c ****         CapSense_CompCH1_Init();
 298:Generated_Source\PSoC5/CapSense.c ****         #if (CapSense_CURRENT_SOURCE)
 299:Generated_Source\PSoC5/CapSense.c ****             CapSense_IdacCH1_Init();
 300:Generated_Source\PSoC5/CapSense.c ****             CapSense_IdacCH1_SetPolarity(CapSense_IdacCH1_IDIR);
 301:Generated_Source\PSoC5/CapSense.c ****             CapSense_IdacCH1_SetRange(CapSense_IDAC_RANGE_VALUE);
 302:Generated_Source\PSoC5/CapSense.c ****             CapSense_IdacCH1_SetValue(CapSense_TURN_OFF_IDAC);
 303:Generated_Source\PSoC5/CapSense.c ****         #endif  /* CapSense_CURRENT_SOURCE */
 304:Generated_Source\PSoC5/CapSense.c ****     #endif  /* CapSense_DESIGN_TYPE */
 305:Generated_Source\PSoC5/CapSense.c ****     
 306:Generated_Source\PSoC5/CapSense.c ****     /* Initialize Vref if as VDAC */
 307:Generated_Source\PSoC5/CapSense.c ****     #if (CapSense_VREF_OPTIONS == CapSense_VREF_VDAC)
 308:Generated_Source\PSoC5/CapSense.c ****         CapSense_VdacRefCH0_Init();
 309:Generated_Source\PSoC5/CapSense.c ****         #if (CapSense_DESIGN_TYPE == CapSense_TWO_CHANNELS_DESIGN)
 310:Generated_Source\PSoC5/CapSense.c ****             CapSense_VdacRefCH1_Init();
 311:Generated_Source\PSoC5/CapSense.c ****         #endif  /* CapSense_DESIGN_TYPE */
 312:Generated_Source\PSoC5/CapSense.c ****     #endif  /* CapSense_VREF_OPTIONS */
 313:Generated_Source\PSoC5/CapSense.c **** }
 314:Generated_Source\PSoC5/CapSense.c **** 
 315:Generated_Source\PSoC5/CapSense.c **** 
ARM GAS  C:\Users\Xwx47\AppData\Local\Temp\ccd0GhAc.s 			page 7


 316:Generated_Source\PSoC5/CapSense.c **** /*******************************************************************************
 317:Generated_Source\PSoC5/CapSense.c **** * Function Name: CapSense_Enable
 318:Generated_Source\PSoC5/CapSense.c **** ********************************************************************************
 319:Generated_Source\PSoC5/CapSense.c **** *
 320:Generated_Source\PSoC5/CapSense.c **** * Summary:
 321:Generated_Source\PSoC5/CapSense.c **** *  Enables active mode power template bits for number of component used within 
 322:Generated_Source\PSoC5/CapSense.c **** *  CapSense.
 323:Generated_Source\PSoC5/CapSense.c **** *
 324:Generated_Source\PSoC5/CapSense.c **** * Parameters:
 325:Generated_Source\PSoC5/CapSense.c **** *  None
 326:Generated_Source\PSoC5/CapSense.c **** *
 327:Generated_Source\PSoC5/CapSense.c **** * Return:
 328:Generated_Source\PSoC5/CapSense.c **** *  None
 329:Generated_Source\PSoC5/CapSense.c **** *
 330:Generated_Source\PSoC5/CapSense.c **** *******************************************************************************/
 331:Generated_Source\PSoC5/CapSense.c **** void CapSense_Enable(void) 
 332:Generated_Source\PSoC5/CapSense.c **** {
  28              		.loc 1 332 0
  29              		.cfi_startproc
  30              		@ args = 0, pretend = 0, frame = 0
  31              		@ frame_needed = 0, uses_anonymous_args = 0
  32 0000 10B5     		push	{r4, lr}
  33              		.cfi_def_cfa_offset 8
  34              		.cfi_offset 4, -8
  35              		.cfi_offset 14, -4
 333:Generated_Source\PSoC5/CapSense.c ****     uint8 enableInterrupts;
 334:Generated_Source\PSoC5/CapSense.c ****     
 335:Generated_Source\PSoC5/CapSense.c ****     enableInterrupts = CyEnterCriticalSection();
  36              		.loc 1 335 0
  37 0002 FFF7FEFF 		bl	CyEnterCriticalSection
  38              	.LVL0:
  39 0006 0446     		mov	r4, r0
  40              	.LVL1:
 336:Generated_Source\PSoC5/CapSense.c ****     
 337:Generated_Source\PSoC5/CapSense.c ****     /* Enable Prescaler */
 338:Generated_Source\PSoC5/CapSense.c ****     #if (CapSense_PRESCALER_OPTIONS == CapSense_PRESCALER_UDB)
 339:Generated_Source\PSoC5/CapSense.c ****         /* Do nothing  for UDB */
 340:Generated_Source\PSoC5/CapSense.c ****     #elif (CapSense_PRESCALER_OPTIONS == CapSense_PRESCALER_FF)
 341:Generated_Source\PSoC5/CapSense.c ****         CapSense_PRESCALER_ACT_PWRMGR_REG  |= CapSense_PRESCALER_ACT_PWR_EN;
 342:Generated_Source\PSoC5/CapSense.c ****         CapSense_PRESCALER_STBY_PWRMGR_REG |= CapSense_PRESCALER_STBY_PWR_EN;
 343:Generated_Source\PSoC5/CapSense.c ****         
 344:Generated_Source\PSoC5/CapSense.c ****     #else
 345:Generated_Source\PSoC5/CapSense.c ****         /* Do nothing = config without prescaler */
 346:Generated_Source\PSoC5/CapSense.c ****     #endif  /* (CapSense_PRESCALER_OPTIONS == CapSense_PRESCALER_UDB) */
 347:Generated_Source\PSoC5/CapSense.c ****     
 348:Generated_Source\PSoC5/CapSense.c ****     /* Enable ScanSpeed */
 349:Generated_Source\PSoC5/CapSense.c ****     CapSense_SCANSPEED_AUX_CONTROL_REG |= CapSense_SCANSPEED_CTRL_ENABLE;
  41              		.loc 1 349 0
  42 0008 144A     		ldr	r2, .L2
  43 000a 1378     		ldrb	r3, [r2]	@ zero_extendqisi2
  44 000c 43F02003 		orr	r3, r3, #32
  45 0010 1370     		strb	r3, [r2]
 350:Generated_Source\PSoC5/CapSense.c ****     
 351:Generated_Source\PSoC5/CapSense.c ****     /* Enable Measure CH0 */
 352:Generated_Source\PSoC5/CapSense.c ****     #if (CapSense_IMPLEMENTATION_CH0 == CapSense_MEASURE_IMPLEMENTATION_FF)
 353:Generated_Source\PSoC5/CapSense.c ****         /* Window PWM */
 354:Generated_Source\PSoC5/CapSense.c ****         CapSense_PWM_CH0_ACT_PWRMGR_REG  |= CapSense_PWM_CH0_ACT_PWR_EN;
ARM GAS  C:\Users\Xwx47\AppData\Local\Temp\ccd0GhAc.s 			page 8


 355:Generated_Source\PSoC5/CapSense.c ****         CapSense_PWM_CH0_STBY_PWRMGR_REG |= CapSense_PWM_CH0_STBY_PWR_EN;
 356:Generated_Source\PSoC5/CapSense.c ****         
 357:Generated_Source\PSoC5/CapSense.c ****         /* Raw Counter */
 358:Generated_Source\PSoC5/CapSense.c ****         CapSense_RAW_CH0_ACT_PWRMGR_REG  |= CapSense_RAW_CH0_ACT_PWR_EN;
 359:Generated_Source\PSoC5/CapSense.c ****         CapSense_RAW_CH0_STBY_PWRMGR_REG |= CapSense_RAW_CH0_STBY_PWR_EN;
 360:Generated_Source\PSoC5/CapSense.c ****         
 361:Generated_Source\PSoC5/CapSense.c ****     #else
 362:Generated_Source\PSoC5/CapSense.c ****         /* Window PWM -  Do nothing */
 363:Generated_Source\PSoC5/CapSense.c ****         /* Raw Counter - Do nothing */
 364:Generated_Source\PSoC5/CapSense.c ****         
 365:Generated_Source\PSoC5/CapSense.c ****     #endif  /* (CapSense_IMPLEMENTATION_CH0 == CapSense_MEASURE_IMPLEMENTATION_FF) */ 
 366:Generated_Source\PSoC5/CapSense.c ****     
 367:Generated_Source\PSoC5/CapSense.c ****     /* Enable Measure CH1*/
 368:Generated_Source\PSoC5/CapSense.c ****     #if (CapSense_DESIGN_TYPE == CapSense_TWO_CHANNELS_DESIGN)
 369:Generated_Source\PSoC5/CapSense.c ****         #if (CapSense_IMPLEMENTATION_CH1 == CapSense_MEASURE_IMPLEMENTATION_FF)
 370:Generated_Source\PSoC5/CapSense.c ****             /* Window PWM */
 371:Generated_Source\PSoC5/CapSense.c ****             CapSense_PWM_CH1_ACT_PWRMGR_REG  |= CapSense_PWM_CH1_ACT_PWR_EN;
 372:Generated_Source\PSoC5/CapSense.c ****             CapSense_PWM_CH1_STBY_PWRMGR_REG |= CapSense_PWM_CH1_STBY_PWR_EN;
 373:Generated_Source\PSoC5/CapSense.c ****             
 374:Generated_Source\PSoC5/CapSense.c ****             /* Raw Counter */
 375:Generated_Source\PSoC5/CapSense.c ****             CapSense_RAW_CH1_ACT_PWRMGR_REG  |= CapSense_RAW_CH1_ACT_PWR_EN;
 376:Generated_Source\PSoC5/CapSense.c ****             CapSense_RAW_CH1_STBY_PWRMGR_REG |= CapSense_RAW_CH1_STBY_PWR_EN;
 377:Generated_Source\PSoC5/CapSense.c ****            
 378:Generated_Source\PSoC5/CapSense.c ****         #else
 379:Generated_Source\PSoC5/CapSense.c ****         /* Window PWM -  Do nothing */
 380:Generated_Source\PSoC5/CapSense.c ****         /* Raw Counter - Do nothing */
 381:Generated_Source\PSoC5/CapSense.c ****         
 382:Generated_Source\PSoC5/CapSense.c ****         #endif  /* (CapSense_IMPLEMENTATION_CH1 == CapSense_MEASURE_IMPLEMENTATION_FF) */
 383:Generated_Source\PSoC5/CapSense.c ****     
 384:Generated_Source\PSoC5/CapSense.c ****     #endif  /* (CapSense_DESIGN_TYPE == TWO_CHANNELS_DESIGN)*/
 385:Generated_Source\PSoC5/CapSense.c ****     
 386:Generated_Source\PSoC5/CapSense.c ****     /* Enable the Clock */
 387:Generated_Source\PSoC5/CapSense.c ****     #if (CapSense_CLOCK_SOURCE == CapSense_INTERNAL_CLOCK)
 388:Generated_Source\PSoC5/CapSense.c ****        CapSense_IntClock_Enable();
  46              		.loc 1 388 0
  47 0012 FFF7FEFF 		bl	CapSense_IntClock_Start
  48              	.LVL2:
 389:Generated_Source\PSoC5/CapSense.c ****     #endif  /* CapSense_CLOCK_SOURCE */
 390:Generated_Source\PSoC5/CapSense.c ****     
 391:Generated_Source\PSoC5/CapSense.c ****     /* Setup Cmp and Idac */
 392:Generated_Source\PSoC5/CapSense.c ****     CapSense_CompCH0_Enable();
  49              		.loc 1 392 0
  50 0016 FFF7FEFF 		bl	CapSense_CompCH0_Enable
  51              	.LVL3:
 393:Generated_Source\PSoC5/CapSense.c ****     #if (CapSense_CURRENT_SOURCE)
 394:Generated_Source\PSoC5/CapSense.c ****         CapSense_IdacCH0_Enable();
  52              		.loc 1 394 0
  53 001a FFF7FEFF 		bl	CapSense_IdacCH0_Enable
  54              	.LVL4:
 395:Generated_Source\PSoC5/CapSense.c ****     #endif  /* CapSense_CURRENT_SOURCE */
 396:Generated_Source\PSoC5/CapSense.c ****     
 397:Generated_Source\PSoC5/CapSense.c ****     #if (CapSense_DESIGN_TYPE == CapSense_TWO_CHANNELS_DESIGN) 
 398:Generated_Source\PSoC5/CapSense.c ****         CapSense_CompCH1_Enable();
 399:Generated_Source\PSoC5/CapSense.c ****         #if (CapSense_CURRENT_SOURCE)
 400:Generated_Source\PSoC5/CapSense.c ****             CapSense_IdacCH1_Enable();
 401:Generated_Source\PSoC5/CapSense.c ****         #endif  /* CapSense_CURRENT_SOURCE */
 402:Generated_Source\PSoC5/CapSense.c ****     #endif  /* CapSense_DESIGN_TYPE */
ARM GAS  C:\Users\Xwx47\AppData\Local\Temp\ccd0GhAc.s 			page 9


 403:Generated_Source\PSoC5/CapSense.c ****     
 404:Generated_Source\PSoC5/CapSense.c ****     /* Enable Vref */
 405:Generated_Source\PSoC5/CapSense.c ****     #if (CapSense_VREF_OPTIONS == CapSense_VREF_VDAC)
 406:Generated_Source\PSoC5/CapSense.c ****         CapSense_VdacRefCH0_Enable();
 407:Generated_Source\PSoC5/CapSense.c ****         CapSense_VdacRefCH0_SetValue(CapSense_VdacRefCH0_DEFAULT_DATA);
 408:Generated_Source\PSoC5/CapSense.c ****         #if (CapSense_DESIGN_TYPE == CapSense_TWO_CHANNELS_DESIGN)
 409:Generated_Source\PSoC5/CapSense.c ****             CapSense_VdacRefCH1_Enable();
 410:Generated_Source\PSoC5/CapSense.c ****             CapSense_VdacRefCH1_SetValue(CapSense_VdacRefCH1_DEFAULT_DATA);
 411:Generated_Source\PSoC5/CapSense.c ****         #endif  /* (CapSense_DESIGN_TYPE == CapSense_TWO_CHANNELS_DESIGN) */
 412:Generated_Source\PSoC5/CapSense.c ****     #else
 413:Generated_Source\PSoC5/CapSense.c ****         /* Enable CapSense Buf */
 414:Generated_Source\PSoC5/CapSense.c ****         CapSense_BufCH0_STBY_PWRMGR_REG |= CapSense_BufCH0_STBY_PWR_EN;
  55              		.loc 1 414 0
  56 001e 104A     		ldr	r2, .L2+4
 415:Generated_Source\PSoC5/CapSense.c ****         CapSense_BufCH0_ACT_PWRMGR_REG  |= CapSense_BufCH0_ACT_PWR_EN;
 416:Generated_Source\PSoC5/CapSense.c ****         
 417:Generated_Source\PSoC5/CapSense.c ****         #if (CapSense_DESIGN_TYPE == CapSense_TWO_CHANNELS_DESIGN)
 418:Generated_Source\PSoC5/CapSense.c ****             CapSense_BufCH1_STBY_PWRMGR_REG |= CapSense_BufCH1_STBY_PWR_EN;
 419:Generated_Source\PSoC5/CapSense.c ****             CapSense_BufCH1_ACT_PWRMGR_REG  |= CapSense_BufCH1_ACT_PWR_EN;
 420:Generated_Source\PSoC5/CapSense.c ****         #endif  /* (CapSense_DESIGN_TYPE == CapSense_TWO_CHANNELS_DESIGN) */
 421:Generated_Source\PSoC5/CapSense.c ****     #endif  /* (CapSense_VREF_VDAC == CapSense_VREF_OPTIONS) */
 422:Generated_Source\PSoC5/CapSense.c ****     
 423:Generated_Source\PSoC5/CapSense.c ****     /* Set reference on AMux Bus */
 424:Generated_Source\PSoC5/CapSense.c ****     #if (CapSense_VREF_OPTIONS == CapSense_VREF_VDAC)
 425:Generated_Source\PSoC5/CapSense.c ****         /* Connect Vdac to AMux Bus */
 426:Generated_Source\PSoC5/CapSense.c ****         CapSense_AMuxCH0_Connect(CapSense_AMuxCH0_VREF_CHANNEL);
 427:Generated_Source\PSoC5/CapSense.c ****         #if (CapSense_DESIGN_TYPE == CapSense_TWO_CHANNELS_DESIGN)
 428:Generated_Source\PSoC5/CapSense.c ****             CapSense_AMuxCH1_Connect(CapSense_AMuxCH1_VREF_CHANNEL);
 429:Generated_Source\PSoC5/CapSense.c ****         #endif  /* (CapSense_DESIGN_TYPE == CapSense_TWO_CHANNELS_DESIGN) */
 430:Generated_Source\PSoC5/CapSense.c ****         
 431:Generated_Source\PSoC5/CapSense.c ****     #else
 432:Generated_Source\PSoC5/CapSense.c ****         /* Enable CapSense Buf */
 433:Generated_Source\PSoC5/CapSense.c ****         CapSense_BufCH0_CAPS_CFG0_REG |= CapSense_CSBUF_ENABLE;
 434:Generated_Source\PSoC5/CapSense.c ****         
 435:Generated_Source\PSoC5/CapSense.c ****         #if (CapSense_DESIGN_TYPE == CapSense_TWO_CHANNELS_DESIGN)
 436:Generated_Source\PSoC5/CapSense.c ****             CapSense_BufCH1_CAPS_CFG0_REG |= CapSense_CSBUF_ENABLE;
 437:Generated_Source\PSoC5/CapSense.c ****         #endif  /* (CapSense_DESIGN_TYPE == CapSense_TWO_CHANNELS_DESIGN) */
 438:Generated_Source\PSoC5/CapSense.c ****     #endif  /* (CapSense_VREF_VDAC == CapSense_VREF_OPTIONS)*/
 439:Generated_Source\PSoC5/CapSense.c ****     
 440:Generated_Source\PSoC5/CapSense.c ****     CyExitCriticalSection(enableInterrupts);
  57              		.loc 1 440 0
  58 0020 2046     		mov	r0, r4
 414:Generated_Source\PSoC5/CapSense.c ****         CapSense_BufCH0_ACT_PWRMGR_REG  |= CapSense_BufCH0_ACT_PWR_EN;
  59              		.loc 1 414 0
  60 0022 1378     		ldrb	r3, [r2]	@ zero_extendqisi2
  61 0024 43F01003 		orr	r3, r3, #16
  62 0028 1370     		strb	r3, [r2]
 415:Generated_Source\PSoC5/CapSense.c ****         CapSense_BufCH0_ACT_PWRMGR_REG  |= CapSense_BufCH0_ACT_PWR_EN;
  63              		.loc 1 415 0
  64 002a 12F8103C 		ldrb	r3, [r2, #-16]	@ zero_extendqisi2
  65 002e 43F01003 		orr	r3, r3, #16
  66 0032 02F8103C 		strb	r3, [r2, #-16]
 433:Generated_Source\PSoC5/CapSense.c ****         
  67              		.loc 1 433 0
  68 0036 02F5A552 		add	r2, r2, #5280
  69 003a 1532     		adds	r2, r2, #21
  70 003c 1378     		ldrb	r3, [r2]	@ zero_extendqisi2
ARM GAS  C:\Users\Xwx47\AppData\Local\Temp\ccd0GhAc.s 			page 10


  71 003e 43F00103 		orr	r3, r3, #1
  72 0042 1370     		strb	r3, [r2]
  73              		.loc 1 440 0
  74 0044 FFF7FEFF 		bl	CyExitCriticalSection
  75              	.LVL5:
 441:Generated_Source\PSoC5/CapSense.c ****     
 442:Generated_Source\PSoC5/CapSense.c ****     /* Enable interrupt */
 443:Generated_Source\PSoC5/CapSense.c ****     CyIntEnable(CapSense_IsrCH0_ISR_NUMBER);
  76              		.loc 1 443 0
  77 0048 064B     		ldr	r3, .L2+8
  78 004a 0122     		movs	r2, #1
  79 004c 1A60     		str	r2, [r3]
 444:Generated_Source\PSoC5/CapSense.c ****     #if (CapSense_DESIGN_TYPE == CapSense_TWO_CHANNELS_DESIGN) 
 445:Generated_Source\PSoC5/CapSense.c ****         CyIntEnable(CapSense_IsrCH1_ISR_NUMBER);
 446:Generated_Source\PSoC5/CapSense.c ****     #endif  /* CapSense_DESIGN_TYPE */
 447:Generated_Source\PSoC5/CapSense.c ****     
 448:Generated_Source\PSoC5/CapSense.c ****     /* Set CapSense Enable state */
 449:Generated_Source\PSoC5/CapSense.c ****     CapSense_CONTROL_REG |= CapSense_CTRL_CAPSENSE_EN;
  80              		.loc 1 449 0
  81 004e 064A     		ldr	r2, .L2+12
  82 0050 1378     		ldrb	r3, [r2]	@ zero_extendqisi2
  83 0052 43F08003 		orr	r3, r3, #128
  84 0056 1370     		strb	r3, [r2]
  85 0058 10BD     		pop	{r4, pc}
  86              	.LVL6:
  87              	.L3:
  88 005a 00BF     		.align	2
  89              	.L2:
  90 005c 9A640040 		.word	1073767578
  91 0060 BB430040 		.word	1073759163
  92 0064 00E100E0 		.word	-536813312
  93 0068 79640040 		.word	1073767545
  94              		.cfi_endproc
  95              	.LFE1:
  96              		.size	CapSense_Enable, .-CapSense_Enable
  97              		.section	.text.CapSense_FindNextSensor,"ax",%progbits
  98              		.align	1
  99              		.global	CapSense_FindNextSensor
 100              		.thumb
 101              		.thumb_func
 102              		.type	CapSense_FindNextSensor, %function
 103              	CapSense_FindNextSensor:
 104              	.LFB4:
 450:Generated_Source\PSoC5/CapSense.c **** }
 451:Generated_Source\PSoC5/CapSense.c **** 
 452:Generated_Source\PSoC5/CapSense.c **** 
 453:Generated_Source\PSoC5/CapSense.c **** /*******************************************************************************
 454:Generated_Source\PSoC5/CapSense.c **** * Function Name: CapSense_Start
 455:Generated_Source\PSoC5/CapSense.c **** ********************************************************************************
 456:Generated_Source\PSoC5/CapSense.c **** *
 457:Generated_Source\PSoC5/CapSense.c **** * Summary:
 458:Generated_Source\PSoC5/CapSense.c **** *  Initializes registers and starts the CSD method of CapSense component. Reset 
 459:Generated_Source\PSoC5/CapSense.c **** *  all sensors to an inactive state. Enables interrupts for sensors scanning.
 460:Generated_Source\PSoC5/CapSense.c **** *  When Auto Tuning (SmartSense) mode is selected the tuning procedure is 
 461:Generated_Source\PSoC5/CapSense.c **** *  applied for all sensors.
 462:Generated_Source\PSoC5/CapSense.c **** *
 463:Generated_Source\PSoC5/CapSense.c **** * Parameters:
ARM GAS  C:\Users\Xwx47\AppData\Local\Temp\ccd0GhAc.s 			page 11


 464:Generated_Source\PSoC5/CapSense.c **** *  None
 465:Generated_Source\PSoC5/CapSense.c **** *
 466:Generated_Source\PSoC5/CapSense.c **** * Return:
 467:Generated_Source\PSoC5/CapSense.c **** *  None
 468:Generated_Source\PSoC5/CapSense.c **** *
 469:Generated_Source\PSoC5/CapSense.c **** * Global Variables:
 470:Generated_Source\PSoC5/CapSense.c **** *  CapSense_initVar - used to check initial configuration, modified on 
 471:Generated_Source\PSoC5/CapSense.c **** *  first function call.
 472:Generated_Source\PSoC5/CapSense.c **** *  CapSense_lowLevelTuningDone - used to notify the Tuner GUI that 
 473:Generated_Source\PSoC5/CapSense.c **** *  tuning of scanning parameters are done.
 474:Generated_Source\PSoC5/CapSense.c **** *
 475:Generated_Source\PSoC5/CapSense.c **** * Reentrant:
 476:Generated_Source\PSoC5/CapSense.c **** *  No
 477:Generated_Source\PSoC5/CapSense.c **** *
 478:Generated_Source\PSoC5/CapSense.c **** * Note:
 479:Generated_Source\PSoC5/CapSense.c **** *  All widgets are enabled by default except proximity widgets. Proximity widgets 
 480:Generated_Source\PSoC5/CapSense.c **** *  must be manually enabled as their long scan time is incompatible 
 481:Generated_Source\PSoC5/CapSense.c **** *  with the fast response required of other widget types. 
 482:Generated_Source\PSoC5/CapSense.c **** *
 483:Generated_Source\PSoC5/CapSense.c **** *******************************************************************************/
 484:Generated_Source\PSoC5/CapSense.c **** void CapSense_Start(void)  
 485:Generated_Source\PSoC5/CapSense.c **** {
 486:Generated_Source\PSoC5/CapSense.c ****     if (CapSense_initVar == 0u)
 487:Generated_Source\PSoC5/CapSense.c ****     {
 488:Generated_Source\PSoC5/CapSense.c ****         CapSense_Init();
 489:Generated_Source\PSoC5/CapSense.c ****         CapSense_initVar = 1u;
 490:Generated_Source\PSoC5/CapSense.c ****     }
 491:Generated_Source\PSoC5/CapSense.c ****     CapSense_Enable();
 492:Generated_Source\PSoC5/CapSense.c ****     
 493:Generated_Source\PSoC5/CapSense.c ****     /* AutoTunning start */
 494:Generated_Source\PSoC5/CapSense.c ****     #if (CapSense_TUNING_METHOD == CapSense_AUTO_TUNING)
 495:Generated_Source\PSoC5/CapSense.c ****         /* AutoTune by sensor or pair of sensor basis */
 496:Generated_Source\PSoC5/CapSense.c ****         CapSense_AutoTune();
 497:Generated_Source\PSoC5/CapSense.c ****         CapSense_lowLevelTuningDone = 1u;
 498:Generated_Source\PSoC5/CapSense.c ****     #endif /* (CapSense_TUNING_METHOD == CapSense_AUTO_TUNING) */
 499:Generated_Source\PSoC5/CapSense.c **** }
 500:Generated_Source\PSoC5/CapSense.c **** 
 501:Generated_Source\PSoC5/CapSense.c **** 
 502:Generated_Source\PSoC5/CapSense.c **** /*******************************************************************************
 503:Generated_Source\PSoC5/CapSense.c **** * Function Name: CapSense_Stop
 504:Generated_Source\PSoC5/CapSense.c **** ********************************************************************************
 505:Generated_Source\PSoC5/CapSense.c **** *
 506:Generated_Source\PSoC5/CapSense.c **** * Summary:
 507:Generated_Source\PSoC5/CapSense.c **** *  Stops the sensors scanner, disables internal interrupts, and resets all 
 508:Generated_Source\PSoC5/CapSense.c **** *  sensors to an inactive state. Disables Active mode power template bits for 
 509:Generated_Source\PSoC5/CapSense.c **** *  number of component used within CapSense.
 510:Generated_Source\PSoC5/CapSense.c **** *
 511:Generated_Source\PSoC5/CapSense.c **** * Parameters:
 512:Generated_Source\PSoC5/CapSense.c **** *  None
 513:Generated_Source\PSoC5/CapSense.c **** *
 514:Generated_Source\PSoC5/CapSense.c **** * Return:
 515:Generated_Source\PSoC5/CapSense.c **** *  None
 516:Generated_Source\PSoC5/CapSense.c **** *
 517:Generated_Source\PSoC5/CapSense.c **** * Side Effects:
 518:Generated_Source\PSoC5/CapSense.c **** *  This function should be called after scans will be completed.
 519:Generated_Source\PSoC5/CapSense.c **** *
 520:Generated_Source\PSoC5/CapSense.c **** *******************************************************************************/
ARM GAS  C:\Users\Xwx47\AppData\Local\Temp\ccd0GhAc.s 			page 12


 521:Generated_Source\PSoC5/CapSense.c **** void CapSense_Stop(void) 
 522:Generated_Source\PSoC5/CapSense.c **** {
 523:Generated_Source\PSoC5/CapSense.c ****     /* Stop Capsensing */
 524:Generated_Source\PSoC5/CapSense.c ****     CapSense_CONTROL_REG &= (uint8)(~CapSense_CTRL_START);
 525:Generated_Source\PSoC5/CapSense.c ****     
 526:Generated_Source\PSoC5/CapSense.c ****     /* Disable interrupt */
 527:Generated_Source\PSoC5/CapSense.c ****     CyIntDisable(CapSense_IsrCH0_ISR_NUMBER);
 528:Generated_Source\PSoC5/CapSense.c ****     #if (CapSense_DESIGN_TYPE == CapSense_TWO_CHANNELS_DESIGN) 
 529:Generated_Source\PSoC5/CapSense.c ****         CyIntDisable(CapSense_IsrCH1_ISR_NUMBER);
 530:Generated_Source\PSoC5/CapSense.c ****     #endif  /* CapSense_DESIGN_TYPE */
 531:Generated_Source\PSoC5/CapSense.c ****     
 532:Generated_Source\PSoC5/CapSense.c ****     /* Clear all sensors */
 533:Generated_Source\PSoC5/CapSense.c ****     CapSense_ClearSensors();
 534:Generated_Source\PSoC5/CapSense.c ****     
 535:Generated_Source\PSoC5/CapSense.c ****     /* Disable Prescaler */
 536:Generated_Source\PSoC5/CapSense.c ****     #if (CapSense_PRESCALER_OPTIONS == CapSense_PRESCALER_UDB)
 537:Generated_Source\PSoC5/CapSense.c ****         /* Do nothing  for UDB */
 538:Generated_Source\PSoC5/CapSense.c ****     #elif (CapSense_PRESCALER_OPTIONS == CapSense_PRESCALER_FF)        
 539:Generated_Source\PSoC5/CapSense.c ****         CapSense_PRESCALER_ACT_PWRMGR_REG  &= ~CapSense_PRESCALER_ACT_PWR_EN;
 540:Generated_Source\PSoC5/CapSense.c ****         CapSense_PRESCALER_STBY_PWRMGR_REG &= ~CapSense_PRESCALER_STBY_PWR_EN;
 541:Generated_Source\PSoC5/CapSense.c ****         
 542:Generated_Source\PSoC5/CapSense.c ****     #else
 543:Generated_Source\PSoC5/CapSense.c ****         /* Do nothing = config without prescaler */
 544:Generated_Source\PSoC5/CapSense.c ****     #endif  /* (CapSense_PRESCALER_OPTIONS == CapSense_PRESCALER_UDB) */
 545:Generated_Source\PSoC5/CapSense.c ****     
 546:Generated_Source\PSoC5/CapSense.c ****     /* Disable ScanSpeed */
 547:Generated_Source\PSoC5/CapSense.c ****     CapSense_SCANSPEED_AUX_CONTROL_REG &= (uint8)(~CapSense_SCANSPEED_CTRL_ENABLE);
 548:Generated_Source\PSoC5/CapSense.c ****     
 549:Generated_Source\PSoC5/CapSense.c ****     /* Disable Measure CH0 */
 550:Generated_Source\PSoC5/CapSense.c ****     #if (CapSense_IMPLEMENTATION_CH0 == CapSense_MEASURE_IMPLEMENTATION_FF)
 551:Generated_Source\PSoC5/CapSense.c ****         /* Window PWM */
 552:Generated_Source\PSoC5/CapSense.c ****         CapSense_PWM_CH0_ACT_PWRMGR_REG  &= ~CapSense_PWM_CH0_ACT_PWR_EN;
 553:Generated_Source\PSoC5/CapSense.c ****         CapSense_PWM_CH0_STBY_PWRMGR_REG &= ~CapSense_PWM_CH0_STBY_PWR_EN;
 554:Generated_Source\PSoC5/CapSense.c **** 
 555:Generated_Source\PSoC5/CapSense.c ****         /* Raw Counter */
 556:Generated_Source\PSoC5/CapSense.c ****         CapSense_RAW_CH0_ACT_PWRMGR_REG  &= ~CapSense_RAW_CH0_ACT_PWR_EN;
 557:Generated_Source\PSoC5/CapSense.c ****         CapSense_RAW_CH0_STBY_PWRMGR_REG &= ~CapSense_RAW_CH0_STBY_PWR_EN;
 558:Generated_Source\PSoC5/CapSense.c **** 
 559:Generated_Source\PSoC5/CapSense.c ****     #else
 560:Generated_Source\PSoC5/CapSense.c ****         /* Window PWM -  Do nothing */
 561:Generated_Source\PSoC5/CapSense.c ****         /* Raw Counter - Do nothing */
 562:Generated_Source\PSoC5/CapSense.c ****         
 563:Generated_Source\PSoC5/CapSense.c ****     #endif  /* (CapSense_IMPLEMENTATION_CH0 == CapSense_MEASURE_IMPLEMENTATION_FF) */ 
 564:Generated_Source\PSoC5/CapSense.c ****     
 565:Generated_Source\PSoC5/CapSense.c ****     /* Disable Measure CH1 */
 566:Generated_Source\PSoC5/CapSense.c ****     #if (CapSense_DESIGN_TYPE == CapSense_TWO_CHANNELS_DESIGN)
 567:Generated_Source\PSoC5/CapSense.c ****         #if (CapSense_IMPLEMENTATION_CH1 == CapSense_MEASURE_IMPLEMENTATION_FF)
 568:Generated_Source\PSoC5/CapSense.c ****             /* Window PWM */
 569:Generated_Source\PSoC5/CapSense.c ****             CapSense_PWM_CH1_ACT_PWRMGR_REG  &= ~CapSense_PWM_CH1_ACT_PWR_EN;
 570:Generated_Source\PSoC5/CapSense.c ****             CapSense_PWM_CH1_STBY_PWRMGR_REG &= ~CapSense_PWM_CH1_STBY_PWR_EN;
 571:Generated_Source\PSoC5/CapSense.c ****     
 572:Generated_Source\PSoC5/CapSense.c ****             /* Raw Counter */
 573:Generated_Source\PSoC5/CapSense.c ****             CapSense_RAW_CH1_ACT_PWRMGR_REG  &= ~CapSense_RAW_CH1_ACT_PWR_EN;
 574:Generated_Source\PSoC5/CapSense.c ****             CapSense_RAW_CH1_STBY_PWRMGR_REG &= ~CapSense_RAW_CH1_STBY_PWR_EN;
 575:Generated_Source\PSoC5/CapSense.c ****            
 576:Generated_Source\PSoC5/CapSense.c ****         #else
 577:Generated_Source\PSoC5/CapSense.c ****         /* Window PWM -  Do nothing */
ARM GAS  C:\Users\Xwx47\AppData\Local\Temp\ccd0GhAc.s 			page 13


 578:Generated_Source\PSoC5/CapSense.c ****         /* Raw Counter - Do nothing */
 579:Generated_Source\PSoC5/CapSense.c ****         
 580:Generated_Source\PSoC5/CapSense.c ****         #endif  /* (CapSense_IMPLEMENTATION_CH1 == CapSense_MEASURE_IMPLEMENTATION_FF) */
 581:Generated_Source\PSoC5/CapSense.c ****     
 582:Generated_Source\PSoC5/CapSense.c ****     #endif  /* (CapSense_DESIGN_TYPE == TWO_CHANNELS_DESIGN)*/
 583:Generated_Source\PSoC5/CapSense.c ****     
 584:Generated_Source\PSoC5/CapSense.c ****     /* Disable the Clock */
 585:Generated_Source\PSoC5/CapSense.c ****     #if (CapSense_CLOCK_SOURCE == CapSense_INTERNAL_CLOCK)
 586:Generated_Source\PSoC5/CapSense.c ****        CapSense_IntClock_Stop();
 587:Generated_Source\PSoC5/CapSense.c ****     #endif  /* CapSense_CLOCK_SOURCE */
 588:Generated_Source\PSoC5/CapSense.c ****     
 589:Generated_Source\PSoC5/CapSense.c ****     /* Disable power from Cmp and Idac */
 590:Generated_Source\PSoC5/CapSense.c ****     CapSense_CompCH0_Stop();
 591:Generated_Source\PSoC5/CapSense.c ****     #if (CapSense_CURRENT_SOURCE)
 592:Generated_Source\PSoC5/CapSense.c ****         CapSense_IdacCH0_Stop();
 593:Generated_Source\PSoC5/CapSense.c ****     #endif  /* CapSense_CURRENT_SOURCE */
 594:Generated_Source\PSoC5/CapSense.c ****     
 595:Generated_Source\PSoC5/CapSense.c ****     #if (CapSense_DESIGN_TYPE == CapSense_TWO_CHANNELS_DESIGN) 
 596:Generated_Source\PSoC5/CapSense.c ****         CapSense_CompCH1_Stop();
 597:Generated_Source\PSoC5/CapSense.c ****         #if (CapSense_CURRENT_SOURCE)
 598:Generated_Source\PSoC5/CapSense.c ****             CapSense_IdacCH1_Stop();
 599:Generated_Source\PSoC5/CapSense.c ****         #endif  /* CapSense_CURRENT_SOURCE */
 600:Generated_Source\PSoC5/CapSense.c ****     #endif  /* CapSense_DESIGN_TYPE */    
 601:Generated_Source\PSoC5/CapSense.c ****     
 602:Generated_Source\PSoC5/CapSense.c ****     /* Disable Vref if as VDAC */
 603:Generated_Source\PSoC5/CapSense.c ****     #if (CapSense_VREF_OPTIONS == CapSense_VREF_VDAC)
 604:Generated_Source\PSoC5/CapSense.c ****         CapSense_VdacRefCH0_Stop();
 605:Generated_Source\PSoC5/CapSense.c ****         #if (CapSense_DESIGN_TYPE == CapSense_TWO_CHANNELS_DESIGN)
 606:Generated_Source\PSoC5/CapSense.c ****             CapSense_VdacRefCH1_Stop();
 607:Generated_Source\PSoC5/CapSense.c ****         #endif  /* CapSense_DESIGN_TYPE */
 608:Generated_Source\PSoC5/CapSense.c ****     #endif  /* CapSense_VREF_OPTIONS */
 609:Generated_Source\PSoC5/CapSense.c **** 
 610:Generated_Source\PSoC5/CapSense.c ****     #if (CapSense_VREF_VDAC == CapSense_VREF_OPTIONS)
 611:Generated_Source\PSoC5/CapSense.c ****         /* The Idac turn off before */
 612:Generated_Source\PSoC5/CapSense.c ****     #else
 613:Generated_Source\PSoC5/CapSense.c ****         /* Enable CapSense Buf */
 614:Generated_Source\PSoC5/CapSense.c ****         CapSense_BufCH0_CAPS_CFG0_REG &= (uint8)(~CapSense_CSBUF_ENABLE);
 615:Generated_Source\PSoC5/CapSense.c ****         CapSense_BufCH0_ACT_PWRMGR_REG &= (uint8)(~CapSense_BufCH0_ACT_PWR_EN);
 616:Generated_Source\PSoC5/CapSense.c ****         CapSense_BufCH0_STBY_PWRMGR_REG &= (uint8)(~CapSense_BufCH0_STBY_PWR_EN);
 617:Generated_Source\PSoC5/CapSense.c ****         
 618:Generated_Source\PSoC5/CapSense.c ****         #if (CapSense_DESIGN_TYPE == CapSense_TWO_CHANNELS_DESIGN)
 619:Generated_Source\PSoC5/CapSense.c ****             CapSense_BufCH1_CAPS_CFG0_REG &= (uint8)(~CapSense_CSBUF_ENABLE);
 620:Generated_Source\PSoC5/CapSense.c ****             CapSense_BufCH1_ACT_PWRMGR_REG &= (uint8)(~CapSense_BufCH1_ACT_PWR_EN);
 621:Generated_Source\PSoC5/CapSense.c ****             CapSense_BufCH1_STBY_PWRMGR_REG &= (uint8)(~CapSense_BufCH1_STBY_PWR_EN);
 622:Generated_Source\PSoC5/CapSense.c ****         #endif  /*(CapSense_DESIGN_TYPE == CapSense_TWO_CHANNELS_DESIGN) */
 623:Generated_Source\PSoC5/CapSense.c ****     #endif  /* (CapSense_VREF_VDAC == CapSense_VREF_OPTIONS) */
 624:Generated_Source\PSoC5/CapSense.c ****     
 625:Generated_Source\PSoC5/CapSense.c ****     /* Set CapSense Disable state */
 626:Generated_Source\PSoC5/CapSense.c ****     CapSense_CONTROL_REG &= (uint8)(~CapSense_CTRL_CAPSENSE_EN);
 627:Generated_Source\PSoC5/CapSense.c **** }
 628:Generated_Source\PSoC5/CapSense.c **** 
 629:Generated_Source\PSoC5/CapSense.c **** 
 630:Generated_Source\PSoC5/CapSense.c **** #if (CapSense_DESIGN_TYPE == CapSense_ONE_CHANNEL_DESIGN)
 631:Generated_Source\PSoC5/CapSense.c ****     /*******************************************************************************
 632:Generated_Source\PSoC5/CapSense.c ****     * Function Name: CapSense_FindNextSensor
 633:Generated_Source\PSoC5/CapSense.c ****     ********************************************************************************
 634:Generated_Source\PSoC5/CapSense.c ****     *
ARM GAS  C:\Users\Xwx47\AppData\Local\Temp\ccd0GhAc.s 			page 14


 635:Generated_Source\PSoC5/CapSense.c ****     * Summary:
 636:Generated_Source\PSoC5/CapSense.c ****     *  Finds next sensor to scan. 
 637:Generated_Source\PSoC5/CapSense.c ****     *
 638:Generated_Source\PSoC5/CapSense.c ****     * Parameters:
 639:Generated_Source\PSoC5/CapSense.c ****     *  snsIndex:  Current index of sensor.
 640:Generated_Source\PSoC5/CapSense.c ****     *
 641:Generated_Source\PSoC5/CapSense.c ****     * Return:
 642:Generated_Source\PSoC5/CapSense.c ****     *  Returns the next sensor index to scan.
 643:Generated_Source\PSoC5/CapSense.c ****     *
 644:Generated_Source\PSoC5/CapSense.c ****     * Global Variables:
 645:Generated_Source\PSoC5/CapSense.c ****     *  CapSense_sensorEnableMask[ ] - used to store bit masks of enabled 
 646:Generated_Source\PSoC5/CapSense.c ****     *  sensors.
 647:Generated_Source\PSoC5/CapSense.c ****     *  CapSense_sensorEnableMask[0] contains the masked bits for sensors 0
 648:Generated_Source\PSoC5/CapSense.c ****     *  through 7 (sensor 0 is bit 0, sensor 1 is bit 1).
 649:Generated_Source\PSoC5/CapSense.c ****     *  CapSense_sensorEnableMask[1] contains the masked bits for sensors 
 650:Generated_Source\PSoC5/CapSense.c ****     *  8 through 15 (if needed), and so on.
 651:Generated_Source\PSoC5/CapSense.c ****     *    0 - sensor doesn't scan by CapSense_ScanEnabledWidgets().
 652:Generated_Source\PSoC5/CapSense.c ****     *    1 - sensor scans by CapSense_ScanEnabledWidgets().
 653:Generated_Source\PSoC5/CapSense.c ****     *
 654:Generated_Source\PSoC5/CapSense.c ****     * Note: 
 655:Generated_Source\PSoC5/CapSense.c ****     *  This function has effect on current scanning scanning and should not
 656:Generated_Source\PSoC5/CapSense.c ****     *  be used outisde of component.
 657:Generated_Source\PSoC5/CapSense.c ****     *
 658:Generated_Source\PSoC5/CapSense.c ****     *******************************************************************************/
 659:Generated_Source\PSoC5/CapSense.c ****     uint8 CapSense_FindNextSensor(uint8 snsIndex) CYREENTRANT
 660:Generated_Source\PSoC5/CapSense.c ****     {
 105              		.loc 1 660 0
 106              		.cfi_startproc
 107              		@ args = 0, pretend = 0, frame = 0
 108              		@ frame_needed = 0, uses_anonymous_args = 0
 109              	.LVL7:
 661:Generated_Source\PSoC5/CapSense.c ****         uint8 pos;
 662:Generated_Source\PSoC5/CapSense.c ****         uint8 enMask;
 663:Generated_Source\PSoC5/CapSense.c ****         
 664:Generated_Source\PSoC5/CapSense.c ****         /* Check if sensor enabled */
 665:Generated_Source\PSoC5/CapSense.c ****         do
 666:Generated_Source\PSoC5/CapSense.c ****         {
 667:Generated_Source\PSoC5/CapSense.c ****             /* Proceed with the next sensor */
 668:Generated_Source\PSoC5/CapSense.c ****             snsIndex++;
 669:Generated_Source\PSoC5/CapSense.c ****             if(snsIndex == CapSense_TOTAL_SENSOR_COUNT)
 670:Generated_Source\PSoC5/CapSense.c ****             {
 671:Generated_Source\PSoC5/CapSense.c ****                 break;
 672:Generated_Source\PSoC5/CapSense.c ****             }
 673:Generated_Source\PSoC5/CapSense.c ****             pos = (snsIndex >> 3u);
 674:Generated_Source\PSoC5/CapSense.c ****             enMask = 0x01u << (snsIndex & 0x07u);
 675:Generated_Source\PSoC5/CapSense.c ****         }    
 676:Generated_Source\PSoC5/CapSense.c ****         while((CapSense_sensorEnableMask[pos] & enMask) == 0u);
 110              		.loc 1 676 0
 111 0000 0749     		ldr	r1, .L14
 660:Generated_Source\PSoC5/CapSense.c ****         uint8 pos;
 112              		.loc 1 660 0
 113 0002 10B5     		push	{r4, lr}
 114              		.cfi_def_cfa_offset 8
 115              		.cfi_offset 4, -8
 116              		.cfi_offset 14, -4
 117              		.loc 1 676 0
 118 0004 0124     		movs	r4, #1
ARM GAS  C:\Users\Xwx47\AppData\Local\Temp\ccd0GhAc.s 			page 15


 119              	.L6:
 668:Generated_Source\PSoC5/CapSense.c ****             if(snsIndex == CapSense_TOTAL_SENSOR_COUNT)
 120              		.loc 1 668 0
 121 0006 0130     		adds	r0, r0, #1
 122              	.LVL8:
 123 0008 C0B2     		uxtb	r0, r0
 124              	.LVL9:
 669:Generated_Source\PSoC5/CapSense.c ****             {
 125              		.loc 1 669 0
 126 000a 0328     		cmp	r0, #3
 127 000c 07D0     		beq	.L5
 128              	.LVL10:
 129              		.loc 1 676 0
 130 000e C208     		lsrs	r2, r0, #3
 131 0010 00F00703 		and	r3, r0, #7
 132 0014 8A5C     		ldrb	r2, [r1, r2]	@ zero_extendqisi2
 133 0016 04FA03F3 		lsl	r3, r4, r3
 134 001a 1342     		tst	r3, r2
 135 001c F3D0     		beq	.L6
 136              	.LVL11:
 137              	.L5:
 677:Generated_Source\PSoC5/CapSense.c ****         
 678:Generated_Source\PSoC5/CapSense.c ****         return snsIndex;
 679:Generated_Source\PSoC5/CapSense.c ****     }
 138              		.loc 1 679 0
 139 001e 10BD     		pop	{r4, pc}
 140              	.L15:
 141              		.align	2
 142              	.L14:
 143 0020 00000000 		.word	.LANCHOR0
 144              		.cfi_endproc
 145              	.LFE4:
 146              		.size	CapSense_FindNextSensor, .-CapSense_FindNextSensor
 147              		.section	.text.CapSense_IsBusy,"ax",%progbits
 148              		.align	1
 149              		.global	CapSense_IsBusy
 150              		.thumb
 151              		.thumb_func
 152              		.type	CapSense_IsBusy, %function
 153              	CapSense_IsBusy:
 154              	.LFB8:
 680:Generated_Source\PSoC5/CapSense.c ****  #endif  /* CapSense_DESIGN_TYPE == CapSense_ONE_CHANNEL_DESIGN */
 681:Generated_Source\PSoC5/CapSense.c ****  
 682:Generated_Source\PSoC5/CapSense.c ****  
 683:Generated_Source\PSoC5/CapSense.c **** #if (CapSense_DESIGN_TYPE == CapSense_TWO_CHANNELS_DESIGN)
 684:Generated_Source\PSoC5/CapSense.c ****     /*******************************************************************************
 685:Generated_Source\PSoC5/CapSense.c ****     * Function Name: CapSense_FindNextPair
 686:Generated_Source\PSoC5/CapSense.c ****     ********************************************************************************
 687:Generated_Source\PSoC5/CapSense.c ****     *
 688:Generated_Source\PSoC5/CapSense.c ****     * Summary:
 689:Generated_Source\PSoC5/CapSense.c ****     *  Finds next pair or sensor to scan. Sets condition bits to skip scanning.
 690:Generated_Source\PSoC5/CapSense.c ****     *  
 691:Generated_Source\PSoC5/CapSense.c ****     * Parameters:
 692:Generated_Source\PSoC5/CapSense.c ****     *  snsIndex:  Current index pair of sensors.
 693:Generated_Source\PSoC5/CapSense.c ****     *
 694:Generated_Source\PSoC5/CapSense.c ****     * Return:
 695:Generated_Source\PSoC5/CapSense.c ****     *  Returns the next pair of sensors index to scan.
ARM GAS  C:\Users\Xwx47\AppData\Local\Temp\ccd0GhAc.s 			page 16


 696:Generated_Source\PSoC5/CapSense.c ****     *
 697:Generated_Source\PSoC5/CapSense.c ****     * Global Variables:
 698:Generated_Source\PSoC5/CapSense.c ****     *  CapSense_sensorEnableMask[ ] - used to store bit masks of enabled 
 699:Generated_Source\PSoC5/CapSense.c ****     *  sensors.
 700:Generated_Source\PSoC5/CapSense.c ****     *  CapSense_sensorEnableMask[0] contains the masked bits for sensors 0
 701:Generated_Source\PSoC5/CapSense.c ****     *  through 7 (sensor 0 is bit 0, sensor 1 is bit 1).
 702:Generated_Source\PSoC5/CapSense.c ****     *  CapSense_sensorEnableMask[1] contains the masked bits for sensors 
 703:Generated_Source\PSoC5/CapSense.c ****     *  8 through 15 (if needed), and so on.
 704:Generated_Source\PSoC5/CapSense.c ****     *    0 - sensor doesn't scan by CapSense_ScanEnabledWidgets().
 705:Generated_Source\PSoC5/CapSense.c ****     *    1 - sensor scans by CapSense_ScanEnabledWidgets().
 706:Generated_Source\PSoC5/CapSense.c ****     *
 707:Generated_Source\PSoC5/CapSense.c ****     * Note: 
 708:Generated_Source\PSoC5/CapSense.c ****     *  This function has effect on control signals set for scanning and should not
 709:Generated_Source\PSoC5/CapSense.c ****     *  be used outisde of component.
 710:Generated_Source\PSoC5/CapSense.c ****     *
 711:Generated_Source\PSoC5/CapSense.c ****     *******************************************************************************/
 712:Generated_Source\PSoC5/CapSense.c ****     uint8 CapSense_FindNextPair(uint8 snsIndex) CYREENTRANT
 713:Generated_Source\PSoC5/CapSense.c ****     {
 714:Generated_Source\PSoC5/CapSense.c ****         uint8 posCh;
 715:Generated_Source\PSoC5/CapSense.c ****         uint8 enMaskCh;
 716:Generated_Source\PSoC5/CapSense.c ****         uint8 newRegValue;
 717:Generated_Source\PSoC5/CapSense.c ****         uint8 indexCh0 = snsIndex;
 718:Generated_Source\PSoC5/CapSense.c ****         uint8 indexCh1 = snsIndex + CapSense_TOTAL_SENSOR_COUNT__CH0;
 719:Generated_Source\PSoC5/CapSense.c ****         
 720:Generated_Source\PSoC5/CapSense.c ****         /* Find enabled sensor on channel 0 */
 721:Generated_Source\PSoC5/CapSense.c ****         do
 722:Generated_Source\PSoC5/CapSense.c ****         {
 723:Generated_Source\PSoC5/CapSense.c ****             /* Procced the scanning */
 724:Generated_Source\PSoC5/CapSense.c ****             indexCh0++;
 725:Generated_Source\PSoC5/CapSense.c ****             if (indexCh0 >= CapSense_TOTAL_SENSOR_COUNT__CH0)
 726:Generated_Source\PSoC5/CapSense.c ****             {
 727:Generated_Source\PSoC5/CapSense.c ****                 /* Lets hadle now all from CH1 */
 728:Generated_Source\PSoC5/CapSense.c ****                 indexCh0 = CapSense_END_OF_SCAN__CH0;
 729:Generated_Source\PSoC5/CapSense.c ****                 break;
 730:Generated_Source\PSoC5/CapSense.c ****             }
 731:Generated_Source\PSoC5/CapSense.c ****             
 732:Generated_Source\PSoC5/CapSense.c ****             posCh = (indexCh0 >> 3u);
 733:Generated_Source\PSoC5/CapSense.c ****             enMaskCh = 0x01u << (indexCh0 & 0x07u);
 734:Generated_Source\PSoC5/CapSense.c ****         }
 735:Generated_Source\PSoC5/CapSense.c ****         while((CapSense_sensorEnableMask[posCh] & enMaskCh) == 0u);
 736:Generated_Source\PSoC5/CapSense.c ****         
 737:Generated_Source\PSoC5/CapSense.c ****         /* Find enabled sensor on channel 1 */
 738:Generated_Source\PSoC5/CapSense.c ****         do
 739:Generated_Source\PSoC5/CapSense.c ****         {
 740:Generated_Source\PSoC5/CapSense.c ****             /* Procced the scanning */
 741:Generated_Source\PSoC5/CapSense.c ****             indexCh1++;        
 742:Generated_Source\PSoC5/CapSense.c ****             if (indexCh1 >= CapSense_TOTAL_SENSOR_COUNT)
 743:Generated_Source\PSoC5/CapSense.c ****             {
 744:Generated_Source\PSoC5/CapSense.c ****                 /* Lets hadle now all from CH0 */
 745:Generated_Source\PSoC5/CapSense.c ****                 indexCh1 = CapSense_END_OF_SCAN__CH1;
 746:Generated_Source\PSoC5/CapSense.c ****                 break;
 747:Generated_Source\PSoC5/CapSense.c ****             }
 748:Generated_Source\PSoC5/CapSense.c ****             
 749:Generated_Source\PSoC5/CapSense.c ****             posCh = (indexCh1 >> 3u);
 750:Generated_Source\PSoC5/CapSense.c ****             enMaskCh = 0x01u << (indexCh1 & 0x07u);
 751:Generated_Source\PSoC5/CapSense.c ****         } 
 752:Generated_Source\PSoC5/CapSense.c ****         while((CapSense_sensorEnableMask[posCh] & enMaskCh) == 0u);
ARM GAS  C:\Users\Xwx47\AppData\Local\Temp\ccd0GhAc.s 			page 17


 753:Generated_Source\PSoC5/CapSense.c ****         
 754:Generated_Source\PSoC5/CapSense.c ****         indexCh1 -= CapSense_TOTAL_SENSOR_COUNT__CH0;
 755:Generated_Source\PSoC5/CapSense.c ****         
 756:Generated_Source\PSoC5/CapSense.c ****         /* Find the pair to scan */
 757:Generated_Source\PSoC5/CapSense.c ****         if(indexCh0 == indexCh1)
 758:Generated_Source\PSoC5/CapSense.c ****         {
 759:Generated_Source\PSoC5/CapSense.c ****             /* Scans TWO Channels */
 760:Generated_Source\PSoC5/CapSense.c ****             snsIndex = indexCh0;
 761:Generated_Source\PSoC5/CapSense.c ****             
 762:Generated_Source\PSoC5/CapSense.c ****             CapSense_CONTROL_REG |= (CapSense_CTRL_WINDOW_EN__CH0 | 
 763:Generated_Source\PSoC5/CapSense.c ****                                              CapSense_CTRL_WINDOW_EN__CH1);
 764:Generated_Source\PSoC5/CapSense.c ****         }
 765:Generated_Source\PSoC5/CapSense.c ****         else if(indexCh0 < indexCh1)
 766:Generated_Source\PSoC5/CapSense.c ****         {
 767:Generated_Source\PSoC5/CapSense.c ****            /* Scans Channel ONE only */
 768:Generated_Source\PSoC5/CapSense.c ****            snsIndex = indexCh0;
 769:Generated_Source\PSoC5/CapSense.c ****            
 770:Generated_Source\PSoC5/CapSense.c ****             newRegValue = CapSense_CONTROL_REG;
 771:Generated_Source\PSoC5/CapSense.c ****             newRegValue |= CapSense_CTRL_WINDOW_EN__CH0;
 772:Generated_Source\PSoC5/CapSense.c ****             newRegValue &= ~CapSense_CTRL_WINDOW_EN__CH1;
 773:Generated_Source\PSoC5/CapSense.c ****             CapSense_CONTROL_REG = newRegValue;
 774:Generated_Source\PSoC5/CapSense.c ****         }
 775:Generated_Source\PSoC5/CapSense.c ****         else
 776:Generated_Source\PSoC5/CapSense.c ****         {
 777:Generated_Source\PSoC5/CapSense.c ****             /* Scans Channel TWO only */
 778:Generated_Source\PSoC5/CapSense.c ****             snsIndex = indexCh1;
 779:Generated_Source\PSoC5/CapSense.c ****             
 780:Generated_Source\PSoC5/CapSense.c ****             newRegValue = CapSense_CONTROL_REG;
 781:Generated_Source\PSoC5/CapSense.c ****             newRegValue |= CapSense_CTRL_WINDOW_EN__CH1;
 782:Generated_Source\PSoC5/CapSense.c ****             newRegValue &= ~CapSense_CTRL_WINDOW_EN__CH0;
 783:Generated_Source\PSoC5/CapSense.c ****             CapSense_CONTROL_REG = newRegValue;
 784:Generated_Source\PSoC5/CapSense.c ****         }
 785:Generated_Source\PSoC5/CapSense.c ****         
 786:Generated_Source\PSoC5/CapSense.c ****         return (snsIndex);
 787:Generated_Source\PSoC5/CapSense.c ****     }
 788:Generated_Source\PSoC5/CapSense.c **** #endif  /* CapSense_DESIGN_TYPE == CapSense_TWO_CHANNELS_DESIGN */
 789:Generated_Source\PSoC5/CapSense.c **** 
 790:Generated_Source\PSoC5/CapSense.c **** 
 791:Generated_Source\PSoC5/CapSense.c **** /*******************************************************************************
 792:Generated_Source\PSoC5/CapSense.c **** * Function Name: CapSense_SetScanSlotSettings
 793:Generated_Source\PSoC5/CapSense.c **** ********************************************************************************
 794:Generated_Source\PSoC5/CapSense.c **** *
 795:Generated_Source\PSoC5/CapSense.c **** * Summary:
 796:Generated_Source\PSoC5/CapSense.c **** *  Sets the scan settings of the selected scan slot (sensor or pair of sensors). 
 797:Generated_Source\PSoC5/CapSense.c **** *  The scan settings incorporate IDAC value (for IDAC configurations) for every 
 798:Generated_Source\PSoC5/CapSense.c **** *  sensor and resolution. The resolution is the same for all sensors within 
 799:Generated_Source\PSoC5/CapSense.c **** *  widget.
 800:Generated_Source\PSoC5/CapSense.c **** *
 801:Generated_Source\PSoC5/CapSense.c **** * Parameters:
 802:Generated_Source\PSoC5/CapSense.c **** *  slot:  Scan slot number (sensor or pair of sensors).
 803:Generated_Source\PSoC5/CapSense.c **** *
 804:Generated_Source\PSoC5/CapSense.c **** * Return:
 805:Generated_Source\PSoC5/CapSense.c **** *  None
 806:Generated_Source\PSoC5/CapSense.c **** *
 807:Generated_Source\PSoC5/CapSense.c **** * Global Variables:
 808:Generated_Source\PSoC5/CapSense.c **** *  CapSense_idacSettings[] - used to store idac value for every sensor.
 809:Generated_Source\PSoC5/CapSense.c **** *  CapSense_widgetResolution[] - used to store scan resolution of every 
ARM GAS  C:\Users\Xwx47\AppData\Local\Temp\ccd0GhAc.s 			page 18


 810:Generated_Source\PSoC5/CapSense.c **** *  widget.
 811:Generated_Source\PSoC5/CapSense.c **** *
 812:Generated_Source\PSoC5/CapSense.c **** *******************************************************************************/
 813:Generated_Source\PSoC5/CapSense.c **** void CapSense_SetScanSlotSettings(uint8 slot) CYREENTRANT
 814:Generated_Source\PSoC5/CapSense.c **** {
 815:Generated_Source\PSoC5/CapSense.c ****     uint8 widget;
 816:Generated_Source\PSoC5/CapSense.c ****     
 817:Generated_Source\PSoC5/CapSense.c ****     #if (CapSense_DESIGN_TYPE == CapSense_ONE_CHANNEL_DESIGN)
 818:Generated_Source\PSoC5/CapSense.c ****         /* Define widget sensor belongs to */
 819:Generated_Source\PSoC5/CapSense.c ****         widget = CapSense_widgetNumber[slot];
 820:Generated_Source\PSoC5/CapSense.c ****         
 821:Generated_Source\PSoC5/CapSense.c ****         /* Set Idac Value */
 822:Generated_Source\PSoC5/CapSense.c ****         #if (CapSense_CURRENT_SOURCE)
 823:Generated_Source\PSoC5/CapSense.c ****             CapSense_IdacCH0_SetValue(CapSense_idacSettings[slot]);
 824:Generated_Source\PSoC5/CapSense.c ****         #endif  /* CapSense_CURRENT_SOURCE */
 825:Generated_Source\PSoC5/CapSense.c ****         
 826:Generated_Source\PSoC5/CapSense.c ****         /* Window PWM */
 827:Generated_Source\PSoC5/CapSense.c ****         #if (CapSense_IMPLEMENTATION_CH0 == CapSense_MEASURE_IMPLEMENTATION_FF)
 828:Generated_Source\PSoC5/CapSense.c ****             CY_SET_REG16(CapSense_PWM_CH0_PERIOD_PTR,
 829:Generated_Source\PSoC5/CapSense.c ****                 ((uint16) CapSense_widgetResolution[widget] << 8u) | CapSense_MEASURE_FULL_RANGE_LO
 830:Generated_Source\PSoC5/CapSense.c ****         #else
 831:Generated_Source\PSoC5/CapSense.c ****             CapSense_PWM_CH0_PERIOD_HI_REG = CapSense_widgetResolution[widget];
 832:Generated_Source\PSoC5/CapSense.c ****         #endif  /* (CapSense_IMPLEMENTATION_CH0 == CapSense_MEASURE_IMPLEMENTATION_FF) */ 
 833:Generated_Source\PSoC5/CapSense.c **** 
 834:Generated_Source\PSoC5/CapSense.c ****         #if ( (CapSense_MULTIPLE_PRESCALER_ENABLED) || \
 835:Generated_Source\PSoC5/CapSense.c ****               (CapSense_TUNING_METHOD == CapSense_AUTO_TUNING) )
 836:Generated_Source\PSoC5/CapSense.c ****             CapSense_SetPrescaler(CapSense_analogSwitchDivider[slot]);
 837:Generated_Source\PSoC5/CapSense.c ****         #elif (CapSense_PRESCALER_OPTIONS)
 838:Generated_Source\PSoC5/CapSense.c ****             CapSense_SetPrescaler(CapSense_analogSwitchDivider);
 839:Generated_Source\PSoC5/CapSense.c ****         #endif /* ((CapSense_MULTIPLE_PRESCALER_ENABLED) || \
 840:Generated_Source\PSoC5/CapSense.c ****                *   (CapSense_TUNING_METHOD == CapSense_AUTO_TUNING))
 841:Generated_Source\PSoC5/CapSense.c ****                */
 842:Generated_Source\PSoC5/CapSense.c **** 
 843:Generated_Source\PSoC5/CapSense.c ****     #else
 844:Generated_Source\PSoC5/CapSense.c ****         if(slot < CapSense_TOTAL_SENSOR_COUNT__CH0)
 845:Generated_Source\PSoC5/CapSense.c ****         {
 846:Generated_Source\PSoC5/CapSense.c ****             /* Define widget sensor belongs to */
 847:Generated_Source\PSoC5/CapSense.c ****             widget = CapSense_widgetNumber[slot];
 848:Generated_Source\PSoC5/CapSense.c ****             
 849:Generated_Source\PSoC5/CapSense.c ****             /* Set Idac Value */
 850:Generated_Source\PSoC5/CapSense.c ****             #if (CapSense_CURRENT_SOURCE)
 851:Generated_Source\PSoC5/CapSense.c ****                 CapSense_IdacCH0_SetValue(CapSense_idacSettings[slot]);
 852:Generated_Source\PSoC5/CapSense.c ****             #endif  /* CapSense_CURRENT_SOURCE */
 853:Generated_Source\PSoC5/CapSense.c ****             
 854:Generated_Source\PSoC5/CapSense.c ****             /* Set Pwm Resolution */
 855:Generated_Source\PSoC5/CapSense.c ****             #if (CapSense_IMPLEMENTATION_CH0 == CapSense_MEASURE_IMPLEMENTATION_FF)
 856:Generated_Source\PSoC5/CapSense.c ****                 CY_SET_REG16(CapSense_PWM_CH0_PERIOD_PTR,
 857:Generated_Source\PSoC5/CapSense.c ****                   ((uint16) CapSense_widgetResolution[widget] << 8u) | CapSense_MEASURE_FULL_RANGE_
 858:Generated_Source\PSoC5/CapSense.c ****             #else
 859:Generated_Source\PSoC5/CapSense.c ****                 CapSense_PWM_CH0_PERIOD_HI_REG = CapSense_widgetResolution[widget];
 860:Generated_Source\PSoC5/CapSense.c ****             #endif  /* (CapSense_IMPLEMENTATION_CH0 == CapSense_MEASURE_IMPLEMENTATION_FF)*/ 
 861:Generated_Source\PSoC5/CapSense.c ****         }
 862:Generated_Source\PSoC5/CapSense.c ****         
 863:Generated_Source\PSoC5/CapSense.c ****         if(slot < CapSense_TOTAL_SENSOR_COUNT__CH1)
 864:Generated_Source\PSoC5/CapSense.c ****         {
 865:Generated_Source\PSoC5/CapSense.c ****             widget = CapSense_widgetNumber[slot+CapSense_TOTAL_SENSOR_COUNT__CH0];
 866:Generated_Source\PSoC5/CapSense.c ****         
ARM GAS  C:\Users\Xwx47\AppData\Local\Temp\ccd0GhAc.s 			page 19


 867:Generated_Source\PSoC5/CapSense.c ****             /* Set Idac Value */
 868:Generated_Source\PSoC5/CapSense.c ****             #if (CapSense_CURRENT_SOURCE)
 869:Generated_Source\PSoC5/CapSense.c ****                 CapSense_IdacCH1_SetValue(CapSense_idacSettings[slot+
 870:Generated_Source\PSoC5/CapSense.c ****                                                                              CapSense_TOTAL_SENSOR_
 871:Generated_Source\PSoC5/CapSense.c ****             #endif  /* CapSense_CURRENT_SOURCE */
 872:Generated_Source\PSoC5/CapSense.c ****             
 873:Generated_Source\PSoC5/CapSense.c ****             /* Set Pwm Resolution */
 874:Generated_Source\PSoC5/CapSense.c ****             #if (CapSense_IMPLEMENTATION_CH1 == CapSense_MEASURE_IMPLEMENTATION_FF)
 875:Generated_Source\PSoC5/CapSense.c ****                 CY_SET_REG16(CapSense_PWM_CH1_PERIOD_PTR,
 876:Generated_Source\PSoC5/CapSense.c ****                   ((uint16) CapSense_widgetResolution[widget] << 8u) | CapSense_MEASURE_FULL_RANGE_
 877:Generated_Source\PSoC5/CapSense.c ****             #else
 878:Generated_Source\PSoC5/CapSense.c ****                 CapSense_PWM_CH1_PERIOD_HI_REG = CapSense_widgetResolution[widget];
 879:Generated_Source\PSoC5/CapSense.c ****             #endif  /* (CapSense_IMPLEMENTATION_CH1 == CapSense_MEASURE_IMPLEMENTATION_FF)*/ 
 880:Generated_Source\PSoC5/CapSense.c ****         }
 881:Generated_Source\PSoC5/CapSense.c **** 
 882:Generated_Source\PSoC5/CapSense.c ****         #if ( (CapSense_MULTIPLE_PRESCALER_ENABLED) || \
 883:Generated_Source\PSoC5/CapSense.c ****               (CapSense_TUNING_METHOD == CapSense_AUTO_TUNING) )
 884:Generated_Source\PSoC5/CapSense.c ****             CapSense_SetPrescaler(CapSense_analogSwitchDivider[slot]);
 885:Generated_Source\PSoC5/CapSense.c ****         #elif (CapSense_PRESCALER_OPTIONS)
 886:Generated_Source\PSoC5/CapSense.c ****             CapSense_SetPrescaler(CapSense_analogSwitchDivider);
 887:Generated_Source\PSoC5/CapSense.c ****         #endif /* ((CapSense_MULTIPLE_PRESCALER_ENABLED) || \
 888:Generated_Source\PSoC5/CapSense.c ****                *   (CapSense_TUNING_METHOD == CapSense_AUTO_TUNING))
 889:Generated_Source\PSoC5/CapSense.c ****                */
 890:Generated_Source\PSoC5/CapSense.c **** 
 891:Generated_Source\PSoC5/CapSense.c ****     #endif  /* CapSense_DESIGN_TYPE */
 892:Generated_Source\PSoC5/CapSense.c **** }
 893:Generated_Source\PSoC5/CapSense.c **** 
 894:Generated_Source\PSoC5/CapSense.c **** 
 895:Generated_Source\PSoC5/CapSense.c **** /*******************************************************************************
 896:Generated_Source\PSoC5/CapSense.c **** * Function Name: CapSense_ScanSensor
 897:Generated_Source\PSoC5/CapSense.c **** ********************************************************************************
 898:Generated_Source\PSoC5/CapSense.c **** *
 899:Generated_Source\PSoC5/CapSense.c **** * Summary:
 900:Generated_Source\PSoC5/CapSense.c **** *  Sets scan settings and starts scanning a sensor or pair of combined sensors
 901:Generated_Source\PSoC5/CapSense.c **** *  on each channel. If two channels are configured, two sensors may be scanned 
 902:Generated_Source\PSoC5/CapSense.c **** *  at the same time. After scanning is complete the isr copies the measured 
 903:Generated_Source\PSoC5/CapSense.c **** *  sensor raw data to the global array. Use of the isr ensures this function 
 904:Generated_Source\PSoC5/CapSense.c **** *  is non-blocking. Each sensor has a unique number within the sensor array. 
 905:Generated_Source\PSoC5/CapSense.c **** *  This number is assigned by the CapSense customizer in sequence.
 906:Generated_Source\PSoC5/CapSense.c **** *
 907:Generated_Source\PSoC5/CapSense.c **** * Parameters:
 908:Generated_Source\PSoC5/CapSense.c **** *  sensor:  Sensor number.
 909:Generated_Source\PSoC5/CapSense.c **** *
 910:Generated_Source\PSoC5/CapSense.c **** * Return:
 911:Generated_Source\PSoC5/CapSense.c **** *  None
 912:Generated_Source\PSoC5/CapSense.c **** *
 913:Generated_Source\PSoC5/CapSense.c **** * Global Variables:
 914:Generated_Source\PSoC5/CapSense.c **** *  CapSense_csv - used to provide status and mode of scanning process. 
 915:Generated_Source\PSoC5/CapSense.c **** *  Sets busy status(scan in progress) and mode of scan as single scan.
 916:Generated_Source\PSoC5/CapSense.c **** *  For two channel design the additional bits are set to define if scan a 
 917:Generated_Source\PSoC5/CapSense.c **** *  pair of sensors or single one.
 918:Generated_Source\PSoC5/CapSense.c **** *  CapSense_sensorIndex - used to store sensor scanning sensor number.
 919:Generated_Source\PSoC5/CapSense.c **** *  Sets to provided sensor argument.
 920:Generated_Source\PSoC5/CapSense.c **** *
 921:Generated_Source\PSoC5/CapSense.c **** * Reentrant:
 922:Generated_Source\PSoC5/CapSense.c **** *  No
 923:Generated_Source\PSoC5/CapSense.c **** *
ARM GAS  C:\Users\Xwx47\AppData\Local\Temp\ccd0GhAc.s 			page 20


 924:Generated_Source\PSoC5/CapSense.c **** *******************************************************************************/
 925:Generated_Source\PSoC5/CapSense.c **** void CapSense_ScanSensor(uint8 sensor)  
 926:Generated_Source\PSoC5/CapSense.c **** {
 927:Generated_Source\PSoC5/CapSense.c ****     /* Clears status/control variable and set sensorIndex */
 928:Generated_Source\PSoC5/CapSense.c ****     CapSense_csv = 0u;
 929:Generated_Source\PSoC5/CapSense.c ****     CapSense_sensorIndex = sensor;
 930:Generated_Source\PSoC5/CapSense.c ****     
 931:Generated_Source\PSoC5/CapSense.c ****     #if (CapSense_DESIGN_TYPE == CapSense_ONE_CHANNEL_DESIGN)
 932:Generated_Source\PSoC5/CapSense.c ****         /* Start of sensor scan */
 933:Generated_Source\PSoC5/CapSense.c ****         CapSense_csv = (CapSense_SW_STS_BUSY | CapSense_SW_CTRL_SINGLE_SCAN);
 934:Generated_Source\PSoC5/CapSense.c ****         CapSense_PreScan(sensor);
 935:Generated_Source\PSoC5/CapSense.c ****         
 936:Generated_Source\PSoC5/CapSense.c ****     #else
 937:Generated_Source\PSoC5/CapSense.c ****         /* CH0: check end of scan conditions */
 938:Generated_Source\PSoC5/CapSense.c ****         if(sensor < CapSense_TOTAL_SENSOR_COUNT__CH0)
 939:Generated_Source\PSoC5/CapSense.c ****         {
 940:Generated_Source\PSoC5/CapSense.c ****             CapSense_CONTROL_REG |= CapSense_CTRL_WINDOW_EN__CH0;
 941:Generated_Source\PSoC5/CapSense.c ****         }
 942:Generated_Source\PSoC5/CapSense.c ****         else
 943:Generated_Source\PSoC5/CapSense.c ****         {
 944:Generated_Source\PSoC5/CapSense.c ****             CapSense_CONTROL_REG &= ~CapSense_CTRL_WINDOW_EN__CH0;
 945:Generated_Source\PSoC5/CapSense.c ****         }
 946:Generated_Source\PSoC5/CapSense.c ****         
 947:Generated_Source\PSoC5/CapSense.c ****         /* CH1: check end of scan conditions */
 948:Generated_Source\PSoC5/CapSense.c ****         if(sensor < CapSense_TOTAL_SENSOR_COUNT__CH1)
 949:Generated_Source\PSoC5/CapSense.c ****         {
 950:Generated_Source\PSoC5/CapSense.c ****             CapSense_CONTROL_REG |= CapSense_CTRL_WINDOW_EN__CH1;
 951:Generated_Source\PSoC5/CapSense.c ****         }
 952:Generated_Source\PSoC5/CapSense.c ****         else
 953:Generated_Source\PSoC5/CapSense.c ****         {
 954:Generated_Source\PSoC5/CapSense.c ****             CapSense_CONTROL_REG &= ~CapSense_CTRL_WINDOW_EN__CH1;
 955:Generated_Source\PSoC5/CapSense.c ****         }
 956:Generated_Source\PSoC5/CapSense.c ****         
 957:Generated_Source\PSoC5/CapSense.c ****         /* Start sensor scan */
 958:Generated_Source\PSoC5/CapSense.c ****         if( ((CapSense_CONTROL_REG & CapSense_CTRL_WINDOW_EN__CH0) != 0u) || 
 959:Generated_Source\PSoC5/CapSense.c ****             ((CapSense_CONTROL_REG & CapSense_CTRL_WINDOW_EN__CH1) != 0u) )
 960:Generated_Source\PSoC5/CapSense.c ****         {
 961:Generated_Source\PSoC5/CapSense.c ****         
 962:Generated_Source\PSoC5/CapSense.c ****             CapSense_csv |= (CapSense_SW_STS_BUSY | CapSense_SW_CTRL_SINGLE_SCAN);
 963:Generated_Source\PSoC5/CapSense.c ****             CapSense_PreScan(sensor);
 964:Generated_Source\PSoC5/CapSense.c ****         }
 965:Generated_Source\PSoC5/CapSense.c ****         
 966:Generated_Source\PSoC5/CapSense.c ****     #endif  /* CapSense_DESIGN_TYPE */
 967:Generated_Source\PSoC5/CapSense.c **** }
 968:Generated_Source\PSoC5/CapSense.c **** 
 969:Generated_Source\PSoC5/CapSense.c **** 
 970:Generated_Source\PSoC5/CapSense.c **** /*******************************************************************************
 971:Generated_Source\PSoC5/CapSense.c **** * Function Name: CapSense_ScanEnableWidgets
 972:Generated_Source\PSoC5/CapSense.c **** ********************************************************************************
 973:Generated_Source\PSoC5/CapSense.c **** *
 974:Generated_Source\PSoC5/CapSense.c **** * Summary:
 975:Generated_Source\PSoC5/CapSense.c **** *  Scans all of the enabled widgets. Starts scanning a sensor or pair of sensors 
 976:Generated_Source\PSoC5/CapSense.c **** *  within enabled widget. The isr proceeding scanning next sensor or pair till 
 977:Generated_Source\PSoC5/CapSense.c **** *  all enabled widgets will be scanned. Use of the isr ensures this function is 
 978:Generated_Source\PSoC5/CapSense.c **** *  non-blocking. All widgets are enabled by default except proximity widgets. 
 979:Generated_Source\PSoC5/CapSense.c **** *  Proximity widgets must be manually enabled as their long scan time is 
 980:Generated_Source\PSoC5/CapSense.c **** *  incompatible with fast response desired of other widget types.
ARM GAS  C:\Users\Xwx47\AppData\Local\Temp\ccd0GhAc.s 			page 21


 981:Generated_Source\PSoC5/CapSense.c **** *
 982:Generated_Source\PSoC5/CapSense.c **** * Parameters:
 983:Generated_Source\PSoC5/CapSense.c **** *  None
 984:Generated_Source\PSoC5/CapSense.c **** *
 985:Generated_Source\PSoC5/CapSense.c **** * Return:
 986:Generated_Source\PSoC5/CapSense.c **** *  None
 987:Generated_Source\PSoC5/CapSense.c **** *
 988:Generated_Source\PSoC5/CapSense.c **** * Global Variables:
 989:Generated_Source\PSoC5/CapSense.c **** *  CapSense_csv - used to provide status and mode of scanning process. 
 990:Generated_Source\PSoC5/CapSense.c **** *  Sets busy status(scan in progress) and clears single scan mode.
 991:Generated_Source\PSoC5/CapSense.c **** *  For two channel design the additional bits are set to define if scan a 
 992:Generated_Source\PSoC5/CapSense.c **** *  pair of sensors or single one. 
 993:Generated_Source\PSoC5/CapSense.c **** *  CapSense_sensorIndex - used to store sensor scanning sensor number.
 994:Generated_Source\PSoC5/CapSense.c **** *  Sets to 0xFF and provided to function CapSense_FindNextSensor or
 995:Generated_Source\PSoC5/CapSense.c **** *  CapSense_FindNextPair, these functions starts with sensor index
 996:Generated_Source\PSoC5/CapSense.c **** *  increment and overflow of uint8 gives desired index 0.
 997:Generated_Source\PSoC5/CapSense.c **** *
 998:Generated_Source\PSoC5/CapSense.c **** * Reentrant:
 999:Generated_Source\PSoC5/CapSense.c **** *  No
1000:Generated_Source\PSoC5/CapSense.c **** *
1001:Generated_Source\PSoC5/CapSense.c **** *******************************************************************************/
1002:Generated_Source\PSoC5/CapSense.c **** void CapSense_ScanEnabledWidgets(void) 
1003:Generated_Source\PSoC5/CapSense.c **** {
1004:Generated_Source\PSoC5/CapSense.c ****     /* Clears status/control variable and set sensorIndex */
1005:Generated_Source\PSoC5/CapSense.c ****     CapSense_csv = 0u;
1006:Generated_Source\PSoC5/CapSense.c ****     CapSense_sensorIndex = 0xFFu;
1007:Generated_Source\PSoC5/CapSense.c ****     
1008:Generated_Source\PSoC5/CapSense.c ****     #if (CapSense_DESIGN_TYPE == CapSense_ONE_CHANNEL_DESIGN)
1009:Generated_Source\PSoC5/CapSense.c ****         /* Find next sensor */
1010:Generated_Source\PSoC5/CapSense.c ****         CapSense_sensorIndex = CapSense_FindNextSensor(CapSense_sensorIndex);
1011:Generated_Source\PSoC5/CapSense.c **** 
1012:Generated_Source\PSoC5/CapSense.c ****         /* Check end of scan condition */
1013:Generated_Source\PSoC5/CapSense.c ****         if(CapSense_sensorIndex < CapSense_TOTAL_SENSOR_COUNT)
1014:Generated_Source\PSoC5/CapSense.c ****         {
1015:Generated_Source\PSoC5/CapSense.c ****             CapSense_csv |= CapSense_SW_STS_BUSY;
1016:Generated_Source\PSoC5/CapSense.c ****             CapSense_PreScan(CapSense_sensorIndex);
1017:Generated_Source\PSoC5/CapSense.c ****         }
1018:Generated_Source\PSoC5/CapSense.c ****         
1019:Generated_Source\PSoC5/CapSense.c ****     #else
1020:Generated_Source\PSoC5/CapSense.c ****         /* Find next sensor and set proper control register */
1021:Generated_Source\PSoC5/CapSense.c ****         CapSense_sensorIndex = CapSense_FindNextPair(CapSense_sensorIndex);
1022:Generated_Source\PSoC5/CapSense.c ****         
1023:Generated_Source\PSoC5/CapSense.c ****         /* Start sensor scan */
1024:Generated_Source\PSoC5/CapSense.c ****         if((CapSense_sensorIndex < CapSense_TOTAL_SENSOR_COUNT__CH0) || 
1025:Generated_Source\PSoC5/CapSense.c ****            (CapSense_sensorIndex < CapSense_TOTAL_SENSOR_COUNT__CH1))
1026:Generated_Source\PSoC5/CapSense.c ****         {
1027:Generated_Source\PSoC5/CapSense.c ****             CapSense_csv |= CapSense_SW_STS_BUSY;
1028:Generated_Source\PSoC5/CapSense.c ****             CapSense_PreScan(CapSense_sensorIndex);
1029:Generated_Source\PSoC5/CapSense.c ****         }
1030:Generated_Source\PSoC5/CapSense.c ****         
1031:Generated_Source\PSoC5/CapSense.c ****     #endif  /* CapSense_DESIGN_TYPE */
1032:Generated_Source\PSoC5/CapSense.c **** }
1033:Generated_Source\PSoC5/CapSense.c **** 
1034:Generated_Source\PSoC5/CapSense.c **** 
1035:Generated_Source\PSoC5/CapSense.c **** /*******************************************************************************
1036:Generated_Source\PSoC5/CapSense.c **** * Function Name: CapSense_IsBusy
1037:Generated_Source\PSoC5/CapSense.c **** ********************************************************************************
ARM GAS  C:\Users\Xwx47\AppData\Local\Temp\ccd0GhAc.s 			page 22


1038:Generated_Source\PSoC5/CapSense.c **** *
1039:Generated_Source\PSoC5/CapSense.c **** * Summary:
1040:Generated_Source\PSoC5/CapSense.c **** *  Returns the state of CapSense component. The 1 means that scanning in 
1041:Generated_Source\PSoC5/CapSense.c **** *  progress and 0 means that scanning is complete.
1042:Generated_Source\PSoC5/CapSense.c **** *
1043:Generated_Source\PSoC5/CapSense.c **** * Parameters:
1044:Generated_Source\PSoC5/CapSense.c **** *  None
1045:Generated_Source\PSoC5/CapSense.c **** *
1046:Generated_Source\PSoC5/CapSense.c **** * Return:
1047:Generated_Source\PSoC5/CapSense.c **** *  Returns the state of scanning. 1 - scanning in progress, 0 - scanning 
1048:Generated_Source\PSoC5/CapSense.c **** *  completed.
1049:Generated_Source\PSoC5/CapSense.c **** *
1050:Generated_Source\PSoC5/CapSense.c **** * Global Variables:
1051:Generated_Source\PSoC5/CapSense.c **** *  CapSense_csv - used to provide status and mode of scanning process. 
1052:Generated_Source\PSoC5/CapSense.c **** *  Checks the busy status.
1053:Generated_Source\PSoC5/CapSense.c **** *
1054:Generated_Source\PSoC5/CapSense.c **** *******************************************************************************/
1055:Generated_Source\PSoC5/CapSense.c **** uint8 CapSense_IsBusy(void) 
1056:Generated_Source\PSoC5/CapSense.c **** {
 155              		.loc 1 1056 0
 156              		.cfi_startproc
 157              		@ args = 0, pretend = 0, frame = 0
 158              		@ frame_needed = 0, uses_anonymous_args = 0
 159              		@ link register save eliminated.
1057:Generated_Source\PSoC5/CapSense.c ****     return ((0u != (CapSense_csv & CapSense_SW_STS_BUSY)) ? 1u : 0u);
 160              		.loc 1 1057 0
 161 0000 024B     		ldr	r3, .L17
 162 0002 1878     		ldrb	r0, [r3]	@ zero_extendqisi2
1058:Generated_Source\PSoC5/CapSense.c **** }
 163              		.loc 1 1058 0
 164 0004 00F00100 		and	r0, r0, #1
 165 0008 7047     		bx	lr
 166              	.L18:
 167 000a 00BF     		.align	2
 168              	.L17:
 169 000c 00000000 		.word	CapSense_csv
 170              		.cfi_endproc
 171              	.LFE8:
 172              		.size	CapSense_IsBusy, .-CapSense_IsBusy
 173              		.section	.text.CapSense_ReadSensorRaw,"ax",%progbits
 174              		.align	1
 175              		.global	CapSense_ReadSensorRaw
 176              		.thumb
 177              		.thumb_func
 178              		.type	CapSense_ReadSensorRaw, %function
 179              	CapSense_ReadSensorRaw:
 180              	.LFB9:
1059:Generated_Source\PSoC5/CapSense.c **** 
1060:Generated_Source\PSoC5/CapSense.c **** 
1061:Generated_Source\PSoC5/CapSense.c **** /*******************************************************************************
1062:Generated_Source\PSoC5/CapSense.c **** * Function Name: CapSense_ReadSensorRaw
1063:Generated_Source\PSoC5/CapSense.c **** ********************************************************************************
1064:Generated_Source\PSoC5/CapSense.c **** *
1065:Generated_Source\PSoC5/CapSense.c **** * Summary:
1066:Generated_Source\PSoC5/CapSense.c **** *  Returns scan sensor raw data from the CapSense_sensorRaw[] array. 
1067:Generated_Source\PSoC5/CapSense.c **** *  Each scan sensor has a unique number within the sensor array. This number 
1068:Generated_Source\PSoC5/CapSense.c **** *  is assigned by the CapSense customizer in sequence.
ARM GAS  C:\Users\Xwx47\AppData\Local\Temp\ccd0GhAc.s 			page 23


1069:Generated_Source\PSoC5/CapSense.c **** *
1070:Generated_Source\PSoC5/CapSense.c **** * Parameters:
1071:Generated_Source\PSoC5/CapSense.c **** *  sensor:  Sensor number.
1072:Generated_Source\PSoC5/CapSense.c **** *
1073:Generated_Source\PSoC5/CapSense.c **** * Return:
1074:Generated_Source\PSoC5/CapSense.c **** *  Returns current raw data value for defined sensor number.
1075:Generated_Source\PSoC5/CapSense.c **** *
1076:Generated_Source\PSoC5/CapSense.c **** * Global Variables:
1077:Generated_Source\PSoC5/CapSense.c **** *  CapSense_sensorRaw[] - used to store sensors raw data.
1078:Generated_Source\PSoC5/CapSense.c **** *
1079:Generated_Source\PSoC5/CapSense.c **** *******************************************************************************/
1080:Generated_Source\PSoC5/CapSense.c **** uint16 CapSense_ReadSensorRaw(uint8 sensor) 
1081:Generated_Source\PSoC5/CapSense.c **** {
 181              		.loc 1 1081 0
 182              		.cfi_startproc
 183              		@ args = 0, pretend = 0, frame = 0
 184              		@ frame_needed = 0, uses_anonymous_args = 0
 185              		@ link register save eliminated.
 186              	.LVL12:
1082:Generated_Source\PSoC5/CapSense.c ****     return (CapSense_sensorRaw[sensor]);
1083:Generated_Source\PSoC5/CapSense.c **** }
 187              		.loc 1 1083 0
 188 0000 014B     		ldr	r3, .L20
 189 0002 33F81000 		ldrh	r0, [r3, r0, lsl #1]
 190              	.LVL13:
 191 0006 7047     		bx	lr
 192              	.L21:
 193              		.align	2
 194              	.L20:
 195 0008 00000000 		.word	CapSense_sensorRaw
 196              		.cfi_endproc
 197              	.LFE9:
 198              		.size	CapSense_ReadSensorRaw, .-CapSense_ReadSensorRaw
 199              		.section	.text.CapSense_EnableSensor,"ax",%progbits
 200              		.align	1
 201              		.global	CapSense_EnableSensor
 202              		.thumb
 203              		.thumb_func
 204              		.type	CapSense_EnableSensor, %function
 205              	CapSense_EnableSensor:
 206              	.LFB11:
1084:Generated_Source\PSoC5/CapSense.c **** 
1085:Generated_Source\PSoC5/CapSense.c **** 
1086:Generated_Source\PSoC5/CapSense.c **** /*******************************************************************************
1087:Generated_Source\PSoC5/CapSense.c **** * Function Name: CapSense_ClearSensors
1088:Generated_Source\PSoC5/CapSense.c **** ********************************************************************************
1089:Generated_Source\PSoC5/CapSense.c **** *
1090:Generated_Source\PSoC5/CapSense.c **** * Summary:
1091:Generated_Source\PSoC5/CapSense.c **** *  Resets all sensors to the non-sampling state by sequentially disconnecting
1092:Generated_Source\PSoC5/CapSense.c **** *  all sensors from Analog MUX Bus and putting them to inactive state.
1093:Generated_Source\PSoC5/CapSense.c **** *
1094:Generated_Source\PSoC5/CapSense.c **** * Parameters:
1095:Generated_Source\PSoC5/CapSense.c **** *  None
1096:Generated_Source\PSoC5/CapSense.c **** *
1097:Generated_Source\PSoC5/CapSense.c **** * Return:
1098:Generated_Source\PSoC5/CapSense.c **** *  None
1099:Generated_Source\PSoC5/CapSense.c **** *
ARM GAS  C:\Users\Xwx47\AppData\Local\Temp\ccd0GhAc.s 			page 24


1100:Generated_Source\PSoC5/CapSense.c **** *******************************************************************************/
1101:Generated_Source\PSoC5/CapSense.c **** void CapSense_ClearSensors(void) 
1102:Generated_Source\PSoC5/CapSense.c **** {
1103:Generated_Source\PSoC5/CapSense.c ****     uint8 i;
1104:Generated_Source\PSoC5/CapSense.c ****    
1105:Generated_Source\PSoC5/CapSense.c ****     for (i = 0u; i < CapSense_TOTAL_SENSOR_COUNT; i++)
1106:Generated_Source\PSoC5/CapSense.c ****     {
1107:Generated_Source\PSoC5/CapSense.c ****         CapSense_DisableScanSlot(i);
1108:Generated_Source\PSoC5/CapSense.c ****     }
1109:Generated_Source\PSoC5/CapSense.c **** }
1110:Generated_Source\PSoC5/CapSense.c **** 
1111:Generated_Source\PSoC5/CapSense.c **** 
1112:Generated_Source\PSoC5/CapSense.c **** #if (CapSense_IS_COMPLEX_SCANSLOTS)
1113:Generated_Source\PSoC5/CapSense.c ****     /*******************************************************************************
1114:Generated_Source\PSoC5/CapSense.c ****     * Function Name: CapSense_EnableScanSlot
1115:Generated_Source\PSoC5/CapSense.c ****     ********************************************************************************
1116:Generated_Source\PSoC5/CapSense.c ****     *
1117:Generated_Source\PSoC5/CapSense.c ****     * Summary:
1118:Generated_Source\PSoC5/CapSense.c ****     *  Configures the selected slot to measure during the next measurement 
1119:Generated_Source\PSoC5/CapSense.c ****     *  cycle. The corresponding pin/pins are set to Analog High-Z mode and 
1120:Generated_Source\PSoC5/CapSense.c ****     *  connected to the Analog Mux Bus. This also enables the comparator function.
1121:Generated_Source\PSoC5/CapSense.c ****     *
1122:Generated_Source\PSoC5/CapSense.c ****     * Parameters:
1123:Generated_Source\PSoC5/CapSense.c ****     *  slot:  Slot number.
1124:Generated_Source\PSoC5/CapSense.c ****     *
1125:Generated_Source\PSoC5/CapSense.c ****     * Return:
1126:Generated_Source\PSoC5/CapSense.c ****     *  None
1127:Generated_Source\PSoC5/CapSense.c ****     *
1128:Generated_Source\PSoC5/CapSense.c ****     * Global Constants:
1129:Generated_Source\PSoC5/CapSense.c ****     *  CapSense_portTable[]  - used to store the port number that pin 
1130:Generated_Source\PSoC5/CapSense.c ****     *  belongs to for every sensor.
1131:Generated_Source\PSoC5/CapSense.c ****     *  CapSense_maskTable[]  - used to store the pin within the port for 
1132:Generated_Source\PSoC5/CapSense.c ****     *  every sensor.
1133:Generated_Source\PSoC5/CapSense.c ****     *  CapSense_indexTable[] - used to store indexes of complex sensors.
1134:Generated_Source\PSoC5/CapSense.c ****     *  The offset and position in this array are stored in port and mask table for 
1135:Generated_Source\PSoC5/CapSense.c ****     *  complex sensors.
1136:Generated_Source\PSoC5/CapSense.c ****     *  The bit 7 (msb) is used to define the sensor type: single or complex.
1137:Generated_Source\PSoC5/CapSense.c ****     *
1138:Generated_Source\PSoC5/CapSense.c ****     *******************************************************************************/
1139:Generated_Source\PSoC5/CapSense.c ****     void CapSense_EnableScanSlot(uint8 slot) CYREENTRANT
1140:Generated_Source\PSoC5/CapSense.c ****     {
1141:Generated_Source\PSoC5/CapSense.c ****         uint8 j;
1142:Generated_Source\PSoC5/CapSense.c ****         uint8 snsNumber;
1143:Generated_Source\PSoC5/CapSense.c ****         const uint8 CYCODE *index;
1144:Generated_Source\PSoC5/CapSense.c ****         /* Read the sensor type: single or complex */
1145:Generated_Source\PSoC5/CapSense.c ****         uint8 snsType = CapSense_portTable[slot];
1146:Generated_Source\PSoC5/CapSense.c ****         
1147:Generated_Source\PSoC5/CapSense.c ****         /* Check if sensor is complex */
1148:Generated_Source\PSoC5/CapSense.c ****         if ((snsType & CapSense_COMPLEX_SS_FLAG) == 0u)
1149:Generated_Source\PSoC5/CapSense.c ****         {
1150:Generated_Source\PSoC5/CapSense.c ****             /* Enable sensor (signle) */
1151:Generated_Source\PSoC5/CapSense.c ****             CapSense_EnableSensor(slot);
1152:Generated_Source\PSoC5/CapSense.c ****         }
1153:Generated_Source\PSoC5/CapSense.c ****         else
1154:Generated_Source\PSoC5/CapSense.c ****         {
1155:Generated_Source\PSoC5/CapSense.c ****             /* Enable complex sensor */
1156:Generated_Source\PSoC5/CapSense.c ****             snsType &= ~CapSense_COMPLEX_SS_FLAG;
ARM GAS  C:\Users\Xwx47\AppData\Local\Temp\ccd0GhAc.s 			page 25


1157:Generated_Source\PSoC5/CapSense.c ****             index = &CapSense_indexTable[snsType];
1158:Generated_Source\PSoC5/CapSense.c ****             snsNumber = CapSense_maskTable[slot];
1159:Generated_Source\PSoC5/CapSense.c ****                         
1160:Generated_Source\PSoC5/CapSense.c ****             for (j=0u; j < snsNumber; j++)
1161:Generated_Source\PSoC5/CapSense.c ****             {
1162:Generated_Source\PSoC5/CapSense.c ****                 CapSense_EnableSensor(index[j]);
1163:Generated_Source\PSoC5/CapSense.c ****             }
1164:Generated_Source\PSoC5/CapSense.c ****         } 
1165:Generated_Source\PSoC5/CapSense.c ****     }
1166:Generated_Source\PSoC5/CapSense.c ****     
1167:Generated_Source\PSoC5/CapSense.c ****     
1168:Generated_Source\PSoC5/CapSense.c ****     /*******************************************************************************
1169:Generated_Source\PSoC5/CapSense.c ****     * Function Name: CapSense_DisableScanSlot
1170:Generated_Source\PSoC5/CapSense.c ****     ********************************************************************************
1171:Generated_Source\PSoC5/CapSense.c ****     *
1172:Generated_Source\PSoC5/CapSense.c ****     * Summary:
1173:Generated_Source\PSoC5/CapSense.c ****     *  Disables the selected slot. The corresponding pin/pis is/are disconnected 
1174:Generated_Source\PSoC5/CapSense.c ****     *  from the Analog Mux Bus and connected to GND, High_Z or Shield electrode.
1175:Generated_Source\PSoC5/CapSense.c ****     *
1176:Generated_Source\PSoC5/CapSense.c ****     * Parameters:
1177:Generated_Source\PSoC5/CapSense.c ****     *  slot:  Slot number.
1178:Generated_Source\PSoC5/CapSense.c ****     *
1179:Generated_Source\PSoC5/CapSense.c ****     * Return:
1180:Generated_Source\PSoC5/CapSense.c ****     *  None
1181:Generated_Source\PSoC5/CapSense.c ****     *
1182:Generated_Source\PSoC5/CapSense.c ****     * Global Variables:
1183:Generated_Source\PSoC5/CapSense.c ****     *  CapSense_portTable[]  - used to store the port number that pin 
1184:Generated_Source\PSoC5/CapSense.c ****     *  belongs to for every sensor.
1185:Generated_Source\PSoC5/CapSense.c ****     *  CapSense_maskTable[]  - used to store the pin within the port for 
1186:Generated_Source\PSoC5/CapSense.c ****     *  every sensor.
1187:Generated_Source\PSoC5/CapSense.c ****     *  CapSense_indexTable[] - used to store indexes of complex sensors.
1188:Generated_Source\PSoC5/CapSense.c ****     *  The offset and position in this array are stored in port and mask table for 
1189:Generated_Source\PSoC5/CapSense.c ****     *  complex sensors.
1190:Generated_Source\PSoC5/CapSense.c ****     *  The 7bit(msb) is used to define the sensor type: single or complex.
1191:Generated_Source\PSoC5/CapSense.c ****     *
1192:Generated_Source\PSoC5/CapSense.c ****     *******************************************************************************/
1193:Generated_Source\PSoC5/CapSense.c ****     void CapSense_DisableScanSlot(uint8 slot) CYREENTRANT
1194:Generated_Source\PSoC5/CapSense.c ****     {
1195:Generated_Source\PSoC5/CapSense.c ****         uint8 j;
1196:Generated_Source\PSoC5/CapSense.c ****         uint8 snsNumber;
1197:Generated_Source\PSoC5/CapSense.c ****         const uint8 CYCODE *index;
1198:Generated_Source\PSoC5/CapSense.c ****         /* Read the sensor type: single or complex */
1199:Generated_Source\PSoC5/CapSense.c ****         uint8 snsType = CapSense_portTable[slot];
1200:Generated_Source\PSoC5/CapSense.c ****         
1201:Generated_Source\PSoC5/CapSense.c ****         /* Check if sensor is complex */
1202:Generated_Source\PSoC5/CapSense.c ****         if ((snsType & CapSense_COMPLEX_SS_FLAG) == 0u)
1203:Generated_Source\PSoC5/CapSense.c ****         {
1204:Generated_Source\PSoC5/CapSense.c ****             /* Disable sensor (signle) */
1205:Generated_Source\PSoC5/CapSense.c ****             CapSense_DisableSensor(slot);
1206:Generated_Source\PSoC5/CapSense.c ****         }
1207:Generated_Source\PSoC5/CapSense.c ****         else
1208:Generated_Source\PSoC5/CapSense.c ****         {
1209:Generated_Source\PSoC5/CapSense.c ****             /* Disable complex sensor */
1210:Generated_Source\PSoC5/CapSense.c ****             snsType &= ~CapSense_COMPLEX_SS_FLAG;
1211:Generated_Source\PSoC5/CapSense.c ****             index = &CapSense_indexTable[snsType];
1212:Generated_Source\PSoC5/CapSense.c ****             snsNumber = CapSense_maskTable[slot];
1213:Generated_Source\PSoC5/CapSense.c ****                         
ARM GAS  C:\Users\Xwx47\AppData\Local\Temp\ccd0GhAc.s 			page 26


1214:Generated_Source\PSoC5/CapSense.c ****             for (j=0u; j < snsNumber; j++)
1215:Generated_Source\PSoC5/CapSense.c ****             {
1216:Generated_Source\PSoC5/CapSense.c ****                 CapSense_DisableSensor(index[j]);
1217:Generated_Source\PSoC5/CapSense.c ****             }
1218:Generated_Source\PSoC5/CapSense.c ****         } 
1219:Generated_Source\PSoC5/CapSense.c ****     }
1220:Generated_Source\PSoC5/CapSense.c **** #endif  /* CapSense_IS_COMPLEX_SCANSLOTS */
1221:Generated_Source\PSoC5/CapSense.c **** 
1222:Generated_Source\PSoC5/CapSense.c **** 
1223:Generated_Source\PSoC5/CapSense.c **** /*******************************************************************************
1224:Generated_Source\PSoC5/CapSense.c **** * Function Name: CapSense_EnableSensor
1225:Generated_Source\PSoC5/CapSense.c **** ********************************************************************************
1226:Generated_Source\PSoC5/CapSense.c **** *
1227:Generated_Source\PSoC5/CapSense.c **** * Summary:
1228:Generated_Source\PSoC5/CapSense.c **** *  Configures the selected sensor to measure during the next measurement cycle.
1229:Generated_Source\PSoC5/CapSense.c **** *  The corresponding pins are set to Analog High-Z mode and connected to the
1230:Generated_Source\PSoC5/CapSense.c **** *  Analog Mux Bus. This also enables the comparator function.
1231:Generated_Source\PSoC5/CapSense.c **** *
1232:Generated_Source\PSoC5/CapSense.c **** * Parameters:
1233:Generated_Source\PSoC5/CapSense.c **** *  sensor:  Sensor number.
1234:Generated_Source\PSoC5/CapSense.c **** *
1235:Generated_Source\PSoC5/CapSense.c **** * Return:
1236:Generated_Source\PSoC5/CapSense.c **** *  None
1237:Generated_Source\PSoC5/CapSense.c **** *
1238:Generated_Source\PSoC5/CapSense.c **** * Global Variables:
1239:Generated_Source\PSoC5/CapSense.c **** *  CapSense_portTable[] - used to store the port number that pin 
1240:Generated_Source\PSoC5/CapSense.c **** *  belongs to for every sensor.
1241:Generated_Source\PSoC5/CapSense.c **** *  CapSense_maskTable[] - used to store the pin within the port for 
1242:Generated_Source\PSoC5/CapSense.c **** *  every sensor.
1243:Generated_Source\PSoC5/CapSense.c **** *  CapSense_csTable[]   - used to store the pointers to CAPS_SEL 
1244:Generated_Source\PSoC5/CapSense.c **** *  registers for every port.
1245:Generated_Source\PSoC5/CapSense.c **** *  CapSense_pcTable[]   - used to store the pointers to PC pin 
1246:Generated_Source\PSoC5/CapSense.c **** *  register for every sensor.
1247:Generated_Source\PSoC5/CapSense.c **** *  CapSense_amuxIndex[] - used to store corrected AMUX index when 
1248:Generated_Source\PSoC5/CapSense.c **** *  complex sensors are defeined.
1249:Generated_Source\PSoC5/CapSense.c **** *
1250:Generated_Source\PSoC5/CapSense.c **** *******************************************************************************/
1251:Generated_Source\PSoC5/CapSense.c **** void CapSense_EnableSensor(uint8 sensor) CYREENTRANT
1252:Generated_Source\PSoC5/CapSense.c **** {
 207              		.loc 1 1252 0
 208              		.cfi_startproc
 209              		@ args = 0, pretend = 0, frame = 0
 210              		@ frame_needed = 0, uses_anonymous_args = 0
 211              		@ link register save eliminated.
 212              	.LVL14:
1253:Generated_Source\PSoC5/CapSense.c ****     uint8 port = CapSense_portTable[sensor];
 213              		.loc 1 1253 0
 214 0000 0A4B     		ldr	r3, .L24
1252:Generated_Source\PSoC5/CapSense.c ****     uint8 port = CapSense_portTable[sensor];
 215              		.loc 1 1252 0
 216 0002 30B4     		push	{r4, r5}
 217              		.cfi_def_cfa_offset 8
 218              		.cfi_offset 4, -8
 219              		.cfi_offset 5, -4
 220              		.loc 1 1253 0
 221 0004 195C     		ldrb	r1, [r3, r0]	@ zero_extendqisi2
 222              	.LVL15:
ARM GAS  C:\Users\Xwx47\AppData\Local\Temp\ccd0GhAc.s 			page 27


1254:Generated_Source\PSoC5/CapSense.c ****     uint8 mask = CapSense_maskTable[sensor];
1255:Generated_Source\PSoC5/CapSense.c ****     
1256:Generated_Source\PSoC5/CapSense.c ****     #if ((CapSense_DESIGN_TYPE == CapSense_TWO_CHANNELS_DESIGN) && \
1257:Generated_Source\PSoC5/CapSense.c ****          (CapSense_IS_COMPLEX_SCANSLOTS))
1258:Generated_Source\PSoC5/CapSense.c ****         uint8 amuxCh = CapSense_amuxIndex[sensor];
1259:Generated_Source\PSoC5/CapSense.c ****     #endif  /* ((CapSense_DESIGN_TYPE == CapSense_TWO_CHANNELS_DESIGN) && \
1260:Generated_Source\PSoC5/CapSense.c ****             *   (CapSense_IS_COMPLEX_SCANSLOTS))
1261:Generated_Source\PSoC5/CapSense.c ****             */
1262:Generated_Source\PSoC5/CapSense.c ****     
1263:Generated_Source\PSoC5/CapSense.c ****     /* Make sensor High-Z */
1264:Generated_Source\PSoC5/CapSense.c ****     *CapSense_pcTable[sensor] = CapSense_PRT_PC_HIGHZ;
 223              		.loc 1 1264 0
 224 0006 03EB8002 		add	r2, r3, r0, lsl #2
1265:Generated_Source\PSoC5/CapSense.c ****     
1266:Generated_Source\PSoC5/CapSense.c ****     /* Connect to DSI output */
1267:Generated_Source\PSoC5/CapSense.c **** 	if(port == 15u)
 225              		.loc 1 1267 0
 226 000a 0F29     		cmp	r1, #15
1264:Generated_Source\PSoC5/CapSense.c ****     
 227              		.loc 1 1264 0
 228 000c 9268     		ldr	r2, [r2, #8]
1268:Generated_Source\PSoC5/CapSense.c **** 	{
1269:Generated_Source\PSoC5/CapSense.c **** 		port = 7u;
 229              		.loc 1 1269 0
 230 000e 08BF     		it	eq
 231 0010 0721     		moveq	r1, #7
 232              	.LVL16:
1254:Generated_Source\PSoC5/CapSense.c ****     
 233              		.loc 1 1254 0
 234 0012 1C18     		adds	r4, r3, r0
 235              	.LVL17:
1264:Generated_Source\PSoC5/CapSense.c ****     
 236              		.loc 1 1264 0
 237 0014 0925     		movs	r5, #9
1270:Generated_Source\PSoC5/CapSense.c **** 	}
1271:Generated_Source\PSoC5/CapSense.c ****     *CapSense_csTable[port] |= mask;
 238              		.loc 1 1271 0
 239 0016 03EB8103 		add	r3, r3, r1, lsl #2
1264:Generated_Source\PSoC5/CapSense.c ****     
 240              		.loc 1 1264 0
 241 001a 1570     		strb	r5, [r2]
 242              		.loc 1 1271 0
 243 001c 5A69     		ldr	r2, [r3, #20]
1254:Generated_Source\PSoC5/CapSense.c ****     
 244              		.loc 1 1254 0
 245 001e E478     		ldrb	r4, [r4, #3]	@ zero_extendqisi2
 246              	.LVL18:
 247              		.loc 1 1271 0
 248 0020 1378     		ldrb	r3, [r2]	@ zero_extendqisi2
 249 0022 2343     		orrs	r3, r3, r4
 250 0024 1370     		strb	r3, [r2]
1272:Generated_Source\PSoC5/CapSense.c ****     
1273:Generated_Source\PSoC5/CapSense.c ****     /* Connect to AMUX */
1274:Generated_Source\PSoC5/CapSense.c ****     #if (CapSense_DESIGN_TYPE == CapSense_ONE_CHANNEL_DESIGN)
1275:Generated_Source\PSoC5/CapSense.c ****         #if (CapSense_IS_COMPLEX_SCANSLOTS)
1276:Generated_Source\PSoC5/CapSense.c ****             CapSense_AMuxCH0_Connect(CapSense_amuxIndex[sensor]);
1277:Generated_Source\PSoC5/CapSense.c ****         #else
ARM GAS  C:\Users\Xwx47\AppData\Local\Temp\ccd0GhAc.s 			page 28


1278:Generated_Source\PSoC5/CapSense.c ****             CapSense_AMuxCH0_Connect(sensor);
1279:Generated_Source\PSoC5/CapSense.c ****         #endif  /* CapSense_IS_COMPLEX_SCANSLOTS */
1280:Generated_Source\PSoC5/CapSense.c ****                 
1281:Generated_Source\PSoC5/CapSense.c ****     #else
1282:Generated_Source\PSoC5/CapSense.c ****         #if (CapSense_IS_COMPLEX_SCANSLOTS)
1283:Generated_Source\PSoC5/CapSense.c ****             if ((amuxCh & CapSense_CHANNEL1_FLAG) == 0u)
1284:Generated_Source\PSoC5/CapSense.c ****             {
1285:Generated_Source\PSoC5/CapSense.c ****                 CapSense_AMuxCH0_Connect(amuxCh);
1286:Generated_Source\PSoC5/CapSense.c ****             } 
1287:Generated_Source\PSoC5/CapSense.c ****             else
1288:Generated_Source\PSoC5/CapSense.c ****             {
1289:Generated_Source\PSoC5/CapSense.c ****                 amuxCh &= ~ CapSense_CHANNEL1_FLAG;
1290:Generated_Source\PSoC5/CapSense.c ****                 CapSense_AMuxCH1_Connect(amuxCh);
1291:Generated_Source\PSoC5/CapSense.c ****             }
1292:Generated_Source\PSoC5/CapSense.c ****             
1293:Generated_Source\PSoC5/CapSense.c ****         #else
1294:Generated_Source\PSoC5/CapSense.c ****             if (sensor < CapSense_TOTAL_SENSOR_COUNT__CH0) 
1295:Generated_Source\PSoC5/CapSense.c ****             {
1296:Generated_Source\PSoC5/CapSense.c ****                 CapSense_AMuxCH0_Connect(sensor);
1297:Generated_Source\PSoC5/CapSense.c ****             } 
1298:Generated_Source\PSoC5/CapSense.c ****             else
1299:Generated_Source\PSoC5/CapSense.c ****             {
1300:Generated_Source\PSoC5/CapSense.c ****                 CapSense_AMuxCH1_Connect(sensor - CapSense_TOTAL_SENSOR_COUNT__CH0);
1301:Generated_Source\PSoC5/CapSense.c ****             }
1302:Generated_Source\PSoC5/CapSense.c ****             
1303:Generated_Source\PSoC5/CapSense.c ****         #endif  /* CapSense_IS_COMPLEX_SCANSLOTS */
1304:Generated_Source\PSoC5/CapSense.c ****         
1305:Generated_Source\PSoC5/CapSense.c ****     #endif  /* CapSense_DESIGN_TYPE == CapSense_ONE_CHANNEL_DESIGN */
1306:Generated_Source\PSoC5/CapSense.c **** }
 251              		.loc 1 1306 0
 252 0026 30BC     		pop	{r4, r5}
 253              		.cfi_restore 5
 254              		.cfi_restore 4
 255              		.cfi_def_cfa_offset 0
 256              	.LVL19:
1278:Generated_Source\PSoC5/CapSense.c ****         #endif  /* CapSense_IS_COMPLEX_SCANSLOTS */
 257              		.loc 1 1278 0
 258 0028 FFF7FEBF 		b	CapSense_AMuxCH0_Set
 259              	.LVL20:
 260              	.L25:
 261              		.align	2
 262              	.L24:
 263 002c 00000000 		.word	.LANCHOR1
 264              		.cfi_endproc
 265              	.LFE11:
 266              		.size	CapSense_EnableSensor, .-CapSense_EnableSensor
 267              		.section	.text.CapSense_DisableSensor,"ax",%progbits
 268              		.align	1
 269              		.global	CapSense_DisableSensor
 270              		.thumb
 271              		.thumb_func
 272              		.type	CapSense_DisableSensor, %function
 273              	CapSense_DisableSensor:
 274              	.LFB12:
1307:Generated_Source\PSoC5/CapSense.c **** 
1308:Generated_Source\PSoC5/CapSense.c **** 
1309:Generated_Source\PSoC5/CapSense.c **** /*******************************************************************************
ARM GAS  C:\Users\Xwx47\AppData\Local\Temp\ccd0GhAc.s 			page 29


1310:Generated_Source\PSoC5/CapSense.c **** * Function Name: CapSense_DisableSensor
1311:Generated_Source\PSoC5/CapSense.c **** ********************************************************************************
1312:Generated_Source\PSoC5/CapSense.c **** *
1313:Generated_Source\PSoC5/CapSense.c **** * Summary:
1314:Generated_Source\PSoC5/CapSense.c **** *  Disables the selected sensor. The corresponding pin is disconnected from the
1315:Generated_Source\PSoC5/CapSense.c **** *  Analog Mux Bus and connected to GND, High_Z or Shield electrode.
1316:Generated_Source\PSoC5/CapSense.c **** *
1317:Generated_Source\PSoC5/CapSense.c **** * Parameters:
1318:Generated_Source\PSoC5/CapSense.c **** *  sensor:  Sensor number
1319:Generated_Source\PSoC5/CapSense.c **** *
1320:Generated_Source\PSoC5/CapSense.c **** * Return:
1321:Generated_Source\PSoC5/CapSense.c **** *  None
1322:Generated_Source\PSoC5/CapSense.c **** *
1323:Generated_Source\PSoC5/CapSense.c **** * Global Variables:
1324:Generated_Source\PSoC5/CapSense.c **** *  CapSense_portTable[] - used to store the port number that pin 
1325:Generated_Source\PSoC5/CapSense.c **** *  belongs to for every sensor.
1326:Generated_Source\PSoC5/CapSense.c **** *  CapSense_maskTable[] - used to store the pin within the port for 
1327:Generated_Source\PSoC5/CapSense.c **** *  every sensor.
1328:Generated_Source\PSoC5/CapSense.c **** *  CapSense_csTable[]   - used to store the pointers to CAPS_SEL 
1329:Generated_Source\PSoC5/CapSense.c **** *  registers for every port.
1330:Generated_Source\PSoC5/CapSense.c **** *  CapSense_pcTable[]   - used to store the pointers to PC pin 
1331:Generated_Source\PSoC5/CapSense.c **** *  register for every sensor.
1332:Generated_Source\PSoC5/CapSense.c **** *  CapSense_amuxIndex[] - used to store corrected AMUX index when 
1333:Generated_Source\PSoC5/CapSense.c **** *  complex sensors are defeined.
1334:Generated_Source\PSoC5/CapSense.c **** *
1335:Generated_Source\PSoC5/CapSense.c **** *******************************************************************************/
1336:Generated_Source\PSoC5/CapSense.c **** void CapSense_DisableSensor(uint8 sensor) CYREENTRANT
1337:Generated_Source\PSoC5/CapSense.c **** {
 275              		.loc 1 1337 0
 276              		.cfi_startproc
 277              		@ args = 0, pretend = 0, frame = 0
 278              		@ frame_needed = 0, uses_anonymous_args = 0
 279              	.LVL21:
 280 0000 F8B5     		push	{r3, r4, r5, r6, r7, lr}
 281              		.cfi_def_cfa_offset 24
 282              		.cfi_offset 3, -24
 283              		.cfi_offset 4, -20
 284              		.cfi_offset 5, -16
 285              		.cfi_offset 6, -12
 286              		.cfi_offset 7, -8
 287              		.cfi_offset 14, -4
 288              		.loc 1 1337 0
 289 0002 0646     		mov	r6, r0
1338:Generated_Source\PSoC5/CapSense.c ****     uint8 port = CapSense_portTable[sensor];
 290              		.loc 1 1338 0
 291 0004 0A4C     		ldr	r4, .L28
 292 0006 255C     		ldrb	r5, [r4, r0]	@ zero_extendqisi2
 293              	.LVL22:
1339:Generated_Source\PSoC5/CapSense.c ****     uint8 mask = CapSense_maskTable[sensor];
 294              		.loc 1 1339 0
 295 0008 2318     		adds	r3, r4, r0
 296 000a DF78     		ldrb	r7, [r3, #3]	@ zero_extendqisi2
 297              	.LVL23:
1340:Generated_Source\PSoC5/CapSense.c ****     
1341:Generated_Source\PSoC5/CapSense.c ****     #if ((CapSense_DESIGN_TYPE == CapSense_TWO_CHANNELS_DESIGN) && \
1342:Generated_Source\PSoC5/CapSense.c ****          (CapSense_IS_COMPLEX_SCANSLOTS))
1343:Generated_Source\PSoC5/CapSense.c ****         uint8 amuxCh = CapSense_amuxIndex[sensor];
ARM GAS  C:\Users\Xwx47\AppData\Local\Temp\ccd0GhAc.s 			page 30


1344:Generated_Source\PSoC5/CapSense.c ****     #endif  /* ((CapSense_DESIGN_TYPE == CapSense_TWO_CHANNELS_DESIGN) && \
1345:Generated_Source\PSoC5/CapSense.c ****             *   (CapSense_IS_COMPLEX_SCANSLOTS))
1346:Generated_Source\PSoC5/CapSense.c ****             */
1347:Generated_Source\PSoC5/CapSense.c ****     
1348:Generated_Source\PSoC5/CapSense.c ****     /* Disconnect from AMUX */
1349:Generated_Source\PSoC5/CapSense.c ****     #if (CapSense_DESIGN_TYPE == CapSense_ONE_CHANNEL_DESIGN)
1350:Generated_Source\PSoC5/CapSense.c ****         #if (CapSense_IS_COMPLEX_SCANSLOTS)
1351:Generated_Source\PSoC5/CapSense.c ****             CapSense_AMuxCH0_Disconnect(CapSense_amuxIndex[sensor]);
1352:Generated_Source\PSoC5/CapSense.c ****         #else
1353:Generated_Source\PSoC5/CapSense.c ****             CapSense_AMuxCH0_Disconnect(sensor);
 298              		.loc 1 1353 0
 299 000c FFF7FEFF 		bl	CapSense_AMuxCH0_Unset
 300              	.LVL24:
1354:Generated_Source\PSoC5/CapSense.c ****         #endif  /* CapSense_IS_COMPLEX_SCANSLOTS */
1355:Generated_Source\PSoC5/CapSense.c ****                 
1356:Generated_Source\PSoC5/CapSense.c ****     #else
1357:Generated_Source\PSoC5/CapSense.c ****         #if (CapSense_IS_COMPLEX_SCANSLOTS)
1358:Generated_Source\PSoC5/CapSense.c ****             if ((amuxCh & CapSense_CHANNEL1_FLAG) == 0u)
1359:Generated_Source\PSoC5/CapSense.c ****             {
1360:Generated_Source\PSoC5/CapSense.c ****                 CapSense_AMuxCH0_Disconnect(amuxCh);
1361:Generated_Source\PSoC5/CapSense.c ****             } 
1362:Generated_Source\PSoC5/CapSense.c ****             else
1363:Generated_Source\PSoC5/CapSense.c ****             {
1364:Generated_Source\PSoC5/CapSense.c ****                 amuxCh &= ~ CapSense_CHANNEL1_FLAG;
1365:Generated_Source\PSoC5/CapSense.c ****                 CapSense_AMuxCH1_Disconnect(amuxCh);
1366:Generated_Source\PSoC5/CapSense.c ****             }
1367:Generated_Source\PSoC5/CapSense.c ****             
1368:Generated_Source\PSoC5/CapSense.c ****         #else
1369:Generated_Source\PSoC5/CapSense.c ****             if (sensor < CapSense_TOTAL_SENSOR_COUNT__CH0) 
1370:Generated_Source\PSoC5/CapSense.c ****             {
1371:Generated_Source\PSoC5/CapSense.c ****                 CapSense_AMuxCH0_Disconnect(sensor);
1372:Generated_Source\PSoC5/CapSense.c ****             } 
1373:Generated_Source\PSoC5/CapSense.c ****             else
1374:Generated_Source\PSoC5/CapSense.c ****             {
1375:Generated_Source\PSoC5/CapSense.c ****                 CapSense_AMuxCH1_Disconnect(sensor - CapSense_TOTAL_SENSOR_COUNT__CH0);
1376:Generated_Source\PSoC5/CapSense.c ****             }
1377:Generated_Source\PSoC5/CapSense.c ****             
1378:Generated_Source\PSoC5/CapSense.c ****         #endif  /* CapSense_IS_COMPLEX_SCANSLOTS */
1379:Generated_Source\PSoC5/CapSense.c ****         
1380:Generated_Source\PSoC5/CapSense.c ****     #endif  /* CapSense_DESIGN_TYPE */
1381:Generated_Source\PSoC5/CapSense.c ****     
1382:Generated_Source\PSoC5/CapSense.c ****     /* Disconnect from DSI output */
1383:Generated_Source\PSoC5/CapSense.c **** 	if(port == 15u)
 301              		.loc 1 1383 0
 302 0010 0F2D     		cmp	r5, #15
1384:Generated_Source\PSoC5/CapSense.c **** 	{
1385:Generated_Source\PSoC5/CapSense.c **** 		port = 7u;
 303              		.loc 1 1385 0
 304 0012 08BF     		it	eq
 305 0014 0725     		moveq	r5, #7
 306              	.LVL25:
1386:Generated_Source\PSoC5/CapSense.c **** 	}
1387:Generated_Source\PSoC5/CapSense.c ****     *CapSense_csTable[port] &= (uint8)~mask;
 307              		.loc 1 1387 0
 308 0016 04EB8505 		add	r5, r4, r5, lsl #2
 309              	.LVL26:
 310 001a 6A69     		ldr	r2, [r5, #20]
ARM GAS  C:\Users\Xwx47\AppData\Local\Temp\ccd0GhAc.s 			page 31


1388:Generated_Source\PSoC5/CapSense.c ****     
1389:Generated_Source\PSoC5/CapSense.c ****     /* Set sensor to inactive state */
1390:Generated_Source\PSoC5/CapSense.c ****     #if (CapSense_CONNECT_INACTIVE_SNS == CapSense_CIS_GND)
1391:Generated_Source\PSoC5/CapSense.c ****         *CapSense_pcTable[sensor] = CapSense_PRT_PC_GND;
 311              		.loc 1 1391 0
 312 001c 04EB8604 		add	r4, r4, r6, lsl #2
 313              	.LVL27:
1387:Generated_Source\PSoC5/CapSense.c ****     
 314              		.loc 1 1387 0
 315 0020 1378     		ldrb	r3, [r2]	@ zero_extendqisi2
 316 0022 23EA0703 		bic	r3, r3, r7
 317 0026 1370     		strb	r3, [r2]
 318              		.loc 1 1391 0
 319 0028 A368     		ldr	r3, [r4, #8]
 320 002a 0822     		movs	r2, #8
 321 002c 1A70     		strb	r2, [r3]
 322 002e F8BD     		pop	{r3, r4, r5, r6, r7, pc}
 323              	.LVL28:
 324              	.L29:
 325              		.align	2
 326              	.L28:
 327 0030 00000000 		.word	.LANCHOR1
 328              		.cfi_endproc
 329              	.LFE12:
 330              		.size	CapSense_DisableSensor, .-CapSense_DisableSensor
 331              		.section	.text.CapSense_ClearSensors,"ax",%progbits
 332              		.align	1
 333              		.global	CapSense_ClearSensors
 334              		.thumb
 335              		.thumb_func
 336              		.type	CapSense_ClearSensors, %function
 337              	CapSense_ClearSensors:
 338              	.LFB10:
1102:Generated_Source\PSoC5/CapSense.c ****     uint8 i;
 339              		.loc 1 1102 0
 340              		.cfi_startproc
 341              		@ args = 0, pretend = 0, frame = 0
 342              		@ frame_needed = 0, uses_anonymous_args = 0
 343              	.LVL29:
 344 0000 08B5     		push	{r3, lr}
 345              		.cfi_def_cfa_offset 8
 346              		.cfi_offset 3, -8
 347              		.cfi_offset 14, -4
1107:Generated_Source\PSoC5/CapSense.c ****     }
 348              		.loc 1 1107 0
 349 0002 0020     		movs	r0, #0
 350 0004 FFF7FEFF 		bl	CapSense_DisableSensor
 351              	.LVL30:
 352 0008 0120     		movs	r0, #1
 353 000a FFF7FEFF 		bl	CapSense_DisableSensor
 354              	.LVL31:
1109:Generated_Source\PSoC5/CapSense.c **** 
 355              		.loc 1 1109 0
 356 000e BDE80840 		pop	{r3, lr}
 357              		.cfi_restore 14
 358              		.cfi_restore 3
 359              		.cfi_def_cfa_offset 0
ARM GAS  C:\Users\Xwx47\AppData\Local\Temp\ccd0GhAc.s 			page 32


1107:Generated_Source\PSoC5/CapSense.c ****     }
 360              		.loc 1 1107 0
 361 0012 0220     		movs	r0, #2
 362 0014 FFF7FEBF 		b	CapSense_DisableSensor
 363              	.LVL32:
 364              		.cfi_endproc
 365              	.LFE10:
 366              		.size	CapSense_ClearSensors, .-CapSense_ClearSensors
 367              		.section	.text.CapSense_Stop,"ax",%progbits
 368              		.align	1
 369              		.global	CapSense_Stop
 370              		.thumb
 371              		.thumb_func
 372              		.type	CapSense_Stop, %function
 373              	CapSense_Stop:
 374              	.LFB3:
 522:Generated_Source\PSoC5/CapSense.c ****     /* Stop Capsensing */
 375              		.loc 1 522 0
 376              		.cfi_startproc
 377              		@ args = 0, pretend = 0, frame = 0
 378              		@ frame_needed = 0, uses_anonymous_args = 0
 379 0000 10B5     		push	{r4, lr}
 380              		.cfi_def_cfa_offset 8
 381              		.cfi_offset 4, -8
 382              		.cfi_offset 14, -4
 524:Generated_Source\PSoC5/CapSense.c ****     
 383              		.loc 1 524 0
 384 0002 154C     		ldr	r4, .L32
 527:Generated_Source\PSoC5/CapSense.c ****     #if (CapSense_DESIGN_TYPE == CapSense_TWO_CHANNELS_DESIGN) 
 385              		.loc 1 527 0
 386 0004 0122     		movs	r2, #1
 524:Generated_Source\PSoC5/CapSense.c ****     
 387              		.loc 1 524 0
 388 0006 2378     		ldrb	r3, [r4]	@ zero_extendqisi2
 389 0008 03F0FD03 		and	r3, r3, #253
 390 000c 2370     		strb	r3, [r4]
 527:Generated_Source\PSoC5/CapSense.c ****     #if (CapSense_DESIGN_TYPE == CapSense_TWO_CHANNELS_DESIGN) 
 391              		.loc 1 527 0
 392 000e 134B     		ldr	r3, .L32+4
 393 0010 1A60     		str	r2, [r3]
 533:Generated_Source\PSoC5/CapSense.c ****     
 394              		.loc 1 533 0
 395 0012 FFF7FEFF 		bl	CapSense_ClearSensors
 396              	.LVL33:
 547:Generated_Source\PSoC5/CapSense.c ****     
 397              		.loc 1 547 0
 398 0016 124A     		ldr	r2, .L32+8
 399 0018 1378     		ldrb	r3, [r2]	@ zero_extendqisi2
 400 001a 03F0DF03 		and	r3, r3, #223
 401 001e 1370     		strb	r3, [r2]
 586:Generated_Source\PSoC5/CapSense.c ****     #endif  /* CapSense_CLOCK_SOURCE */
 402              		.loc 1 586 0
 403 0020 FFF7FEFF 		bl	CapSense_IntClock_Stop
 404              	.LVL34:
 590:Generated_Source\PSoC5/CapSense.c ****     #if (CapSense_CURRENT_SOURCE)
 405              		.loc 1 590 0
 406 0024 FFF7FEFF 		bl	CapSense_CompCH0_Stop
ARM GAS  C:\Users\Xwx47\AppData\Local\Temp\ccd0GhAc.s 			page 33


 407              	.LVL35:
 592:Generated_Source\PSoC5/CapSense.c ****     #endif  /* CapSense_CURRENT_SOURCE */
 408              		.loc 1 592 0
 409 0028 FFF7FEFF 		bl	CapSense_IdacCH0_Stop
 410              	.LVL36:
 614:Generated_Source\PSoC5/CapSense.c ****         CapSense_BufCH0_ACT_PWRMGR_REG &= (uint8)(~CapSense_BufCH0_ACT_PWR_EN);
 411              		.loc 1 614 0
 412 002c 0D4A     		ldr	r2, .L32+12
 413 002e 1378     		ldrb	r3, [r2]	@ zero_extendqisi2
 414 0030 03F0FE03 		and	r3, r3, #254
 415 0034 1370     		strb	r3, [r2]
 615:Generated_Source\PSoC5/CapSense.c ****         CapSense_BufCH0_STBY_PWRMGR_REG &= (uint8)(~CapSense_BufCH0_STBY_PWR_EN);
 416              		.loc 1 615 0
 417 0036 A2F5A652 		sub	r2, r2, #5312
 418 003a 053A     		subs	r2, r2, #5
 419 003c 1378     		ldrb	r3, [r2]	@ zero_extendqisi2
 420 003e 03F0EF03 		and	r3, r3, #239
 421 0042 1370     		strb	r3, [r2]
 616:Generated_Source\PSoC5/CapSense.c ****         
 422              		.loc 1 616 0
 423 0044 137C     		ldrb	r3, [r2, #16]	@ zero_extendqisi2
 424 0046 03F0EF03 		and	r3, r3, #239
 425 004a 1374     		strb	r3, [r2, #16]
 626:Generated_Source\PSoC5/CapSense.c **** }
 426              		.loc 1 626 0
 427 004c 2378     		ldrb	r3, [r4]	@ zero_extendqisi2
 428 004e 03F07F03 		and	r3, r3, #127
 429 0052 2370     		strb	r3, [r4]
 430 0054 10BD     		pop	{r4, pc}
 431              	.L33:
 432 0056 00BF     		.align	2
 433              	.L32:
 434 0058 79640040 		.word	1073767545
 435 005c 80E100E0 		.word	-536813184
 436 0060 9A640040 		.word	1073767578
 437 0064 70580040 		.word	1073764464
 438              		.cfi_endproc
 439              	.LFE3:
 440              		.size	CapSense_Stop, .-CapSense_Stop
 441              		.section	.text.CapSense_PostScan,"ax",%progbits
 442              		.align	1
 443              		.global	CapSense_PostScan
 444              		.thumb
 445              		.thumb_func
 446              		.type	CapSense_PostScan, %function
 447              	CapSense_PostScan:
 448              	.LFB14:
1392:Generated_Source\PSoC5/CapSense.c ****     #elif (CapSense_CONNECT_INACTIVE_SNS == CapSense_CIS_HIGHZ)
1393:Generated_Source\PSoC5/CapSense.c ****         *CapSense_pcTable[sensor] = CapSense_PRT_PC_HIGHZ;
1394:Generated_Source\PSoC5/CapSense.c ****     #else
1395:Generated_Source\PSoC5/CapSense.c ****         *CapSense_pcTable[sensor] = CapSense_PRT_PC_SHIELD;
1396:Generated_Source\PSoC5/CapSense.c ****     #endif  /* (CapSense_CONNECT_INACTIVE_SNS == CapSense_CIS_GND) */
1397:Generated_Source\PSoC5/CapSense.c **** }
1398:Generated_Source\PSoC5/CapSense.c **** 
1399:Generated_Source\PSoC5/CapSense.c **** 
1400:Generated_Source\PSoC5/CapSense.c **** /*******************************************************************************
1401:Generated_Source\PSoC5/CapSense.c **** * Function Name: CapSense_PreScan
ARM GAS  C:\Users\Xwx47\AppData\Local\Temp\ccd0GhAc.s 			page 34


1402:Generated_Source\PSoC5/CapSense.c **** ********************************************************************************
1403:Generated_Source\PSoC5/CapSense.c **** *
1404:Generated_Source\PSoC5/CapSense.c **** * Summary:
1405:Generated_Source\PSoC5/CapSense.c **** *  Set required settings, enable sensor, remove Vref from AMUX and start the 
1406:Generated_Source\PSoC5/CapSense.c **** *  scanning process of the sensor.
1407:Generated_Source\PSoC5/CapSense.c **** *
1408:Generated_Source\PSoC5/CapSense.c **** * Parameters:
1409:Generated_Source\PSoC5/CapSense.c **** *  sensor:  Sensor number.
1410:Generated_Source\PSoC5/CapSense.c **** *
1411:Generated_Source\PSoC5/CapSense.c **** * Return:
1412:Generated_Source\PSoC5/CapSense.c **** *  None
1413:Generated_Source\PSoC5/CapSense.c **** *
1414:Generated_Source\PSoC5/CapSense.c **** * Global Variables:
1415:Generated_Source\PSoC5/CapSense.c **** *  CapSense_rbTable[] - used to store pointers to PC pin registers for 
1416:Generated_Source\PSoC5/CapSense.c **** *  every bleed resistor (Rb). Only available when Current Source is External 
1417:Generated_Source\PSoC5/CapSense.c **** *  resistor.
1418:Generated_Source\PSoC5/CapSense.c **** *
1419:Generated_Source\PSoC5/CapSense.c **** *******************************************************************************/
1420:Generated_Source\PSoC5/CapSense.c **** void CapSense_PreScan(uint8 sensor) CYREENTRANT
1421:Generated_Source\PSoC5/CapSense.c **** {
1422:Generated_Source\PSoC5/CapSense.c ****     /* Set Sensor Settings */
1423:Generated_Source\PSoC5/CapSense.c ****     CapSense_SetScanSlotSettings(sensor);
1424:Generated_Source\PSoC5/CapSense.c ****     
1425:Generated_Source\PSoC5/CapSense.c ****     /* Place disable interrupts here to eliminate influence on start of scanning */
1426:Generated_Source\PSoC5/CapSense.c ****     /* `#START CapSense_PreScan_DisableInt` */
1427:Generated_Source\PSoC5/CapSense.c **** 
1428:Generated_Source\PSoC5/CapSense.c ****     /* `#END` */
1429:Generated_Source\PSoC5/CapSense.c ****     
1430:Generated_Source\PSoC5/CapSense.c ****     #ifdef CapSense_PRE_SCAN_DISABLE_INT_CALLBACK
1431:Generated_Source\PSoC5/CapSense.c ****     CapSense_PreScan_DisableInt_Callback();
1432:Generated_Source\PSoC5/CapSense.c ****     #endif /* CapSense_PRE_SCAN_DISABLE_INT_CALLBACK */
1433:Generated_Source\PSoC5/CapSense.c **** 
1434:Generated_Source\PSoC5/CapSense.c ****     /* Resets digital and pre-charge clocks */
1435:Generated_Source\PSoC5/CapSense.c ****     CapSense_CONTROL_REG |= CapSense_CTRL_SYNC_EN;
1436:Generated_Source\PSoC5/CapSense.c ****         
1437:Generated_Source\PSoC5/CapSense.c ****     #if (CapSense_DESIGN_TYPE == CapSense_ONE_CHANNEL_DESIGN)
1438:Generated_Source\PSoC5/CapSense.c ****         #if (CapSense_CURRENT_SOURCE == CapSense_IDAC_SOURCE)
1439:Generated_Source\PSoC5/CapSense.c ****             /* Disable Vref from AMux */
1440:Generated_Source\PSoC5/CapSense.c ****             #if (CapSense_VREF_VDAC == CapSense_VREF_OPTIONS)
1441:Generated_Source\PSoC5/CapSense.c ****                 CapSense_AMuxCH0_Disconnect(CapSense_AMuxCH0_VREF_CHANNEL);
1442:Generated_Source\PSoC5/CapSense.c ****             #else
1443:Generated_Source\PSoC5/CapSense.c ****                 CapSense_BufCH0_CAPS_CFG0_REG &= ~CapSense_CSBUF_ENABLE;
1444:Generated_Source\PSoC5/CapSense.c ****             #endif  /* (CapSense_VREF_VDAC != CapSense_VREF_OPTIONS) */
1445:Generated_Source\PSoC5/CapSense.c **** 
1446:Generated_Source\PSoC5/CapSense.c ****             /* Enable Sensor */
1447:Generated_Source\PSoC5/CapSense.c ****             CapSense_EnableScanSlot(sensor);
1448:Generated_Source\PSoC5/CapSense.c ****             
1449:Generated_Source\PSoC5/CapSense.c ****         #elif (CapSense_CURRENT_SOURCE == CapSense_IDAC_SINK)
1450:Generated_Source\PSoC5/CapSense.c ****             /* Connect IDAC */
1451:Generated_Source\PSoC5/CapSense.c ****             CapSense_AMuxCH0_Connect(CapSense_AMuxCH0_IDAC_CHANNEL);
1452:Generated_Source\PSoC5/CapSense.c ****             
1453:Generated_Source\PSoC5/CapSense.c ****             /* Enable Sensor */
1454:Generated_Source\PSoC5/CapSense.c ****             CapSense_EnableScanSlot(sensor);
1455:Generated_Source\PSoC5/CapSense.c ****                 
1456:Generated_Source\PSoC5/CapSense.c ****             /* Disable CapSense Buffer */
1457:Generated_Source\PSoC5/CapSense.c ****             CapSense_BufCH0_CAPS_CFG0_REG &= (uint8)~CapSense_CSBUF_ENABLE;
1458:Generated_Source\PSoC5/CapSense.c ****             
ARM GAS  C:\Users\Xwx47\AppData\Local\Temp\ccd0GhAc.s 			page 35


1459:Generated_Source\PSoC5/CapSense.c ****         #else
1460:Generated_Source\PSoC5/CapSense.c ****             /* Connect DSI output to Rb */
1461:Generated_Source\PSoC5/CapSense.c ****             *CapSense_rbTable[CapSense_extRbCh0Cur] |= CapSense_BYP_MASK;
1462:Generated_Source\PSoC5/CapSense.c ****             
1463:Generated_Source\PSoC5/CapSense.c ****             /* Enable Sensor */
1464:Generated_Source\PSoC5/CapSense.c ****             CapSense_EnableScanSlot(sensor);
1465:Generated_Source\PSoC5/CapSense.c ****              
1466:Generated_Source\PSoC5/CapSense.c ****             /* Disable CapSense Buffer */
1467:Generated_Source\PSoC5/CapSense.c ****             CapSense_BufCH0_CAPS_CFG0_REG &= ~CapSense_CSBUF_ENABLE;
1468:Generated_Source\PSoC5/CapSense.c ****         
1469:Generated_Source\PSoC5/CapSense.c ****         #endif  /* (CapSense_CURRENT_SOURCE == CapSense_IDAC_SOURCE) */
1470:Generated_Source\PSoC5/CapSense.c ****         
1471:Generated_Source\PSoC5/CapSense.c ****     #else
1472:Generated_Source\PSoC5/CapSense.c **** 
1473:Generated_Source\PSoC5/CapSense.c ****         if((CapSense_CONTROL_REG & CapSense_CTRL_WINDOW_EN__CH0) != 0u)
1474:Generated_Source\PSoC5/CapSense.c ****         {
1475:Generated_Source\PSoC5/CapSense.c ****             #if (CapSense_CURRENT_SOURCE == CapSense_IDAC_SOURCE)
1476:Generated_Source\PSoC5/CapSense.c ****                 /* Disable Vref from AMux */
1477:Generated_Source\PSoC5/CapSense.c ****                 #if (CapSense_VREF_VDAC == CapSense_VREF_OPTIONS)
1478:Generated_Source\PSoC5/CapSense.c ****                     CapSense_AMuxCH0_Disconnect(CapSense_AMuxCH0_VREF_CHANNEL);
1479:Generated_Source\PSoC5/CapSense.c ****                 #else
1480:Generated_Source\PSoC5/CapSense.c ****                     CapSense_BufCH0_CAPS_CFG0_REG &= ~CapSense_CSBUF_ENABLE;
1481:Generated_Source\PSoC5/CapSense.c ****                 #endif  /* (CapSense_VREF_VDAC != CapSense_VREF_OPTIONS) */
1482:Generated_Source\PSoC5/CapSense.c ****                 
1483:Generated_Source\PSoC5/CapSense.c ****                 /* Enable Sensor */
1484:Generated_Source\PSoC5/CapSense.c ****                 CapSense_EnableScanSlot(sensor);
1485:Generated_Source\PSoC5/CapSense.c ****                 
1486:Generated_Source\PSoC5/CapSense.c ****             #elif (CapSense_CURRENT_SOURCE == CapSense_IDAC_SINK)
1487:Generated_Source\PSoC5/CapSense.c ****                 /* Connect IDAC */
1488:Generated_Source\PSoC5/CapSense.c ****                 CapSense_AMuxCH0_Connect(CapSense_AMuxCH0_IDAC_CHANNEL);
1489:Generated_Source\PSoC5/CapSense.c ****                 
1490:Generated_Source\PSoC5/CapSense.c ****                 /* Enable Sensor */
1491:Generated_Source\PSoC5/CapSense.c ****                 CapSense_EnableScanSlot(sensor);
1492:Generated_Source\PSoC5/CapSense.c ****                     
1493:Generated_Source\PSoC5/CapSense.c ****                 /* Disable Vref from AMux */
1494:Generated_Source\PSoC5/CapSense.c ****                 CapSense_BufCH0_CAPS_CFG0_REG &= ~CapSense_CSBUF_ENABLE;
1495:Generated_Source\PSoC5/CapSense.c ****                 
1496:Generated_Source\PSoC5/CapSense.c ****             #else
1497:Generated_Source\PSoC5/CapSense.c ****                 /* Connect DSI output to Rb */
1498:Generated_Source\PSoC5/CapSense.c ****                 *CapSense_rbTable[CapSense_extRbCh0Cur] |= CapSense_BYP_MASK;
1499:Generated_Source\PSoC5/CapSense.c ****                 
1500:Generated_Source\PSoC5/CapSense.c ****                 /* Enable Sensor */
1501:Generated_Source\PSoC5/CapSense.c ****                 CapSense_EnableScanSlot(sensor);
1502:Generated_Source\PSoC5/CapSense.c ****                     
1503:Generated_Source\PSoC5/CapSense.c ****                 /* Disable Vref from AMux */
1504:Generated_Source\PSoC5/CapSense.c ****                 CapSense_BufCH0_CAPS_CFG0_REG &= ~CapSense_CSBUF_ENABLE;
1505:Generated_Source\PSoC5/CapSense.c ****             
1506:Generated_Source\PSoC5/CapSense.c ****             #endif  /* (CapSense_CURRENT_SOURCE == CapSense_IDAC_SOURCE) */
1507:Generated_Source\PSoC5/CapSense.c ****             
1508:Generated_Source\PSoC5/CapSense.c ****         }
1509:Generated_Source\PSoC5/CapSense.c ****         
1510:Generated_Source\PSoC5/CapSense.c ****         if((CapSense_CONTROL_REG & CapSense_CTRL_WINDOW_EN__CH1) != 0u)
1511:Generated_Source\PSoC5/CapSense.c ****         {
1512:Generated_Source\PSoC5/CapSense.c ****             sensor += CapSense_TOTAL_SENSOR_COUNT__CH0;
1513:Generated_Source\PSoC5/CapSense.c ****             
1514:Generated_Source\PSoC5/CapSense.c ****             #if (CapSense_CURRENT_SOURCE == CapSense_IDAC_SOURCE)
1515:Generated_Source\PSoC5/CapSense.c ****                 /* Disable Vref from AMux */
ARM GAS  C:\Users\Xwx47\AppData\Local\Temp\ccd0GhAc.s 			page 36


1516:Generated_Source\PSoC5/CapSense.c ****                 #if (CapSense_VREF_VDAC == CapSense_VREF_OPTIONS)
1517:Generated_Source\PSoC5/CapSense.c ****                    CapSense_AMuxCH1_Disconnect(CapSense_AMuxCH1_VREF_CHANNEL);
1518:Generated_Source\PSoC5/CapSense.c ****                 #else 
1519:Generated_Source\PSoC5/CapSense.c ****                     CapSense_BufCH1_CAPS_CFG0_REG &= ~CapSense_CSBUF_ENABLE;
1520:Generated_Source\PSoC5/CapSense.c ****                 #endif  /* (CapSense_VREF_VDAC == CapSense_VREF_OPTIONS) */
1521:Generated_Source\PSoC5/CapSense.c ****                 
1522:Generated_Source\PSoC5/CapSense.c ****                 /* Enable Sensor */
1523:Generated_Source\PSoC5/CapSense.c ****                 CapSense_EnableScanSlot(sensor);
1524:Generated_Source\PSoC5/CapSense.c ****                 
1525:Generated_Source\PSoC5/CapSense.c ****             #elif (CapSense_CURRENT_SOURCE == CapSense_IDAC_SINK)
1526:Generated_Source\PSoC5/CapSense.c ****                 /* Connect IDAC */
1527:Generated_Source\PSoC5/CapSense.c ****                 CapSense_AMuxCH1_Connect(CapSense_AMuxCH1_IDAC_CHANNEL);
1528:Generated_Source\PSoC5/CapSense.c ****                 
1529:Generated_Source\PSoC5/CapSense.c ****                 /* Enable Sensor */
1530:Generated_Source\PSoC5/CapSense.c ****                 CapSense_EnableScanSlot(sensor);
1531:Generated_Source\PSoC5/CapSense.c ****                     
1532:Generated_Source\PSoC5/CapSense.c ****                 /* Disable Vref from AMux */
1533:Generated_Source\PSoC5/CapSense.c ****                 CapSense_BufCH1_CAPS_CFG0_REG &= ~CapSense_CSBUF_ENABLE;
1534:Generated_Source\PSoC5/CapSense.c ****                 
1535:Generated_Source\PSoC5/CapSense.c ****             #else
1536:Generated_Source\PSoC5/CapSense.c ****                 /* Connect DSI output to Rb */
1537:Generated_Source\PSoC5/CapSense.c ****                 *CapSense_rbTable[CapSense_extRbCh1Cur] |= CapSense_BYP_MASK;
1538:Generated_Source\PSoC5/CapSense.c ****                 
1539:Generated_Source\PSoC5/CapSense.c ****                 /* Enable Sensor */
1540:Generated_Source\PSoC5/CapSense.c ****                 CapSense_EnableScanSlot(sensor);
1541:Generated_Source\PSoC5/CapSense.c ****                 
1542:Generated_Source\PSoC5/CapSense.c ****                 /* Disable Vref from AMux */
1543:Generated_Source\PSoC5/CapSense.c ****                 CapSense_BufCH1_CAPS_CFG0_REG &= ~CapSense_CSBUF_ENABLE;
1544:Generated_Source\PSoC5/CapSense.c ****             
1545:Generated_Source\PSoC5/CapSense.c ****             #endif  /* (CapSense_CURRENT_SOURCE == CapSense_IDAC_SOURCE) */
1546:Generated_Source\PSoC5/CapSense.c ****         }
1547:Generated_Source\PSoC5/CapSense.c ****     
1548:Generated_Source\PSoC5/CapSense.c ****     #endif  /* (CapSense_DESIGN_TYPE == CapSense_ONE_CHANNEL_DESIGN) */
1549:Generated_Source\PSoC5/CapSense.c ****     
1550:Generated_Source\PSoC5/CapSense.c ****     /* Start measurament, pre-charge clocks are running and PRS as well */
1551:Generated_Source\PSoC5/CapSense.c ****     CapSense_CONTROL_REG |= CapSense_CTRL_START;
1552:Generated_Source\PSoC5/CapSense.c ****     
1553:Generated_Source\PSoC5/CapSense.c ****     /* Place enable interrupts here to eliminate influence on start of scanning */
1554:Generated_Source\PSoC5/CapSense.c ****     /* `#START CapSense_PreScan_EnableInt` */
1555:Generated_Source\PSoC5/CapSense.c **** 
1556:Generated_Source\PSoC5/CapSense.c ****     /* `#END` */
1557:Generated_Source\PSoC5/CapSense.c **** 
1558:Generated_Source\PSoC5/CapSense.c ****     #ifdef CapSense_PRE_SCAN_ENABLE_INT_CALLBACK
1559:Generated_Source\PSoC5/CapSense.c ****         CapSense_PreScan_EnableInt_Callback();
1560:Generated_Source\PSoC5/CapSense.c ****     #endif /* CapSense_PRE_SCAN_ENABLE_INT_CALLBACK */
1561:Generated_Source\PSoC5/CapSense.c **** }
1562:Generated_Source\PSoC5/CapSense.c **** 
1563:Generated_Source\PSoC5/CapSense.c **** 
1564:Generated_Source\PSoC5/CapSense.c **** #if (CapSense_DESIGN_TYPE == CapSense_ONE_CHANNEL_DESIGN)
1565:Generated_Source\PSoC5/CapSense.c ****     /*******************************************************************************
1566:Generated_Source\PSoC5/CapSense.c ****     * Function Name: CapSense_PostScan
1567:Generated_Source\PSoC5/CapSense.c ****     ********************************************************************************
1568:Generated_Source\PSoC5/CapSense.c ****     *
1569:Generated_Source\PSoC5/CapSense.c ****     * Summary:
1570:Generated_Source\PSoC5/CapSense.c ****     *  Store results of measurament in CapSense_SensorResult[] array,
1571:Generated_Source\PSoC5/CapSense.c ****     *  sets scan sensor in none sampling state, turn off Idac(Current Source IDAC),
1572:Generated_Source\PSoC5/CapSense.c ****     *  disconnect IDAC(Sink mode) or bleed resistor (Rb) and apply Vref on AMUX.
ARM GAS  C:\Users\Xwx47\AppData\Local\Temp\ccd0GhAc.s 			page 37


1573:Generated_Source\PSoC5/CapSense.c ****     *  Only one channel designs.
1574:Generated_Source\PSoC5/CapSense.c ****     *
1575:Generated_Source\PSoC5/CapSense.c ****     * Parameters:
1576:Generated_Source\PSoC5/CapSense.c ****     *  sensor:  Sensor number.
1577:Generated_Source\PSoC5/CapSense.c ****     *
1578:Generated_Source\PSoC5/CapSense.c ****     * Return:
1579:Generated_Source\PSoC5/CapSense.c ****     *  None
1580:Generated_Source\PSoC5/CapSense.c ****     *
1581:Generated_Source\PSoC5/CapSense.c ****     * Global Variables:
1582:Generated_Source\PSoC5/CapSense.c ****     *  CapSense_sensorRaw[] - used to store sensors raw data.
1583:Generated_Source\PSoC5/CapSense.c ****     *
1584:Generated_Source\PSoC5/CapSense.c ****     * Reentrant:
1585:Generated_Source\PSoC5/CapSense.c ****     *  No
1586:Generated_Source\PSoC5/CapSense.c ****     *
1587:Generated_Source\PSoC5/CapSense.c ****     *******************************************************************************/
1588:Generated_Source\PSoC5/CapSense.c ****     void CapSense_PostScan(uint8 sensor) CYREENTRANT
1589:Generated_Source\PSoC5/CapSense.c ****     {
 449              		.loc 1 1589 0
 450              		.cfi_startproc
 451              		@ args = 0, pretend = 0, frame = 0
 452              		@ frame_needed = 0, uses_anonymous_args = 0
 453              	.LVL37:
 454 0000 10B5     		push	{r4, lr}
 455              		.cfi_def_cfa_offset 8
 456              		.cfi_offset 4, -8
 457              		.cfi_offset 14, -4
1590:Generated_Source\PSoC5/CapSense.c ****         /* Stop Capsensing and rearm sync */
1591:Generated_Source\PSoC5/CapSense.c ****         CapSense_CONTROL_REG &= (uint8)~(CapSense_CTRL_START | CapSense_CTRL_SYNC_EN);
 458              		.loc 1 1591 0
 459 0002 0E4A     		ldr	r2, .L35
1592:Generated_Source\PSoC5/CapSense.c ****         
1593:Generated_Source\PSoC5/CapSense.c ****         /* Read SlotResult from Raw Counter */
1594:Generated_Source\PSoC5/CapSense.c ****         #if (CapSense_IMPLEMENTATION_CH0 == CapSense_MEASURE_IMPLEMENTATION_FF)
1595:Generated_Source\PSoC5/CapSense.c ****             CapSense_sensorRaw[sensor]  = CapSense_MEASURE_FULL_RANGE - 
1596:Generated_Source\PSoC5/CapSense.c ****                                                       CY_GET_REG16(CapSense_RAW_CH0_COUNTER_PTR);
1597:Generated_Source\PSoC5/CapSense.c ****         #else
1598:Generated_Source\PSoC5/CapSense.c ****             CapSense_sensorRaw[sensor]  = ((uint16) CapSense_RAW_CH0_COUNTER_HI_REG << 8u);
 460              		.loc 1 1598 0
 461 0004 0E49     		ldr	r1, .L35+4
1591:Generated_Source\PSoC5/CapSense.c ****         
 462              		.loc 1 1591 0
 463 0006 1378     		ldrb	r3, [r2]	@ zero_extendqisi2
1599:Generated_Source\PSoC5/CapSense.c ****             CapSense_sensorRaw[sensor] |= (uint16) CapSense_RAW_CH0_COUNTER_LO_REG;
 464              		.loc 1 1599 0
 465 0008 6C3A     		subs	r2, r2, #108
1591:Generated_Source\PSoC5/CapSense.c ****         
 466              		.loc 1 1591 0
 467 000a 03F0FC03 		and	r3, r3, #252
 468 000e 82F86C30 		strb	r3, [r2, #108]
1598:Generated_Source\PSoC5/CapSense.c ****             CapSense_sensorRaw[sensor] |= (uint16) CapSense_RAW_CH0_COUNTER_LO_REG;
 469              		.loc 1 1598 0
 470 0012 0C4B     		ldr	r3, .L35+8
 471 0014 1B78     		ldrb	r3, [r3]	@ zero_extendqisi2
 472 0016 1B02     		lsls	r3, r3, #8
 473 0018 21F81030 		strh	r3, [r1, r0, lsl #1]	@ movhi
 474              		.loc 1 1599 0
 475 001c 1278     		ldrb	r2, [r2]	@ zero_extendqisi2
ARM GAS  C:\Users\Xwx47\AppData\Local\Temp\ccd0GhAc.s 			page 38


1600:Generated_Source\PSoC5/CapSense.c ****             CapSense_sensorRaw[sensor]  = CapSense_MEASURE_FULL_RANGE -
 476              		.loc 1 1600 0
 477 001e 1343     		orrs	r3, r3, r2
 478 0020 DB43     		mvns	r3, r3
 479 0022 21F81030 		strh	r3, [r1, r0, lsl #1]	@ movhi
1601:Generated_Source\PSoC5/CapSense.c ****                                                       CapSense_sensorRaw[sensor];
1602:Generated_Source\PSoC5/CapSense.c ****         #endif  /* (CapSense_IMPLEMENTATION == CapSense_MEASURE_IMPLEMENTATION_FF) */
1603:Generated_Source\PSoC5/CapSense.c ****         
1604:Generated_Source\PSoC5/CapSense.c ****         /* Disable Sensor */
1605:Generated_Source\PSoC5/CapSense.c ****         CapSense_DisableScanSlot(sensor);
 480              		.loc 1 1605 0
 481 0026 FFF7FEFF 		bl	CapSense_DisableSensor
 482              	.LVL38:
1606:Generated_Source\PSoC5/CapSense.c ****         
1607:Generated_Source\PSoC5/CapSense.c ****         #if(CapSense_CURRENT_SOURCE)
1608:Generated_Source\PSoC5/CapSense.c ****             /* Turn off IDAC */
1609:Generated_Source\PSoC5/CapSense.c ****             CapSense_IdacCH0_SetValue(CapSense_TURN_OFF_IDAC);
 483              		.loc 1 1609 0
 484 002a 0020     		movs	r0, #0
 485 002c FFF7FEFF 		bl	CapSense_IdacCH0_SetValue
 486              	.LVL39:
1610:Generated_Source\PSoC5/CapSense.c ****             #if (CapSense_CURRENT_SOURCE == CapSense_IDAC_SINK)
1611:Generated_Source\PSoC5/CapSense.c ****                 /* Disconnect IDAC */
1612:Generated_Source\PSoC5/CapSense.c ****                 CapSense_AMuxCH0_Disconnect(CapSense_AMuxCH0_IDAC_CHANNEL);
1613:Generated_Source\PSoC5/CapSense.c ****             #endif  /* (CapSense_CURRENT_SOURCE == CapSense_IDAC_SINK) */
1614:Generated_Source\PSoC5/CapSense.c ****         #else
1615:Generated_Source\PSoC5/CapSense.c ****             /* Disconnect DSI output from Rb */
1616:Generated_Source\PSoC5/CapSense.c ****             *CapSense_rbTable[CapSense_extRbCh0Cur] &= ~CapSense_BYP_MASK; 
1617:Generated_Source\PSoC5/CapSense.c ****         #endif  /* (CapSense_CURRENT_SOURCE)*/
1618:Generated_Source\PSoC5/CapSense.c ****             
1619:Generated_Source\PSoC5/CapSense.c ****         /* Enable Vref on AMUX */
1620:Generated_Source\PSoC5/CapSense.c ****         #if (CapSense_VREF_OPTIONS == CapSense_VREF_VDAC)
1621:Generated_Source\PSoC5/CapSense.c ****             CapSense_AMuxCH0_Connect(CapSense_AMuxCH0_VREF_CHANNEL);
1622:Generated_Source\PSoC5/CapSense.c ****         #else
1623:Generated_Source\PSoC5/CapSense.c ****             CapSense_BufCH0_CAPS_CFG0_REG |= CapSense_CSBUF_ENABLE;
 487              		.loc 1 1623 0
 488 0030 054A     		ldr	r2, .L35+12
 489 0032 1378     		ldrb	r3, [r2]	@ zero_extendqisi2
 490 0034 43F00103 		orr	r3, r3, #1
 491 0038 1370     		strb	r3, [r2]
 492 003a 10BD     		pop	{r4, pc}
 493              	.L36:
 494              		.align	2
 495              	.L35:
 496 003c 79640040 		.word	1073767545
 497 0040 00000000 		.word	CapSense_sensorRaw
 498 0044 1D640040 		.word	1073767453
 499 0048 70580040 		.word	1073764464
 500              		.cfi_endproc
 501              	.LFE14:
 502              		.size	CapSense_PostScan, .-CapSense_PostScan
 503              		.section	.text.CapSense_SetPrescaler,"ax",%progbits
 504              		.align	1
 505              		.global	CapSense_SetPrescaler
 506              		.thumb
 507              		.thumb_func
 508              		.type	CapSense_SetPrescaler, %function
ARM GAS  C:\Users\Xwx47\AppData\Local\Temp\ccd0GhAc.s 			page 39


 509              	CapSense_SetPrescaler:
 510              	.LFB15:
1624:Generated_Source\PSoC5/CapSense.c ****         #endif  /* (CapSense_VREF_VDAC == CapSense_VREF_OPTIONS) */
1625:Generated_Source\PSoC5/CapSense.c ****     }
1626:Generated_Source\PSoC5/CapSense.c ****     
1627:Generated_Source\PSoC5/CapSense.c **** #else
1628:Generated_Source\PSoC5/CapSense.c **** 
1629:Generated_Source\PSoC5/CapSense.c ****     /*******************************************************************************
1630:Generated_Source\PSoC5/CapSense.c ****     * Function Name: CapSense_PostScan
1631:Generated_Source\PSoC5/CapSense.c ****     ********************************************************************************
1632:Generated_Source\PSoC5/CapSense.c ****     *
1633:Generated_Source\PSoC5/CapSense.c ****     * Summary:
1634:Generated_Source\PSoC5/CapSense.c ****     *  Store results of measurament in CapSense_SensorResult[] array,
1635:Generated_Source\PSoC5/CapSense.c ****     *  sets scan sensor in none sampling state, turn off Idac(Current Source IDAC),
1636:Generated_Source\PSoC5/CapSense.c ****     *  disconnect IDAC(Sink mode) or bleed resistor (Rb) and apply Vref on AMUX.
1637:Generated_Source\PSoC5/CapSense.c ****     *  Only used for channel 0 in two channes designs.
1638:Generated_Source\PSoC5/CapSense.c ****     *
1639:Generated_Source\PSoC5/CapSense.c ****     * Parameters:
1640:Generated_Source\PSoC5/CapSense.c ****     *  sensor:  Sensor number.
1641:Generated_Source\PSoC5/CapSense.c ****     *
1642:Generated_Source\PSoC5/CapSense.c ****     * Return:
1643:Generated_Source\PSoC5/CapSense.c ****     *  None
1644:Generated_Source\PSoC5/CapSense.c ****     *
1645:Generated_Source\PSoC5/CapSense.c ****     * Global Variables:
1646:Generated_Source\PSoC5/CapSense.c ****     *  CapSense_sensorRaw[] - used to store sensors raw data.
1647:Generated_Source\PSoC5/CapSense.c ****     *
1648:Generated_Source\PSoC5/CapSense.c ****     * Reentrant:
1649:Generated_Source\PSoC5/CapSense.c ****     *  No
1650:Generated_Source\PSoC5/CapSense.c ****     *
1651:Generated_Source\PSoC5/CapSense.c ****     *******************************************************************************/
1652:Generated_Source\PSoC5/CapSense.c ****     void CapSense_PostScanCh0(uint8 sensor) CYREENTRANT
1653:Generated_Source\PSoC5/CapSense.c ****     {
1654:Generated_Source\PSoC5/CapSense.c ****         if (((CapSense_CONTROL_REG & CapSense_CTRL_WINDOW_EN__CH0) == 0u) && 
1655:Generated_Source\PSoC5/CapSense.c ****             ((CapSense_CONTROL_REG & CapSense_CTRL_WINDOW_EN__CH1) == 0u)) 
1656:Generated_Source\PSoC5/CapSense.c ****         {
1657:Generated_Source\PSoC5/CapSense.c ****             /* Stop Capsensing and rearm sync */
1658:Generated_Source\PSoC5/CapSense.c ****             CapSense_CONTROL_REG &= ~(CapSense_CTRL_START | CapSense_CTRL_SYNC_EN);
1659:Generated_Source\PSoC5/CapSense.c ****         }
1660:Generated_Source\PSoC5/CapSense.c ****         
1661:Generated_Source\PSoC5/CapSense.c ****         /* Read SlotResult from Raw Counter */
1662:Generated_Source\PSoC5/CapSense.c ****         #if (CapSense_IMPLEMENTATION_CH0 == CapSense_MEASURE_IMPLEMENTATION_FF)
1663:Generated_Source\PSoC5/CapSense.c ****             CapSense_sensorRaw[sensor]  = CapSense_MEASURE_FULL_RANGE - 
1664:Generated_Source\PSoC5/CapSense.c ****                                                       CY_GET_REG16(CapSense_RAW_CH0_COUNTER_PTR);
1665:Generated_Source\PSoC5/CapSense.c ****         #else
1666:Generated_Source\PSoC5/CapSense.c ****             CapSense_sensorRaw[sensor]  = ((uint16) CapSense_RAW_CH0_COUNTER_HI_REG << 8u);
1667:Generated_Source\PSoC5/CapSense.c ****             CapSense_sensorRaw[sensor] |= (uint16) CapSense_RAW_CH0_COUNTER_LO_REG;
1668:Generated_Source\PSoC5/CapSense.c ****             CapSense_sensorRaw[sensor]  = CapSense_MEASURE_FULL_RANGE - 
1669:Generated_Source\PSoC5/CapSense.c ****                                                       CapSense_sensorRaw[sensor];
1670:Generated_Source\PSoC5/CapSense.c ****         #endif  /* (CapSense_IMPLEMENTATION_CH0 == CapSense_MEASURE_IMPLEMENTATION_FF)*/
1671:Generated_Source\PSoC5/CapSense.c ****         
1672:Generated_Source\PSoC5/CapSense.c ****         /* Disable Sensor */
1673:Generated_Source\PSoC5/CapSense.c ****         CapSense_DisableScanSlot(sensor);
1674:Generated_Source\PSoC5/CapSense.c ****         
1675:Generated_Source\PSoC5/CapSense.c ****         #if (CapSense_CURRENT_SOURCE)
1676:Generated_Source\PSoC5/CapSense.c ****             /* Turn off IDAC */
1677:Generated_Source\PSoC5/CapSense.c ****             CapSense_IdacCH0_SetValue(CapSense_TURN_OFF_IDAC);
1678:Generated_Source\PSoC5/CapSense.c ****             #if (CapSense_CURRENT_SOURCE == CapSense_IDAC_SINK)
ARM GAS  C:\Users\Xwx47\AppData\Local\Temp\ccd0GhAc.s 			page 40


1679:Generated_Source\PSoC5/CapSense.c ****                 /* Disconnect IDAC */
1680:Generated_Source\PSoC5/CapSense.c ****                 CapSense_AMuxCH0_Disconnect(CapSense_AMuxCH0_IDAC_CHANNEL);
1681:Generated_Source\PSoC5/CapSense.c ****             #endif  /* (CapSense_CURRENT_SOURCE == CapSense_IDAC_SINK) */
1682:Generated_Source\PSoC5/CapSense.c ****         #else
1683:Generated_Source\PSoC5/CapSense.c ****             /* Disconnect DSI output from Rb */
1684:Generated_Source\PSoC5/CapSense.c ****             *CapSense_rbTable[CapSense_extRbCh0Cur] &= ~CapSense_BYP_MASK; 
1685:Generated_Source\PSoC5/CapSense.c ****         #endif  /* (CapSense_CURRENT_SOURCE)*/
1686:Generated_Source\PSoC5/CapSense.c ****         
1687:Generated_Source\PSoC5/CapSense.c ****         /* Enable Vref on AMUX */
1688:Generated_Source\PSoC5/CapSense.c ****         #if (CapSense_VREF_OPTIONS == CapSense_VREF_VDAC)
1689:Generated_Source\PSoC5/CapSense.c ****             CapSense_AMuxCH0_Connect(CapSense_AMuxCH0_VREF_CHANNEL);
1690:Generated_Source\PSoC5/CapSense.c ****         #else
1691:Generated_Source\PSoC5/CapSense.c ****             CapSense_BufCH0_CAPS_CFG0_REG |= CapSense_CSBUF_ENABLE;
1692:Generated_Source\PSoC5/CapSense.c ****         #endif  /* (CapSense_VREF_VDAC == CapSense_VREF_OPTIONS) */
1693:Generated_Source\PSoC5/CapSense.c ****     }
1694:Generated_Source\PSoC5/CapSense.c ****     
1695:Generated_Source\PSoC5/CapSense.c ****     
1696:Generated_Source\PSoC5/CapSense.c ****     /*******************************************************************************
1697:Generated_Source\PSoC5/CapSense.c ****     * Function Name: CapSense_PostScanCh1
1698:Generated_Source\PSoC5/CapSense.c ****     ********************************************************************************
1699:Generated_Source\PSoC5/CapSense.c ****     *
1700:Generated_Source\PSoC5/CapSense.c ****     * Summary:
1701:Generated_Source\PSoC5/CapSense.c ****     *  Store results of measurament in CapSense_SensorResult[] array,
1702:Generated_Source\PSoC5/CapSense.c ****     *  sets scan sensor in none sampling state, turn off Idac(Current Source IDAC), 
1703:Generated_Source\PSoC5/CapSense.c ****     *  disconnect IDAC(Sink mode) or bleed resistor (Rb) and apply Vref on AMUX.
1704:Generated_Source\PSoC5/CapSense.c ****     *  Only used for channel 1 in two channes designs.
1705:Generated_Source\PSoC5/CapSense.c ****     *
1706:Generated_Source\PSoC5/CapSense.c ****     * Parameters:
1707:Generated_Source\PSoC5/CapSense.c ****     *  sensor:  Sensor number.
1708:Generated_Source\PSoC5/CapSense.c ****     *
1709:Generated_Source\PSoC5/CapSense.c ****     * Return:
1710:Generated_Source\PSoC5/CapSense.c ****     *  None
1711:Generated_Source\PSoC5/CapSense.c ****     *
1712:Generated_Source\PSoC5/CapSense.c ****     * Global Variables:
1713:Generated_Source\PSoC5/CapSense.c ****     *  CapSense_sensorRaw[] - used to store sensors raw data.
1714:Generated_Source\PSoC5/CapSense.c ****     *
1715:Generated_Source\PSoC5/CapSense.c ****     * Reentrant:
1716:Generated_Source\PSoC5/CapSense.c ****     *  No
1717:Generated_Source\PSoC5/CapSense.c ****     *
1718:Generated_Source\PSoC5/CapSense.c ****     *******************************************************************************/
1719:Generated_Source\PSoC5/CapSense.c ****     void CapSense_PostScanCh1(uint8 sensor) CYREENTRANT
1720:Generated_Source\PSoC5/CapSense.c ****     {
1721:Generated_Source\PSoC5/CapSense.c ****         if (((CapSense_CONTROL_REG & CapSense_CTRL_WINDOW_EN__CH0) == 0u) && 
1722:Generated_Source\PSoC5/CapSense.c ****             ((CapSense_CONTROL_REG & CapSense_CTRL_WINDOW_EN__CH1) == 0u))
1723:Generated_Source\PSoC5/CapSense.c ****         {
1724:Generated_Source\PSoC5/CapSense.c ****             /* Stop Capsensing and rearm sync */
1725:Generated_Source\PSoC5/CapSense.c ****             CapSense_CONTROL_REG &= ~(CapSense_CTRL_START | CapSense_CTRL_SYNC_EN);
1726:Generated_Source\PSoC5/CapSense.c ****         }
1727:Generated_Source\PSoC5/CapSense.c ****         
1728:Generated_Source\PSoC5/CapSense.c ****         /* Read SlotResult from Raw Counter */
1729:Generated_Source\PSoC5/CapSense.c ****         #if (CapSense_IMPLEMENTATION_CH1 == CapSense_MEASURE_IMPLEMENTATION_FF)
1730:Generated_Source\PSoC5/CapSense.c ****             CapSense_sensorRaw[sensor]  = CapSense_MEASURE_FULL_RANGE - 
1731:Generated_Source\PSoC5/CapSense.c ****                                                       CY_GET_REG16(CapSense_RAW_CH1_COUNTER_PTR);
1732:Generated_Source\PSoC5/CapSense.c ****         #else
1733:Generated_Source\PSoC5/CapSense.c ****             CapSense_sensorRaw[sensor]  = ((uint16) CapSense_RAW_CH1_COUNTER_HI_REG << 8u);
1734:Generated_Source\PSoC5/CapSense.c ****             CapSense_sensorRaw[sensor] |= (uint16) CapSense_RAW_CH1_COUNTER_LO_REG;
1735:Generated_Source\PSoC5/CapSense.c ****             CapSense_sensorRaw[sensor]  = CapSense_MEASURE_FULL_RANGE - 
ARM GAS  C:\Users\Xwx47\AppData\Local\Temp\ccd0GhAc.s 			page 41


1736:Generated_Source\PSoC5/CapSense.c ****                                                       CapSense_sensorRaw[sensor];
1737:Generated_Source\PSoC5/CapSense.c ****         #endif  /* (CapSense_IMPLEMENTATION_CH1 == CapSense_MEASURE_IMPLEMENTATION_FF)*/
1738:Generated_Source\PSoC5/CapSense.c ****         
1739:Generated_Source\PSoC5/CapSense.c ****         /* Disable Sensor */
1740:Generated_Source\PSoC5/CapSense.c ****         CapSense_DisableScanSlot(sensor);
1741:Generated_Source\PSoC5/CapSense.c ****         
1742:Generated_Source\PSoC5/CapSense.c ****         #if (CapSense_CURRENT_SOURCE)
1743:Generated_Source\PSoC5/CapSense.c ****             /* Turn off IDAC */
1744:Generated_Source\PSoC5/CapSense.c ****             CapSense_IdacCH1_SetValue(CapSense_TURN_OFF_IDAC);
1745:Generated_Source\PSoC5/CapSense.c ****             #if (CapSense_CURRENT_SOURCE == CapSense_IDAC_SINK)
1746:Generated_Source\PSoC5/CapSense.c ****                 /* Disconnect IDAC */
1747:Generated_Source\PSoC5/CapSense.c ****                 CapSense_AMuxCH1_Disconnect(CapSense_AMuxCH1_IDAC_CHANNEL);
1748:Generated_Source\PSoC5/CapSense.c ****             #endif  /* (CapSense_CURRENT_SOURCE == CapSense_IDAC_SINK) */
1749:Generated_Source\PSoC5/CapSense.c ****         #else
1750:Generated_Source\PSoC5/CapSense.c ****             /* Disconnect DSI output from Rb */
1751:Generated_Source\PSoC5/CapSense.c ****             *CapSense_rbTable[CapSense_extRbCh1Cur] &= ~CapSense_BYP_MASK; 
1752:Generated_Source\PSoC5/CapSense.c ****         #endif  /* (CapSense_CURRENT_SOURCE)*/
1753:Generated_Source\PSoC5/CapSense.c **** 
1754:Generated_Source\PSoC5/CapSense.c ****         /* Enable Vref on AMUX */
1755:Generated_Source\PSoC5/CapSense.c ****         #if (CapSense_VREF_OPTIONS == CapSense_VREF_VDAC)
1756:Generated_Source\PSoC5/CapSense.c ****             CapSense_AMuxCH1_Connect(CapSense_AMuxCH1_VREF_CHANNEL);
1757:Generated_Source\PSoC5/CapSense.c ****         #else
1758:Generated_Source\PSoC5/CapSense.c ****             CapSense_BufCH1_CAPS_CFG0_REG |= CapSense_CSBUF_ENABLE;
1759:Generated_Source\PSoC5/CapSense.c ****         #endif  /* (CapSense_VREF_VDAC == CapSense_VREF_OPTIONS) */
1760:Generated_Source\PSoC5/CapSense.c ****     }
1761:Generated_Source\PSoC5/CapSense.c ****     
1762:Generated_Source\PSoC5/CapSense.c **** #endif  /* CapSense_DESIGN_TYPE */
1763:Generated_Source\PSoC5/CapSense.c **** 
1764:Generated_Source\PSoC5/CapSense.c **** 
1765:Generated_Source\PSoC5/CapSense.c **** #if (CapSense_CURRENT_SOURCE == CapSense_EXTERNAL_RB)
1766:Generated_Source\PSoC5/CapSense.c ****     /*******************************************************************************
1767:Generated_Source\PSoC5/CapSense.c ****     * Function Name:  CapSense_InitRb
1768:Generated_Source\PSoC5/CapSense.c ****     ********************************************************************************
1769:Generated_Source\PSoC5/CapSense.c ****     *
1770:Generated_Source\PSoC5/CapSense.c ****     * Summary:
1771:Generated_Source\PSoC5/CapSense.c ****     *  Sets all Rbleed resistor to High-Z mode. The first Rbleed resistor is active
1772:Generated_Source\PSoC5/CapSense.c ****     *  while next measure.
1773:Generated_Source\PSoC5/CapSense.c ****     *  This function is available only if Current Source is External Resistor.
1774:Generated_Source\PSoC5/CapSense.c ****     *
1775:Generated_Source\PSoC5/CapSense.c ****     * Parameters:
1776:Generated_Source\PSoC5/CapSense.c ****     *  None
1777:Generated_Source\PSoC5/CapSense.c ****     *
1778:Generated_Source\PSoC5/CapSense.c ****     * Return:
1779:Generated_Source\PSoC5/CapSense.c ****     *  None
1780:Generated_Source\PSoC5/CapSense.c ****     *
1781:Generated_Source\PSoC5/CapSense.c ****     ********************************************************************************/
1782:Generated_Source\PSoC5/CapSense.c ****     void CapSense_InitRb(void) 
1783:Generated_Source\PSoC5/CapSense.c ****     {
1784:Generated_Source\PSoC5/CapSense.c ****         uint8 i;
1785:Generated_Source\PSoC5/CapSense.c ****         
1786:Generated_Source\PSoC5/CapSense.c ****         /* Disable all Rb */
1787:Generated_Source\PSoC5/CapSense.c ****         for(i = 0u; i < CapSense_TOTAL_RB_NUMBER; i++)
1788:Generated_Source\PSoC5/CapSense.c ****         {
1789:Generated_Source\PSoC5/CapSense.c ****             /* Make High-Z */
1790:Generated_Source\PSoC5/CapSense.c ****             *CapSense_rbTable[i] = CapSense_PRT_PC_HIGHZ;
1791:Generated_Source\PSoC5/CapSense.c ****         }
1792:Generated_Source\PSoC5/CapSense.c ****     }
ARM GAS  C:\Users\Xwx47\AppData\Local\Temp\ccd0GhAc.s 			page 42


1793:Generated_Source\PSoC5/CapSense.c ****     
1794:Generated_Source\PSoC5/CapSense.c ****     
1795:Generated_Source\PSoC5/CapSense.c ****     /*******************************************************************************
1796:Generated_Source\PSoC5/CapSense.c ****     * Function Name: CapSense_SetRBleed
1797:Generated_Source\PSoC5/CapSense.c ****     ********************************************************************************
1798:Generated_Source\PSoC5/CapSense.c ****     *
1799:Generated_Source\PSoC5/CapSense.c ****     * Summary:
1800:Generated_Source\PSoC5/CapSense.c ****     *  Sets the pin to use for the bleed resistor (Rb) connection. This function
1801:Generated_Source\PSoC5/CapSense.c ****     *  can be called at runtime to select the current Rb pin setting from those 
1802:Generated_Source\PSoC5/CapSense.c ****     *  defined customizer. The function overwrites the component parameter setting. 
1803:Generated_Source\PSoC5/CapSense.c ****     *  This function is available only if Current Source is External Resistor.
1804:Generated_Source\PSoC5/CapSense.c ****     * 
1805:Generated_Source\PSoC5/CapSense.c ****     * Parameters:
1806:Generated_Source\PSoC5/CapSense.c ****     *  rbleed:  Ordering number for bleed resistor terminal defined in CapSense
1807:Generated_Source\PSoC5/CapSense.c ****     *  customizer.
1808:Generated_Source\PSoC5/CapSense.c ****     *
1809:Generated_Source\PSoC5/CapSense.c ****     * Return:
1810:Generated_Source\PSoC5/CapSense.c ****     *  None
1811:Generated_Source\PSoC5/CapSense.c ****     *
1812:Generated_Source\PSoC5/CapSense.c ****     * Global Variables:
1813:Generated_Source\PSoC5/CapSense.c ****     *  CapSense_extRbCh0Cur - used to store current number of active 
1814:Generated_Source\PSoC5/CapSense.c ****     *  bleed resistor (Rb) of channel 0.
1815:Generated_Source\PSoC5/CapSense.c ****     *  CapSense_extRbCh1Cur - used to store current number of active 
1816:Generated_Source\PSoC5/CapSense.c ****     *  bleed resistor (Rb) of channel 1.
1817:Generated_Source\PSoC5/CapSense.c ****     *  The active bleed resistor (Rb) pin will be used while next measurement  
1818:Generated_Source\PSoC5/CapSense.c ****     *  cycle.
1819:Generated_Source\PSoC5/CapSense.c ****     *
1820:Generated_Source\PSoC5/CapSense.c ****     * Reentrant:
1821:Generated_Source\PSoC5/CapSense.c ****     *  No
1822:Generated_Source\PSoC5/CapSense.c ****     *
1823:Generated_Source\PSoC5/CapSense.c ****     *******************************************************************************/
1824:Generated_Source\PSoC5/CapSense.c ****     void CapSense_SetRBleed(uint8 rbleed) 
1825:Generated_Source\PSoC5/CapSense.c ****     {
1826:Generated_Source\PSoC5/CapSense.c ****         #if (CapSense_DESIGN_TYPE == CapSense_ONE_CHANNEL_DESIGN)
1827:Generated_Source\PSoC5/CapSense.c ****             CapSense_extRbCh0Cur = rbleed;
1828:Generated_Source\PSoC5/CapSense.c ****             
1829:Generated_Source\PSoC5/CapSense.c ****         #else
1830:Generated_Source\PSoC5/CapSense.c ****             if(rbleed < CapSense_TOTAL_RB_NUMBER__CH0)
1831:Generated_Source\PSoC5/CapSense.c ****             {
1832:Generated_Source\PSoC5/CapSense.c ****                 CapSense_extRbCh0Cur = rbleed;
1833:Generated_Source\PSoC5/CapSense.c ****             }
1834:Generated_Source\PSoC5/CapSense.c ****             else
1835:Generated_Source\PSoC5/CapSense.c ****             {
1836:Generated_Source\PSoC5/CapSense.c ****                 CapSense_extRbCh1Cur = (rbleed - CapSense_TOTAL_RB_NUMBER__CH0);   
1837:Generated_Source\PSoC5/CapSense.c ****             }
1838:Generated_Source\PSoC5/CapSense.c ****     
1839:Generated_Source\PSoC5/CapSense.c ****         #endif  /* CapSense_DESIGN_TYPE == CapSense_ONE_CHANNEL_DESIGN */ 
1840:Generated_Source\PSoC5/CapSense.c ****     }
1841:Generated_Source\PSoC5/CapSense.c **** #endif /* CapSense_CURRENT_SOURCE == CapSense_EXTERNAL_RB */ 
1842:Generated_Source\PSoC5/CapSense.c **** 
1843:Generated_Source\PSoC5/CapSense.c **** #if (CapSense_PRESCALER_OPTIONS)
1844:Generated_Source\PSoC5/CapSense.c ****     /*******************************************************************************
1845:Generated_Source\PSoC5/CapSense.c ****     * Function Name: CapSense_SetPrescaler
1846:Generated_Source\PSoC5/CapSense.c ****     ********************************************************************************
1847:Generated_Source\PSoC5/CapSense.c ****     *
1848:Generated_Source\PSoC5/CapSense.c ****     * Summary:
1849:Generated_Source\PSoC5/CapSense.c ****     *  Sets analog switch divider.
ARM GAS  C:\Users\Xwx47\AppData\Local\Temp\ccd0GhAc.s 			page 43


1850:Generated_Source\PSoC5/CapSense.c ****     *
1851:Generated_Source\PSoC5/CapSense.c ****     * Parameters:
1852:Generated_Source\PSoC5/CapSense.c ****     *  prescaler:  Sets prescaler divider values.
1853:Generated_Source\PSoC5/CapSense.c ****     *
1854:Generated_Source\PSoC5/CapSense.c ****     * Return:
1855:Generated_Source\PSoC5/CapSense.c ****     *  None
1856:Generated_Source\PSoC5/CapSense.c ****     *
1857:Generated_Source\PSoC5/CapSense.c ****     *******************************************************************************/
1858:Generated_Source\PSoC5/CapSense.c ****     void CapSense_SetPrescaler(uint8 prescaler) CYREENTRANT
1859:Generated_Source\PSoC5/CapSense.c ****     {
 511              		.loc 1 1859 0
 512              		.cfi_startproc
 513              		@ args = 0, pretend = 0, frame = 0
 514              		@ frame_needed = 0, uses_anonymous_args = 0
 515              		@ link register save eliminated.
 516              	.LVL40:
1860:Generated_Source\PSoC5/CapSense.c ****         /* Set Prescaler */
1861:Generated_Source\PSoC5/CapSense.c ****         #if (CapSense_PRESCALER_OPTIONS == CapSense_PRESCALER_UDB)
1862:Generated_Source\PSoC5/CapSense.c ****             CapSense_PRESCALER_PERIOD_REG = prescaler;
 517              		.loc 1 1862 0
 518 0000 024B     		ldr	r3, .L38
 519 0002 1870     		strb	r0, [r3]
1863:Generated_Source\PSoC5/CapSense.c ****             CapSense_PRESCALER_COMPARE_REG = (prescaler >> 1u);
 520              		.loc 1 1863 0
 521 0004 4008     		lsrs	r0, r0, #1
 522              	.LVL41:
 523 0006 1874     		strb	r0, [r3, #16]
 524              	.LVL42:
 525 0008 7047     		bx	lr
 526              	.L39:
 527 000a 00BF     		.align	2
 528              	.L38:
 529 000c 28640040 		.word	1073767464
 530              		.cfi_endproc
 531              	.LFE15:
 532              		.size	CapSense_SetPrescaler, .-CapSense_SetPrescaler
 533              		.section	.text.CapSense_SetScanSlotSettings,"ax",%progbits
 534              		.align	1
 535              		.global	CapSense_SetScanSlotSettings
 536              		.thumb
 537              		.thumb_func
 538              		.type	CapSense_SetScanSlotSettings, %function
 539              	CapSense_SetScanSlotSettings:
 540              	.LFB5:
 814:Generated_Source\PSoC5/CapSense.c ****     uint8 widget;
 541              		.loc 1 814 0
 542              		.cfi_startproc
 543              		@ args = 0, pretend = 0, frame = 0
 544              		@ frame_needed = 0, uses_anonymous_args = 0
 545              	.LVL43:
 546 0000 70B5     		push	{r4, r5, r6, lr}
 547              		.cfi_def_cfa_offset 16
 548              		.cfi_offset 4, -16
 549              		.cfi_offset 5, -12
 550              		.cfi_offset 6, -8
 551              		.cfi_offset 14, -4
 814:Generated_Source\PSoC5/CapSense.c ****     uint8 widget;
ARM GAS  C:\Users\Xwx47\AppData\Local\Temp\ccd0GhAc.s 			page 44


 552              		.loc 1 814 0
 553 0002 0446     		mov	r4, r0
 819:Generated_Source\PSoC5/CapSense.c ****         
 554              		.loc 1 819 0
 555 0004 094B     		ldr	r3, .L41
 823:Generated_Source\PSoC5/CapSense.c ****         #endif  /* CapSense_CURRENT_SOURCE */
 556              		.loc 1 823 0
 557 0006 0A4E     		ldr	r6, .L41+4
 819:Generated_Source\PSoC5/CapSense.c ****         
 558              		.loc 1 819 0
 559 0008 0344     		add	r3, r3, r0
 560 000a 93F83450 		ldrb	r5, [r3, #52]	@ zero_extendqisi2
 561              	.LVL44:
 823:Generated_Source\PSoC5/CapSense.c ****         #endif  /* CapSense_CURRENT_SOURCE */
 562              		.loc 1 823 0
 563 000e 3318     		adds	r3, r6, r0
 564 0010 5878     		ldrb	r0, [r3, #1]	@ zero_extendqisi2
 565              	.LVL45:
 831:Generated_Source\PSoC5/CapSense.c ****         #endif  /* (CapSense_IMPLEMENTATION_CH0 == CapSense_MEASURE_IMPLEMENTATION_FF) */ 
 566              		.loc 1 831 0
 567 0012 3544     		add	r5, r5, r6
 568              	.LVL46:
 823:Generated_Source\PSoC5/CapSense.c ****         #endif  /* CapSense_CURRENT_SOURCE */
 569              		.loc 1 823 0
 570 0014 FFF7FEFF 		bl	CapSense_IdacCH0_SetValue
 571              	.LVL47:
 831:Generated_Source\PSoC5/CapSense.c ****         #endif  /* (CapSense_IMPLEMENTATION_CH0 == CapSense_MEASURE_IMPLEMENTATION_FF) */ 
 572              		.loc 1 831 0
 573 0018 2A79     		ldrb	r2, [r5, #4]	@ zero_extendqisi2
 574 001a 064B     		ldr	r3, .L41+8
 575 001c 1A70     		strb	r2, [r3]
 836:Generated_Source\PSoC5/CapSense.c ****         #elif (CapSense_PRESCALER_OPTIONS)
 576              		.loc 1 836 0
 577 001e 064B     		ldr	r3, .L41+12
 578 0020 185D     		ldrb	r0, [r3, r4]	@ zero_extendqisi2
 892:Generated_Source\PSoC5/CapSense.c **** 
 579              		.loc 1 892 0
 580 0022 BDE87040 		pop	{r4, r5, r6, lr}
 581              		.cfi_restore 14
 582              		.cfi_restore 6
 583              		.cfi_restore 5
 584              		.cfi_restore 4
 585              		.cfi_def_cfa_offset 0
 586              	.LVL48:
 836:Generated_Source\PSoC5/CapSense.c ****         #elif (CapSense_PRESCALER_OPTIONS)
 587              		.loc 1 836 0
 588 0026 FFF7FEBF 		b	CapSense_SetPrescaler
 589              	.LVL49:
 590              	.L42:
 591 002a 00BF     		.align	2
 592              	.L41:
 593 002c 00000000 		.word	.LANCHOR1
 594 0030 00000000 		.word	.LANCHOR0
 595 0034 5C640040 		.word	1073767516
 596 0038 00000000 		.word	CapSense_analogSwitchDivider
 597              		.cfi_endproc
 598              	.LFE5:
ARM GAS  C:\Users\Xwx47\AppData\Local\Temp\ccd0GhAc.s 			page 45


 599              		.size	CapSense_SetScanSlotSettings, .-CapSense_SetScanSlotSettings
 600              		.section	.text.CapSense_PreScan,"ax",%progbits
 601              		.align	1
 602              		.global	CapSense_PreScan
 603              		.thumb
 604              		.thumb_func
 605              		.type	CapSense_PreScan, %function
 606              	CapSense_PreScan:
 607              	.LFB13:
1421:Generated_Source\PSoC5/CapSense.c ****     /* Set Sensor Settings */
 608              		.loc 1 1421 0
 609              		.cfi_startproc
 610              		@ args = 0, pretend = 0, frame = 0
 611              		@ frame_needed = 0, uses_anonymous_args = 0
 612              	.LVL50:
 613 0000 38B5     		push	{r3, r4, r5, lr}
 614              		.cfi_def_cfa_offset 16
 615              		.cfi_offset 3, -16
 616              		.cfi_offset 4, -12
 617              		.cfi_offset 5, -8
 618              		.cfi_offset 14, -4
1421:Generated_Source\PSoC5/CapSense.c ****     /* Set Sensor Settings */
 619              		.loc 1 1421 0
 620 0002 0546     		mov	r5, r0
1435:Generated_Source\PSoC5/CapSense.c ****         
 621              		.loc 1 1435 0
 622 0004 094C     		ldr	r4, .L44
1423:Generated_Source\PSoC5/CapSense.c ****     
 623              		.loc 1 1423 0
 624 0006 FFF7FEFF 		bl	CapSense_SetScanSlotSettings
 625              	.LVL51:
1435:Generated_Source\PSoC5/CapSense.c ****         
 626              		.loc 1 1435 0
 627 000a 2378     		ldrb	r3, [r4]	@ zero_extendqisi2
1443:Generated_Source\PSoC5/CapSense.c ****             #endif  /* (CapSense_VREF_VDAC != CapSense_VREF_OPTIONS) */
 628              		.loc 1 1443 0
 629 000c 084A     		ldr	r2, .L44+4
1435:Generated_Source\PSoC5/CapSense.c ****         
 630              		.loc 1 1435 0
 631 000e 43F00103 		orr	r3, r3, #1
 632 0012 2370     		strb	r3, [r4]
1443:Generated_Source\PSoC5/CapSense.c ****             #endif  /* (CapSense_VREF_VDAC != CapSense_VREF_OPTIONS) */
 633              		.loc 1 1443 0
 634 0014 1378     		ldrb	r3, [r2]	@ zero_extendqisi2
1447:Generated_Source\PSoC5/CapSense.c ****             
 635              		.loc 1 1447 0
 636 0016 2846     		mov	r0, r5
1443:Generated_Source\PSoC5/CapSense.c ****             #endif  /* (CapSense_VREF_VDAC != CapSense_VREF_OPTIONS) */
 637              		.loc 1 1443 0
 638 0018 03F0FE03 		and	r3, r3, #254
 639 001c 1370     		strb	r3, [r2]
1447:Generated_Source\PSoC5/CapSense.c ****             
 640              		.loc 1 1447 0
 641 001e FFF7FEFF 		bl	CapSense_EnableSensor
 642              	.LVL52:
1551:Generated_Source\PSoC5/CapSense.c ****     
 643              		.loc 1 1551 0
ARM GAS  C:\Users\Xwx47\AppData\Local\Temp\ccd0GhAc.s 			page 46


 644 0022 2378     		ldrb	r3, [r4]	@ zero_extendqisi2
 645 0024 43F00203 		orr	r3, r3, #2
 646 0028 2370     		strb	r3, [r4]
 647 002a 38BD     		pop	{r3, r4, r5, pc}
 648              	.L45:
 649              		.align	2
 650              	.L44:
 651 002c 79640040 		.word	1073767545
 652 0030 70580040 		.word	1073764464
 653              		.cfi_endproc
 654              	.LFE13:
 655              		.size	CapSense_PreScan, .-CapSense_PreScan
 656              		.section	.text.CapSense_ScanSensor,"ax",%progbits
 657              		.align	1
 658              		.global	CapSense_ScanSensor
 659              		.thumb
 660              		.thumb_func
 661              		.type	CapSense_ScanSensor, %function
 662              	CapSense_ScanSensor:
 663              	.LFB6:
 926:Generated_Source\PSoC5/CapSense.c ****     /* Clears status/control variable and set sensorIndex */
 664              		.loc 1 926 0
 665              		.cfi_startproc
 666              		@ args = 0, pretend = 0, frame = 0
 667              		@ frame_needed = 0, uses_anonymous_args = 0
 668              		@ link register save eliminated.
 669              	.LVL53:
 928:Generated_Source\PSoC5/CapSense.c ****     CapSense_sensorIndex = sensor;
 670              		.loc 1 928 0
 671 0000 044B     		ldr	r3, .L47
 672 0002 0022     		movs	r2, #0
 673 0004 1A70     		strb	r2, [r3]
 929:Generated_Source\PSoC5/CapSense.c ****     
 674              		.loc 1 929 0
 675 0006 044A     		ldr	r2, .L47+4
 676 0008 1070     		strb	r0, [r2]
 933:Generated_Source\PSoC5/CapSense.c ****         CapSense_PreScan(sensor);
 677              		.loc 1 933 0
 678 000a 8122     		movs	r2, #129
 679 000c 1A70     		strb	r2, [r3]
 934:Generated_Source\PSoC5/CapSense.c ****         
 680              		.loc 1 934 0
 681 000e FFF7FEBF 		b	CapSense_PreScan
 682              	.LVL54:
 683              	.L48:
 684 0012 00BF     		.align	2
 685              	.L47:
 686 0014 00000000 		.word	CapSense_csv
 687 0018 00000000 		.word	CapSense_sensorIndex
 688              		.cfi_endproc
 689              	.LFE6:
 690              		.size	CapSense_ScanSensor, .-CapSense_ScanSensor
 691              		.section	.text.CapSense_ScanEnabledWidgets,"ax",%progbits
 692              		.align	1
 693              		.global	CapSense_ScanEnabledWidgets
 694              		.thumb
 695              		.thumb_func
ARM GAS  C:\Users\Xwx47\AppData\Local\Temp\ccd0GhAc.s 			page 47


 696              		.type	CapSense_ScanEnabledWidgets, %function
 697              	CapSense_ScanEnabledWidgets:
 698              	.LFB7:
1003:Generated_Source\PSoC5/CapSense.c ****     /* Clears status/control variable and set sensorIndex */
 699              		.loc 1 1003 0
 700              		.cfi_startproc
 701              		@ args = 0, pretend = 0, frame = 0
 702              		@ frame_needed = 0, uses_anonymous_args = 0
 703 0000 38B5     		push	{r3, r4, r5, lr}
 704              		.cfi_def_cfa_offset 16
 705              		.cfi_offset 3, -16
 706              		.cfi_offset 4, -12
 707              		.cfi_offset 5, -8
 708              		.cfi_offset 14, -4
1005:Generated_Source\PSoC5/CapSense.c ****     CapSense_sensorIndex = 0xFFu;
 709              		.loc 1 1005 0
 710 0002 0B4D     		ldr	r5, .L51
1006:Generated_Source\PSoC5/CapSense.c ****     
 711              		.loc 1 1006 0
 712 0004 0B4C     		ldr	r4, .L51+4
1005:Generated_Source\PSoC5/CapSense.c ****     CapSense_sensorIndex = 0xFFu;
 713              		.loc 1 1005 0
 714 0006 0023     		movs	r3, #0
 715 0008 2B70     		strb	r3, [r5]
1006:Generated_Source\PSoC5/CapSense.c ****     
 716              		.loc 1 1006 0
 717 000a FF23     		movs	r3, #255
 718 000c 2370     		strb	r3, [r4]
1010:Generated_Source\PSoC5/CapSense.c **** 
 719              		.loc 1 1010 0
 720 000e 2078     		ldrb	r0, [r4]	@ zero_extendqisi2
 721 0010 FFF7FEFF 		bl	CapSense_FindNextSensor
 722              	.LVL55:
 723 0014 2070     		strb	r0, [r4]
1013:Generated_Source\PSoC5/CapSense.c ****         {
 724              		.loc 1 1013 0
 725 0016 2378     		ldrb	r3, [r4]	@ zero_extendqisi2
 726 0018 022B     		cmp	r3, #2
 727 001a 08D8     		bhi	.L49
1015:Generated_Source\PSoC5/CapSense.c ****             CapSense_PreScan(CapSense_sensorIndex);
 728              		.loc 1 1015 0
 729 001c 2B78     		ldrb	r3, [r5]	@ zero_extendqisi2
 730 001e 43F00103 		orr	r3, r3, #1
 731 0022 2B70     		strb	r3, [r5]
1016:Generated_Source\PSoC5/CapSense.c ****         }
 732              		.loc 1 1016 0
 733 0024 2078     		ldrb	r0, [r4]	@ zero_extendqisi2
1032:Generated_Source\PSoC5/CapSense.c **** 
 734              		.loc 1 1032 0
 735 0026 BDE83840 		pop	{r3, r4, r5, lr}
 736              		.cfi_remember_state
 737              		.cfi_restore 14
 738              		.cfi_restore 5
 739              		.cfi_restore 4
 740              		.cfi_restore 3
 741              		.cfi_def_cfa_offset 0
1016:Generated_Source\PSoC5/CapSense.c ****         }
ARM GAS  C:\Users\Xwx47\AppData\Local\Temp\ccd0GhAc.s 			page 48


 742              		.loc 1 1016 0
 743 002a FFF7FEBF 		b	CapSense_PreScan
 744              	.LVL56:
 745              	.L49:
 746              		.cfi_restore_state
 747 002e 38BD     		pop	{r3, r4, r5, pc}
 748              	.L52:
 749              		.align	2
 750              	.L51:
 751 0030 00000000 		.word	CapSense_csv
 752 0034 00000000 		.word	CapSense_sensorIndex
 753              		.cfi_endproc
 754              	.LFE7:
 755              		.size	CapSense_ScanEnabledWidgets, .-CapSense_ScanEnabledWidgets
 756              		.section	.text.CapSense_GetPrescaler,"ax",%progbits
 757              		.align	1
 758              		.global	CapSense_GetPrescaler
 759              		.thumb
 760              		.thumb_func
 761              		.type	CapSense_GetPrescaler, %function
 762              	CapSense_GetPrescaler:
 763              	.LFB16:
1864:Generated_Source\PSoC5/CapSense.c ****         #elif (CapSense_PRESCALER_OPTIONS == CapSense_PRESCALER_FF)
1865:Generated_Source\PSoC5/CapSense.c ****             CY_SET_REG16(CapSense_PRESCALER_PERIOD_PTR, (uint16) prescaler);
1866:Generated_Source\PSoC5/CapSense.c ****             CY_SET_REG16(CapSense_PRESCALER_COMPARE_PTR, (uint16) (prescaler >> 1u));
1867:Generated_Source\PSoC5/CapSense.c ****         #else
1868:Generated_Source\PSoC5/CapSense.c ****             /* Do nothing = config without prescaler */
1869:Generated_Source\PSoC5/CapSense.c ****         #endif  /* (CapSense_PRESCALER_OPTIONS == CapSense_PRESCALER_UDB) */
1870:Generated_Source\PSoC5/CapSense.c ****     }
1871:Generated_Source\PSoC5/CapSense.c **** 
1872:Generated_Source\PSoC5/CapSense.c **** 
1873:Generated_Source\PSoC5/CapSense.c ****     /*******************************************************************************
1874:Generated_Source\PSoC5/CapSense.c ****     * Function Name: CapSense_GetPrescaler
1875:Generated_Source\PSoC5/CapSense.c ****     ********************************************************************************
1876:Generated_Source\PSoC5/CapSense.c ****     *
1877:Generated_Source\PSoC5/CapSense.c ****     * Summary:
1878:Generated_Source\PSoC5/CapSense.c ****     *  Gets analog switch divider.
1879:Generated_Source\PSoC5/CapSense.c ****     *
1880:Generated_Source\PSoC5/CapSense.c ****     * Parameters:
1881:Generated_Source\PSoC5/CapSense.c ****     *  None
1882:Generated_Source\PSoC5/CapSense.c ****     *
1883:Generated_Source\PSoC5/CapSense.c ****     * Return:
1884:Generated_Source\PSoC5/CapSense.c ****     *   Returns the prescaler divider value.
1885:Generated_Source\PSoC5/CapSense.c ****     *
1886:Generated_Source\PSoC5/CapSense.c ****     *******************************************************************************/
1887:Generated_Source\PSoC5/CapSense.c ****     uint8 CapSense_GetPrescaler(void) 
1888:Generated_Source\PSoC5/CapSense.c ****     {
 764              		.loc 1 1888 0
 765              		.cfi_startproc
 766              		@ args = 0, pretend = 0, frame = 0
 767              		@ frame_needed = 0, uses_anonymous_args = 0
 768              		@ link register save eliminated.
 769              	.LVL57:
1889:Generated_Source\PSoC5/CapSense.c ****         uint8 prescaler = 0u;
1890:Generated_Source\PSoC5/CapSense.c **** 
1891:Generated_Source\PSoC5/CapSense.c ****         /* Get Prescaler */
1892:Generated_Source\PSoC5/CapSense.c ****         #if (CapSense_PRESCALER_OPTIONS == CapSense_PRESCALER_UDB)
ARM GAS  C:\Users\Xwx47\AppData\Local\Temp\ccd0GhAc.s 			page 49


1893:Generated_Source\PSoC5/CapSense.c ****             prescaler = CapSense_PRESCALER_PERIOD_REG;
 770              		.loc 1 1893 0
 771 0000 014B     		ldr	r3, .L54
 772 0002 1878     		ldrb	r0, [r3]	@ zero_extendqisi2
 773              	.LVL58:
1894:Generated_Source\PSoC5/CapSense.c ****             
1895:Generated_Source\PSoC5/CapSense.c ****         #elif (CapSense_PRESCALER_OPTIONS == CapSense_PRESCALER_FF)
1896:Generated_Source\PSoC5/CapSense.c ****             prescaler = (uint8) CY_GET_REG16(CapSense_PRESCALER_PERIOD_PTR);
1897:Generated_Source\PSoC5/CapSense.c ****             
1898:Generated_Source\PSoC5/CapSense.c ****         #else
1899:Generated_Source\PSoC5/CapSense.c ****             /* Do nothing = config without prescaler */
1900:Generated_Source\PSoC5/CapSense.c ****         #endif  /* (CapSense_PRESCALER_OPTIONS == CapSense_PRESCALER_UDB) */
1901:Generated_Source\PSoC5/CapSense.c ****         
1902:Generated_Source\PSoC5/CapSense.c ****         return (prescaler);
1903:Generated_Source\PSoC5/CapSense.c ****     }
 774              		.loc 1 1903 0
 775 0004 7047     		bx	lr
 776              	.L55:
 777 0006 00BF     		.align	2
 778              	.L54:
 779 0008 28640040 		.word	1073767464
 780              		.cfi_endproc
 781              	.LFE16:
 782              		.size	CapSense_GetPrescaler, .-CapSense_GetPrescaler
 783              		.section	.text.CapSense_SetScanSpeed,"ax",%progbits
 784              		.align	1
 785              		.global	CapSense_SetScanSpeed
 786              		.thumb
 787              		.thumb_func
 788              		.type	CapSense_SetScanSpeed, %function
 789              	CapSense_SetScanSpeed:
 790              	.LFB17:
1904:Generated_Source\PSoC5/CapSense.c **** #endif  /* CapSense_PRESCALER_OPTIONS */
1905:Generated_Source\PSoC5/CapSense.c **** 
1906:Generated_Source\PSoC5/CapSense.c **** 
1907:Generated_Source\PSoC5/CapSense.c **** /*******************************************************************************
1908:Generated_Source\PSoC5/CapSense.c **** * Function Name: CapSense_SetScanSpeed
1909:Generated_Source\PSoC5/CapSense.c **** ********************************************************************************
1910:Generated_Source\PSoC5/CapSense.c **** *
1911:Generated_Source\PSoC5/CapSense.c **** * Summary:
1912:Generated_Source\PSoC5/CapSense.c **** *  Sets ScanSpeed divider.
1913:Generated_Source\PSoC5/CapSense.c **** *
1914:Generated_Source\PSoC5/CapSense.c **** * Parameters:
1915:Generated_Source\PSoC5/CapSense.c **** *  scanspeed:  Sets ScanSpeed divider.
1916:Generated_Source\PSoC5/CapSense.c **** *
1917:Generated_Source\PSoC5/CapSense.c **** * Return:
1918:Generated_Source\PSoC5/CapSense.c **** *  None
1919:Generated_Source\PSoC5/CapSense.c **** *
1920:Generated_Source\PSoC5/CapSense.c **** *******************************************************************************/
1921:Generated_Source\PSoC5/CapSense.c **** void CapSense_SetScanSpeed(uint8 scanSpeed) 
1922:Generated_Source\PSoC5/CapSense.c **** {
 791              		.loc 1 1922 0
 792              		.cfi_startproc
 793              		@ args = 0, pretend = 0, frame = 0
 794              		@ frame_needed = 0, uses_anonymous_args = 0
 795              		@ link register save eliminated.
 796              	.LVL59:
ARM GAS  C:\Users\Xwx47\AppData\Local\Temp\ccd0GhAc.s 			page 50


1923:Generated_Source\PSoC5/CapSense.c ****     CapSense_SCANSPEED_PERIOD_REG = scanSpeed; 
 797              		.loc 1 1923 0
 798 0000 014B     		ldr	r3, .L57
 799 0002 1870     		strb	r0, [r3]
 800 0004 7047     		bx	lr
 801              	.L58:
 802 0006 00BF     		.align	2
 803              	.L57:
 804 0008 8A640040 		.word	1073767562
 805              		.cfi_endproc
 806              	.LFE17:
 807              		.size	CapSense_SetScanSpeed, .-CapSense_SetScanSpeed
 808              		.section	.text.CapSense_SetAnalogSwitchesSource,"ax",%progbits
 809              		.align	1
 810              		.global	CapSense_SetAnalogSwitchesSource
 811              		.thumb
 812              		.thumb_func
 813              		.type	CapSense_SetAnalogSwitchesSource, %function
 814              	CapSense_SetAnalogSwitchesSource:
 815              	.LFB18:
1924:Generated_Source\PSoC5/CapSense.c **** }
1925:Generated_Source\PSoC5/CapSense.c **** 
1926:Generated_Source\PSoC5/CapSense.c **** 
1927:Generated_Source\PSoC5/CapSense.c **** #if (CapSense_PRS_OPTIONS)
1928:Generated_Source\PSoC5/CapSense.c ****     /*******************************************************************************
1929:Generated_Source\PSoC5/CapSense.c ****     * Function Name: CapSense_SetAnalogSwitchesSource
1930:Generated_Source\PSoC5/CapSense.c ****     ********************************************************************************
1931:Generated_Source\PSoC5/CapSense.c ****     *
1932:Generated_Source\PSoC5/CapSense.c ****     * Summary:
1933:Generated_Source\PSoC5/CapSense.c ****     *  Selects the Analog switches source between PRS and prescaler. It is useful
1934:Generated_Source\PSoC5/CapSense.c ****     *  for sensor capacitance determination for sensors with low self-capacitance.
1935:Generated_Source\PSoC5/CapSense.c ****     *  This function is used in auto-tuning procedure.
1936:Generated_Source\PSoC5/CapSense.c ****     *
1937:Generated_Source\PSoC5/CapSense.c ****     * Parameters:
1938:Generated_Source\PSoC5/CapSense.c ****     *  src:  analog switches source:
1939:Generated_Source\PSoC5/CapSense.c ****     *           CapSense_ANALOG_SWITCHES_SRC_PRESCALER - selects prescaler
1940:Generated_Source\PSoC5/CapSense.c ****     *           CapSense_ANALOG_SWITCHES_SRC_PRS - selects PRS
1941:Generated_Source\PSoC5/CapSense.c ****     *
1942:Generated_Source\PSoC5/CapSense.c ****     * Return:
1943:Generated_Source\PSoC5/CapSense.c ****     *  None
1944:Generated_Source\PSoC5/CapSense.c ****     *
1945:Generated_Source\PSoC5/CapSense.c ****     * Reentrant:
1946:Generated_Source\PSoC5/CapSense.c ****     *  No
1947:Generated_Source\PSoC5/CapSense.c ****     *******************************************************************************/
1948:Generated_Source\PSoC5/CapSense.c ****     void CapSense_SetAnalogSwitchesSource(uint8 src)
1949:Generated_Source\PSoC5/CapSense.c ****                       
1950:Generated_Source\PSoC5/CapSense.c ****     {
 816              		.loc 1 1950 0
 817              		.cfi_startproc
 818              		@ args = 0, pretend = 0, frame = 0
 819              		@ frame_needed = 0, uses_anonymous_args = 0
 820              		@ link register save eliminated.
 821              	.LVL60:
 822 0000 044B     		ldr	r3, .L63
1951:Generated_Source\PSoC5/CapSense.c ****         if(src == CapSense_ANALOG_SWITCHES_SRC_PRESCALER)
 823              		.loc 1 1951 0
 824 0002 0128     		cmp	r0, #1
ARM GAS  C:\Users\Xwx47\AppData\Local\Temp\ccd0GhAc.s 			page 51


 825              	.LBB4:
 826              	.LBB5:
1952:Generated_Source\PSoC5/CapSense.c ****         {
1953:Generated_Source\PSoC5/CapSense.c ****             CapSense_CONTROL_REG &= (uint8)~0x10u;
 827              		.loc 1 1953 0
 828 0004 1A78     		ldrb	r2, [r3]	@ zero_extendqisi2
 829              	.LVL61:
 830 0006 0CBF     		ite	eq
 831 0008 02F0EF02 		andeq	r2, r2, #239
 832              	.LBE5:
 833              	.LBE4:
1954:Generated_Source\PSoC5/CapSense.c ****         }
1955:Generated_Source\PSoC5/CapSense.c ****         else
1956:Generated_Source\PSoC5/CapSense.c ****         {
1957:Generated_Source\PSoC5/CapSense.c ****             CapSense_CONTROL_REG |= 0x10u;
 834              		.loc 1 1957 0
 835 000c 42F01002 		orrne	r2, r2, #16
 836 0010 1A70     		strb	r2, [r3]
 837 0012 7047     		bx	lr
 838              	.L64:
 839              		.align	2
 840              	.L63:
 841 0014 79640040 		.word	1073767545
 842              		.cfi_endproc
 843              	.LFE18:
 844              		.size	CapSense_SetAnalogSwitchesSource, .-CapSense_SetAnalogSwitchesSource
 845              		.section	.text.CapSense_Init,"ax",%progbits
 846              		.align	1
 847              		.global	CapSense_Init
 848              		.thumb
 849              		.thumb_func
 850              		.type	CapSense_Init, %function
 851              	CapSense_Init:
 852              	.LFB0:
 107:Generated_Source\PSoC5/CapSense.c ****     #if ( (CapSense_PRS_OPTIONS) || \
 853              		.loc 1 107 0
 854              		.cfi_startproc
 855              		@ args = 0, pretend = 0, frame = 0
 856              		@ frame_needed = 0, uses_anonymous_args = 0
 857 0000 38B5     		push	{r3, r4, r5, lr}
 858              		.cfi_def_cfa_offset 16
 859              		.cfi_offset 3, -16
 860              		.cfi_offset 4, -12
 861              		.cfi_offset 5, -8
 862              		.cfi_offset 14, -4
 161:Generated_Source\PSoC5/CapSense.c ****                 
 863              		.loc 1 161 0
 864 0002 4FF6FF75 		movw	r5, #65535
 121:Generated_Source\PSoC5/CapSense.c **** 
 865              		.loc 1 121 0
 866 0006 FFF7FEFF 		bl	CapSense_ClearSensors
 867              	.LVL62:
 137:Generated_Source\PSoC5/CapSense.c ****     #endif /* (CapSense_PRS_OPTIONS) */
 868              		.loc 1 137 0
 869 000a 0220     		movs	r0, #2
 870 000c FFF7FEFF 		bl	CapSense_SetAnalogSwitchesSource
 871              	.LVL63:
ARM GAS  C:\Users\Xwx47\AppData\Local\Temp\ccd0GhAc.s 			page 52


 153:Generated_Source\PSoC5/CapSense.c ****         CapSense_AUX_CONTROL_A_REG |= CapSense_AUXCTRL_FIFO_SINGLE_REG;
 872              		.loc 1 153 0
 873 0010 FFF7FEFF 		bl	CyEnterCriticalSection
 874              	.LVL64:
 154:Generated_Source\PSoC5/CapSense.c ****         CapSense_AUX_CONTROL_B_REG |= CapSense_AUXCTRL_FIFO_SINGLE_REG;
 875              		.loc 1 154 0
 876 0014 2B4A     		ldr	r2, .L66
 181:Generated_Source\PSoC5/CapSense.c ****     
 877              		.loc 1 181 0
 878 0016 0724     		movs	r4, #7
 154:Generated_Source\PSoC5/CapSense.c ****         CapSense_AUX_CONTROL_B_REG |= CapSense_AUXCTRL_FIFO_SINGLE_REG;
 879              		.loc 1 154 0
 880 0018 1378     		ldrb	r3, [r2]	@ zero_extendqisi2
 881 001a 43F00303 		orr	r3, r3, #3
 882 001e 1370     		strb	r3, [r2]
 155:Generated_Source\PSoC5/CapSense.c ****         CyExitCriticalSection(enableInterrupts);
 883              		.loc 1 155 0
 884 0020 5378     		ldrb	r3, [r2, #1]	@ zero_extendqisi2
 885 0022 43F00303 		orr	r3, r3, #3
 886 0026 5370     		strb	r3, [r2, #1]
 156:Generated_Source\PSoC5/CapSense.c ****         
 887              		.loc 1 156 0
 888 0028 FFF7FEFF 		bl	CyExitCriticalSection
 889              	.LVL65:
 159:Generated_Source\PSoC5/CapSense.c ****         /* Write FIFO with seed */
 890              		.loc 1 159 0
 891 002c 264B     		ldr	r3, .L66+4
 892 002e 4FF43442 		mov	r2, #46080
 893 0032 1A80     		strh	r2, [r3]	@ movhi
 161:Generated_Source\PSoC5/CapSense.c ****                 
 894              		.loc 1 161 0
 895 0034 1D84     		strh	r5, [r3, #32]	@ movhi
 181:Generated_Source\PSoC5/CapSense.c ****     
 896              		.loc 1 181 0
 897 0036 83F86040 		strb	r4, [r3, #96]
 197:Generated_Source\PSoC5/CapSense.c ****         CapSense_PWM_CH0_AUX_CONTROL_REG |= CapSense_AUXCTRL_FIFO_SINGLE_REG;
 898              		.loc 1 197 0
 899 003a FFF7FEFF 		bl	CyEnterCriticalSection
 900              	.LVL66:
 198:Generated_Source\PSoC5/CapSense.c ****         CapSense_RAW_CH0_AUX_CONTROL_REG |= CapSense_AUXCTRL_FIFO_SINGLE_REG;
 901              		.loc 1 198 0
 902 003e 234A     		ldr	r2, .L66+8
 903 0040 1378     		ldrb	r3, [r2]	@ zero_extendqisi2
 904 0042 43F00303 		orr	r3, r3, #3
 905 0046 1370     		strb	r3, [r2]
 199:Generated_Source\PSoC5/CapSense.c ****         CyExitCriticalSection(enableInterrupts);
 906              		.loc 1 199 0
 907 0048 5378     		ldrb	r3, [r2, #1]	@ zero_extendqisi2
 908 004a 43F00303 		orr	r3, r3, #3
 909 004e 5370     		strb	r3, [r2, #1]
 200:Generated_Source\PSoC5/CapSense.c ****         
 910              		.loc 1 200 0
 911 0050 FFF7FEFF 		bl	CyExitCriticalSection
 912              	.LVL67:
 203:Generated_Source\PSoC5/CapSense.c ****         CapSense_PWM_CH0_PERIOD_LO_REG    = CapSense_MEASURE_FULL_RANGE_LOW;
 913              		.loc 1 203 0
 914 0054 1E4A     		ldr	r2, .L66+12
ARM GAS  C:\Users\Xwx47\AppData\Local\Temp\ccd0GhAc.s 			page 53


 915 0056 FF23     		movs	r3, #255
 916 0058 1570     		strb	r5, [r2]
 204:Generated_Source\PSoC5/CapSense.c ****         CapSense_PWM_CH0_COUNTER_LO_REG   = CapSense_MEASURE_FULL_RANGE_LOW;
 917              		.loc 1 204 0
 918 005a 82F82030 		strb	r3, [r2, #32]
 205:Generated_Source\PSoC5/CapSense.c ****         
 919              		.loc 1 205 0
 920 005e 02F8203C 		strb	r3, [r2, #-32]
 208:Generated_Source\PSoC5/CapSense.c ****         CapSense_RAW_CH0_PERIOD_HI_REG    = CapSense_MEASURE_FULL_RANGE_LOW;
 921              		.loc 1 208 0
 922 0062 5370     		strb	r3, [r2, #1]
 209:Generated_Source\PSoC5/CapSense.c ****         CapSense_RAW_CH0_PERIOD_LO_REG    = CapSense_MEASURE_FULL_RANGE_LOW;
 923              		.loc 1 209 0
 924 0064 82F83130 		strb	r3, [r2, #49]
 210:Generated_Source\PSoC5/CapSense.c ****         
 925              		.loc 1 210 0
 926 0068 82F82130 		strb	r3, [r2, #33]
 249:Generated_Source\PSoC5/CapSense.c ****     (void)CyIntSetVector(CapSense_IsrCH0_ISR_NUMBER, &CapSense_IsrCH0_ISR);
 927              		.loc 1 249 0
 928 006c 03F1E023 		add	r3, r3, #-536813568
 929 0070 0122     		movs	r2, #1
 930 0072 8133     		adds	r3, r3, #129
 931 0074 1A60     		str	r2, [r3]
 250:Generated_Source\PSoC5/CapSense.c ****     CyIntSetPriority(CapSense_IsrCH0_ISR_NUMBER, CapSense_IsrCH0_ISR_PRIORITY);
 932              		.loc 1 250 0
 933 0076 1749     		ldr	r1, .L66+16
 934 0078 0020     		movs	r0, #0
 935 007a FFF7FEFF 		bl	CyIntSetVector
 936              	.LVL68:
 251:Generated_Source\PSoC5/CapSense.c ****     
 937              		.loc 1 251 0
 938 007e 2146     		mov	r1, r4
 939 0080 0020     		movs	r0, #0
 940 0082 FFF7FEFF 		bl	CyIntSetPriority
 941              	.LVL69:
 260:Generated_Source\PSoC5/CapSense.c ****     CapSense_AMuxCH0_Connect(CapSense_AMuxCH0_CMOD_CHANNEL);
 942              		.loc 1 260 0
 943 0086 FFF7FEFF 		bl	CapSense_AMuxCH0_Init
 944              	.LVL70:
 261:Generated_Source\PSoC5/CapSense.c ****     CapSense_AMuxCH0_Connect(CapSense_AMuxCH0_CMP_VP_CHANNEL);
 945              		.loc 1 261 0
 946 008a 0320     		movs	r0, #3
 947 008c FFF7FEFF 		bl	CapSense_AMuxCH0_Set
 948              	.LVL71:
 262:Generated_Source\PSoC5/CapSense.c ****     #if (CapSense_CURRENT_SOURCE)
 949              		.loc 1 262 0
 950 0090 0420     		movs	r0, #4
 951 0092 FFF7FEFF 		bl	CapSense_AMuxCH0_Set
 952              	.LVL72:
 264:Generated_Source\PSoC5/CapSense.c ****     #endif  /* CapSense_CURRENT_SOURCE */
 953              		.loc 1 264 0
 954 0096 0520     		movs	r0, #5
 955 0098 FFF7FEFF 		bl	CapSense_AMuxCH0_Set
 956              	.LVL73:
 282:Generated_Source\PSoC5/CapSense.c ****     #if (CapSense_DESIGN_TYPE == CapSense_TWO_CHANNELS_DESIGN)
 957              		.loc 1 282 0
 958 009c 0E4A     		ldr	r2, .L66+20
ARM GAS  C:\Users\Xwx47\AppData\Local\Temp\ccd0GhAc.s 			page 54


 959 009e 1378     		ldrb	r3, [r2]	@ zero_extendqisi2
 960 00a0 43F00403 		orr	r3, r3, #4
 961 00a4 1370     		strb	r3, [r2]
 288:Generated_Source\PSoC5/CapSense.c ****     #if (CapSense_CURRENT_SOURCE)
 962              		.loc 1 288 0
 963 00a6 FFF7FEFF 		bl	CapSense_CompCH0_Init
 964              	.LVL74:
 290:Generated_Source\PSoC5/CapSense.c ****         CapSense_IdacCH0_SetPolarity(CapSense_IdacCH0_IDIR);
 965              		.loc 1 290 0
 966 00aa FFF7FEFF 		bl	CapSense_IdacCH0_Init
 967              	.LVL75:
 291:Generated_Source\PSoC5/CapSense.c ****         CapSense_IdacCH0_SetRange(CapSense_IDAC_RANGE_VALUE);
 968              		.loc 1 291 0
 969 00ae 0020     		movs	r0, #0
 970 00b0 FFF7FEFF 		bl	CapSense_IdacCH0_SetPolarity
 971              	.LVL76:
 292:Generated_Source\PSoC5/CapSense.c ****         CapSense_IdacCH0_SetValue(CapSense_TURN_OFF_IDAC);
 972              		.loc 1 292 0
 973 00b4 0420     		movs	r0, #4
 974 00b6 FFF7FEFF 		bl	CapSense_IdacCH0_SetRange
 975              	.LVL77:
 313:Generated_Source\PSoC5/CapSense.c **** 
 976              		.loc 1 313 0
 977 00ba BDE83840 		pop	{r3, r4, r5, lr}
 978              		.cfi_restore 14
 979              		.cfi_restore 5
 980              		.cfi_restore 4
 981              		.cfi_restore 3
 982              		.cfi_def_cfa_offset 0
 293:Generated_Source\PSoC5/CapSense.c ****     #endif  /* CapSense_CURRENT_SOURCE */
 983              		.loc 1 293 0
 984 00be 0020     		movs	r0, #0
 985 00c0 FFF7FEBF 		b	CapSense_IdacCH0_SetValue
 986              	.LVL78:
 987              	.L67:
 988              		.align	2
 989              	.L66:
 990 00c4 9A640040 		.word	1073767578
 991 00c8 2A640040 		.word	1073767466
 992 00cc 9C640040 		.word	1073767580
 993 00d0 2C640040 		.word	1073767468
 994 00d4 00000000 		.word	CapSense_IsrCH0_ISR
 995 00d8 79640040 		.word	1073767545
 996              		.cfi_endproc
 997              	.LFE0:
 998              		.size	CapSense_Init, .-CapSense_Init
 999              		.section	.text.CapSense_Start,"ax",%progbits
 1000              		.align	1
 1001              		.global	CapSense_Start
 1002              		.thumb
 1003              		.thumb_func
 1004              		.type	CapSense_Start, %function
 1005              	CapSense_Start:
 1006              	.LFB2:
 485:Generated_Source\PSoC5/CapSense.c ****     if (CapSense_initVar == 0u)
 1007              		.loc 1 485 0
 1008              		.cfi_startproc
ARM GAS  C:\Users\Xwx47\AppData\Local\Temp\ccd0GhAc.s 			page 55


 1009              		@ args = 0, pretend = 0, frame = 0
 1010              		@ frame_needed = 0, uses_anonymous_args = 0
 1011 0000 10B5     		push	{r4, lr}
 1012              		.cfi_def_cfa_offset 8
 1013              		.cfi_offset 4, -8
 1014              		.cfi_offset 14, -4
 486:Generated_Source\PSoC5/CapSense.c ****     {
 1015              		.loc 1 486 0
 1016 0002 074C     		ldr	r4, .L70
 1017 0004 2378     		ldrb	r3, [r4]	@ zero_extendqisi2
 1018 0006 1BB9     		cbnz	r3, .L69
 488:Generated_Source\PSoC5/CapSense.c ****         CapSense_initVar = 1u;
 1019              		.loc 1 488 0
 1020 0008 FFF7FEFF 		bl	CapSense_Init
 1021              	.LVL79:
 489:Generated_Source\PSoC5/CapSense.c ****     }
 1022              		.loc 1 489 0
 1023 000c 0123     		movs	r3, #1
 1024 000e 2370     		strb	r3, [r4]
 1025              	.L69:
 491:Generated_Source\PSoC5/CapSense.c ****     
 1026              		.loc 1 491 0
 1027 0010 FFF7FEFF 		bl	CapSense_Enable
 1028              	.LVL80:
 496:Generated_Source\PSoC5/CapSense.c ****         CapSense_lowLevelTuningDone = 1u;
 1029              		.loc 1 496 0
 1030 0014 FFF7FEFF 		bl	CapSense_AutoTune
 1031              	.LVL81:
 497:Generated_Source\PSoC5/CapSense.c ****     #endif /* (CapSense_TUNING_METHOD == CapSense_AUTO_TUNING) */
 1032              		.loc 1 497 0
 1033 0018 024B     		ldr	r3, .L70+4
 1034 001a 0122     		movs	r2, #1
 1035 001c DA71     		strb	r2, [r3, #7]
 1036 001e 10BD     		pop	{r4, pc}
 1037              	.L71:
 1038              		.align	2
 1039              	.L70:
 1040 0020 00000000 		.word	.LANCHOR2
 1041 0024 00000000 		.word	.LANCHOR0
 1042              		.cfi_endproc
 1043              	.LFE2:
 1044              		.size	CapSense_Start, .-CapSense_Start
 1045              		.global	CapSense_widgetNumber
 1046              		.comm	CapSense_analogSwitchDivider,3,1
 1047              		.global	CapSense_widgetResolution
 1048              		.global	CapSense_idacSettings
 1049              		.global	CapSense_csTable
 1050              		.global	CapSense_maskTable
 1051              		.global	CapSense_portTable
 1052              		.global	CapSense_pcTable
 1053              		.global	CapSense_sensorEnableMask
 1054              		.comm	CapSense_sensorRaw,6,2
 1055              		.global	CapSense_lowLevelTuningDone
 1056              		.comm	CapSense_sensorIndex,1,1
 1057              		.comm	CapSense_csv,1,1
 1058              		.section	.rodata
 1059              		.align	2
ARM GAS  C:\Users\Xwx47\AppData\Local\Temp\ccd0GhAc.s 			page 56


 1060              		.set	.LANCHOR1,. + 0
 1061              		.type	CapSense_portTable, %object
 1062              		.size	CapSense_portTable, 3
 1063              	CapSense_portTable:
 1064 0000 01       		.byte	1
 1065 0001 01       		.byte	1
 1066 0002 01       		.byte	1
 1067              		.type	CapSense_maskTable, %object
 1068              		.size	CapSense_maskTable, 3
 1069              	CapSense_maskTable:
 1070 0003 40       		.byte	64
 1071 0004 10       		.byte	16
 1072 0005 04       		.byte	4
 1073 0006 0000     		.space	2
 1074              		.type	CapSense_pcTable, %object
 1075              		.size	CapSense_pcTable, 12
 1076              	CapSense_pcTable:
 1077 0008 0E500040 		.word	1073762318
 1078 000c 0C500040 		.word	1073762316
 1079 0010 0A500040 		.word	1073762314
 1080              		.type	CapSense_csTable, %object
 1081              		.size	CapSense_csTable, 32
 1082              	CapSense_csTable:
 1083 0014 06520040 		.word	1073762822
 1084 0018 0E520040 		.word	1073762830
 1085 001c 16520040 		.word	1073762838
 1086 0020 1E520040 		.word	1073762846
 1087 0024 26520040 		.word	1073762854
 1088 0028 2E520040 		.word	1073762862
 1089 002c 36520040 		.word	1073762870
 1090 0030 7E520040 		.word	1073762942
 1091              		.type	CapSense_widgetNumber, %object
 1092              		.size	CapSense_widgetNumber, 3
 1093              	CapSense_widgetNumber:
 1094 0034 00       		.byte	0
 1095 0035 01       		.byte	1
 1096 0036 02       		.byte	2
 1097              		.data
 1098              		.set	.LANCHOR0,. + 0
 1099              		.type	CapSense_sensorEnableMask, %object
 1100              		.size	CapSense_sensorEnableMask, 1
 1101              	CapSense_sensorEnableMask:
 1102 0000 07       		.byte	7
 1103              		.type	CapSense_idacSettings, %object
 1104              		.size	CapSense_idacSettings, 3
 1105              	CapSense_idacSettings:
 1106 0001 C8       		.byte	-56
 1107 0002 C8       		.byte	-56
 1108 0003 C8       		.byte	-56
 1109              		.type	CapSense_widgetResolution, %object
 1110              		.size	CapSense_widgetResolution, 3
 1111              	CapSense_widgetResolution:
 1112 0004 03       		.byte	3
 1113 0005 03       		.byte	3
 1114 0006 03       		.byte	3
 1115              		.type	CapSense_lowLevelTuningDone, %object
 1116              		.size	CapSense_lowLevelTuningDone, 1
ARM GAS  C:\Users\Xwx47\AppData\Local\Temp\ccd0GhAc.s 			page 57


 1117              	CapSense_lowLevelTuningDone:
 1118 0007 01       		.byte	1
 1119              		.bss
 1120              		.set	.LANCHOR2,. + 0
 1121              		.type	CapSense_initVar, %object
 1122              		.size	CapSense_initVar, 1
 1123              	CapSense_initVar:
 1124 0000 00       		.space	1
 1125              		.text
 1126              	.Letext0:
 1127              		.file 2 "Generated_Source\\PSoC5\\cytypes.h"
 1128              		.file 3 "Generated_Source\\PSoC5\\CyLib.h"
 1129              		.file 4 "Generated_Source\\PSoC5\\CapSense_IntClock.h"
 1130              		.file 5 "Generated_Source\\PSoC5\\CapSense_CompCH0.h"
 1131              		.file 6 "Generated_Source\\PSoC5\\CapSense_IdacCH0.h"
 1132              		.file 7 "Generated_Source\\PSoC5\\cyfitter_cfg.h"
 1133              		.file 8 "Generated_Source\\PSoC5\\CapSense_AMuxCH0.h"
 1134              		.file 9 "Generated_Source\\PSoC5\\CapSense.h"