ARM GAS  C:\Users\Xwx47\AppData\Local\Temp\cc3ythzD.s 			page 1


   1              		.syntax unified
   2              		.cpu cortex-m3
   3              		.fpu softvfp
   4              		.eabi_attribute 20, 1
   5              		.eabi_attribute 21, 1
   6              		.eabi_attribute 23, 3
   7              		.eabi_attribute 24, 1
   8              		.eabi_attribute 25, 1
   9              		.eabi_attribute 26, 1
  10              		.eabi_attribute 30, 4
  11              		.eabi_attribute 34, 1
  12              		.eabi_attribute 18, 4
  13              		.thumb
  14              		.syntax unified
  15              		.file	"CapSense_PM.c"
  16              		.text
  17              	.Ltext0:
  18              		.cfi_sections	.debug_frame
  19              		.section	.text.CapSense_SaveConfig,"ax",%progbits
  20              		.align	1
  21              		.global	CapSense_SaveConfig
  22              		.thumb
  23              		.thumb_func
  24              		.type	CapSense_SaveConfig, %function
  25              	CapSense_SaveConfig:
  26              	.LFB0:
  27              		.file 1 "Generated_Source\\PSoC5\\CapSense_PM.c"
   1:Generated_Source\PSoC5/CapSense_PM.c **** /*******************************************************************************
   2:Generated_Source\PSoC5/CapSense_PM.c **** * File Name: CapSense_PM.c
   3:Generated_Source\PSoC5/CapSense_PM.c **** * Version 3.50
   4:Generated_Source\PSoC5/CapSense_PM.c **** *
   5:Generated_Source\PSoC5/CapSense_PM.c **** * Description:
   6:Generated_Source\PSoC5/CapSense_PM.c **** *  This file provides Sleep APIs for CapSense CSD Component.
   7:Generated_Source\PSoC5/CapSense_PM.c **** *
   8:Generated_Source\PSoC5/CapSense_PM.c **** * Note:
   9:Generated_Source\PSoC5/CapSense_PM.c **** *
  10:Generated_Source\PSoC5/CapSense_PM.c **** ********************************************************************************
  11:Generated_Source\PSoC5/CapSense_PM.c **** * Copyright 2008-2013, Cypress Semiconductor Corporation.  All rights reserved.
  12:Generated_Source\PSoC5/CapSense_PM.c **** * You may use this file only in accordance with the license, terms, conditions, 
  13:Generated_Source\PSoC5/CapSense_PM.c **** * disclaimers, and limitations in the end user license agreement accompanying 
  14:Generated_Source\PSoC5/CapSense_PM.c **** * the software package with which this file was provided.
  15:Generated_Source\PSoC5/CapSense_PM.c **** *******************************************************************************/
  16:Generated_Source\PSoC5/CapSense_PM.c **** 
  17:Generated_Source\PSoC5/CapSense_PM.c **** #include "CapSense.h"
  18:Generated_Source\PSoC5/CapSense_PM.c **** 
  19:Generated_Source\PSoC5/CapSense_PM.c **** CapSense_BACKUP_STRUCT CapSense_backup =
  20:Generated_Source\PSoC5/CapSense_PM.c **** {   
  21:Generated_Source\PSoC5/CapSense_PM.c ****     0x00u, /* enableState; */
  22:Generated_Source\PSoC5/CapSense_PM.c ****     
  23:Generated_Source\PSoC5/CapSense_PM.c **** };
  24:Generated_Source\PSoC5/CapSense_PM.c **** 
  25:Generated_Source\PSoC5/CapSense_PM.c **** 
  26:Generated_Source\PSoC5/CapSense_PM.c **** /*******************************************************************************
  27:Generated_Source\PSoC5/CapSense_PM.c **** * Function Name: CapSense_SaveConfig
  28:Generated_Source\PSoC5/CapSense_PM.c **** ********************************************************************************
  29:Generated_Source\PSoC5/CapSense_PM.c **** *
  30:Generated_Source\PSoC5/CapSense_PM.c **** * Summary:
ARM GAS  C:\Users\Xwx47\AppData\Local\Temp\cc3ythzD.s 			page 2


  31:Generated_Source\PSoC5/CapSense_PM.c **** *  Saves customer configuration of CapSense none-retention registers. Resets 
  32:Generated_Source\PSoC5/CapSense_PM.c **** *  all sensors to an inactive state.
  33:Generated_Source\PSoC5/CapSense_PM.c **** *
  34:Generated_Source\PSoC5/CapSense_PM.c **** * Parameters:
  35:Generated_Source\PSoC5/CapSense_PM.c **** *  None
  36:Generated_Source\PSoC5/CapSense_PM.c **** *
  37:Generated_Source\PSoC5/CapSense_PM.c **** * Return:
  38:Generated_Source\PSoC5/CapSense_PM.c **** *  None
  39:Generated_Source\PSoC5/CapSense_PM.c **** *
  40:Generated_Source\PSoC5/CapSense_PM.c **** * Side Effects:
  41:Generated_Source\PSoC5/CapSense_PM.c **** *  Function CapSense_SaveConfig disconnects all sensors from the
  42:Generated_Source\PSoC5/CapSense_PM.c **** *  Analog MUX Bus and puts them into inactive state. Call this function
  43:Generated_Source\PSoC5/CapSense_PM.c **** *  during the active scan can cause unpredictable component behavior.
  44:Generated_Source\PSoC5/CapSense_PM.c **** *
  45:Generated_Source\PSoC5/CapSense_PM.c **** * Note:
  46:Generated_Source\PSoC5/CapSense_PM.c **** *  This function should be called after completion of all scans.
  47:Generated_Source\PSoC5/CapSense_PM.c **** *
  48:Generated_Source\PSoC5/CapSense_PM.c **** * Global Variables:
  49:Generated_Source\PSoC5/CapSense_PM.c **** *  CapSense_backup - used to save component state before enter sleep 
  50:Generated_Source\PSoC5/CapSense_PM.c **** *  mode and none-retention registers.
  51:Generated_Source\PSoC5/CapSense_PM.c **** *
  52:Generated_Source\PSoC5/CapSense_PM.c **** * Reentrant:
  53:Generated_Source\PSoC5/CapSense_PM.c **** *  Yes.
  54:Generated_Source\PSoC5/CapSense_PM.c **** *
  55:Generated_Source\PSoC5/CapSense_PM.c **** *******************************************************************************/
  56:Generated_Source\PSoC5/CapSense_PM.c **** void CapSense_SaveConfig(void) 
  57:Generated_Source\PSoC5/CapSense_PM.c **** {    
  28              		.loc 1 57 0
  29              		.cfi_startproc
  30              		@ args = 0, pretend = 0, frame = 0
  31              		@ frame_needed = 0, uses_anonymous_args = 0
  32              		@ link register save eliminated.
  58:Generated_Source\PSoC5/CapSense_PM.c **** 
  59:Generated_Source\PSoC5/CapSense_PM.c ****     /* Set CONTROL_REG */
  60:Generated_Source\PSoC5/CapSense_PM.c ****     CapSense_backup.ctrlReg = CapSense_CONTROL_REG;
  33              		.loc 1 60 0
  34 0000 024B     		ldr	r3, .L2
  35 0002 1A78     		ldrb	r2, [r3]	@ zero_extendqisi2
  36 0004 024B     		ldr	r3, .L2+4
  37 0006 5A70     		strb	r2, [r3, #1]
  61:Generated_Source\PSoC5/CapSense_PM.c **** 
  62:Generated_Source\PSoC5/CapSense_PM.c ****     /* Clear all sensors */
  63:Generated_Source\PSoC5/CapSense_PM.c ****     CapSense_ClearSensors();
  38              		.loc 1 63 0
  39 0008 FFF7FEBF 		b	CapSense_ClearSensors
  40              	.LVL0:
  41              	.L3:
  42              		.align	2
  43              	.L2:
  44 000c 79640040 		.word	1073767545
  45 0010 00000000 		.word	.LANCHOR0
  46              		.cfi_endproc
  47              	.LFE0:
  48              		.size	CapSense_SaveConfig, .-CapSense_SaveConfig
  49              		.section	.text.CapSense_Sleep,"ax",%progbits
  50              		.align	1
  51              		.global	CapSense_Sleep
ARM GAS  C:\Users\Xwx47\AppData\Local\Temp\cc3ythzD.s 			page 3


  52              		.thumb
  53              		.thumb_func
  54              		.type	CapSense_Sleep, %function
  55              	CapSense_Sleep:
  56              	.LFB1:
  64:Generated_Source\PSoC5/CapSense_PM.c ****     
  65:Generated_Source\PSoC5/CapSense_PM.c ****     /* The pins disable is customer concern: Cmod and Rb */
  66:Generated_Source\PSoC5/CapSense_PM.c **** }
  67:Generated_Source\PSoC5/CapSense_PM.c **** 
  68:Generated_Source\PSoC5/CapSense_PM.c **** 
  69:Generated_Source\PSoC5/CapSense_PM.c **** /*******************************************************************************
  70:Generated_Source\PSoC5/CapSense_PM.c **** * Function Name: CapSense_Sleep
  71:Generated_Source\PSoC5/CapSense_PM.c **** ********************************************************************************
  72:Generated_Source\PSoC5/CapSense_PM.c **** *
  73:Generated_Source\PSoC5/CapSense_PM.c **** * Summary:
  74:Generated_Source\PSoC5/CapSense_PM.c **** *  Disables Active mode power template bits for number of component used within 
  75:Generated_Source\PSoC5/CapSense_PM.c **** *  CapSense. Calls CapSense_SaveConfig() function to save customer 
  76:Generated_Source\PSoC5/CapSense_PM.c **** *  configuration of CapSense none-retention registers and resets all sensors 
  77:Generated_Source\PSoC5/CapSense_PM.c **** *  to an inactive state.
  78:Generated_Source\PSoC5/CapSense_PM.c **** *
  79:Generated_Source\PSoC5/CapSense_PM.c **** * Parameters:
  80:Generated_Source\PSoC5/CapSense_PM.c **** *  None
  81:Generated_Source\PSoC5/CapSense_PM.c **** *
  82:Generated_Source\PSoC5/CapSense_PM.c **** * Return:
  83:Generated_Source\PSoC5/CapSense_PM.c **** *  None
  84:Generated_Source\PSoC5/CapSense_PM.c **** *
  85:Generated_Source\PSoC5/CapSense_PM.c **** * Side Effects:
  86:Generated_Source\PSoC5/CapSense_PM.c **** *  Function CapSense_Sleep disconnects all sensors from the
  87:Generated_Source\PSoC5/CapSense_PM.c **** *  Analog MUX Bus and puts them into inactive state. Call this function
  88:Generated_Source\PSoC5/CapSense_PM.c **** *  during the active scan can cause unpredictable component behavior.
  89:Generated_Source\PSoC5/CapSense_PM.c **** *
  90:Generated_Source\PSoC5/CapSense_PM.c **** * Note:
  91:Generated_Source\PSoC5/CapSense_PM.c **** *  This function should be called after completion of all scans.
  92:Generated_Source\PSoC5/CapSense_PM.c **** *
  93:Generated_Source\PSoC5/CapSense_PM.c **** * Global Variables:
  94:Generated_Source\PSoC5/CapSense_PM.c **** *  CapSense_backup - used to save component state before enter sleep 
  95:Generated_Source\PSoC5/CapSense_PM.c **** *  mode and none-retention registers.
  96:Generated_Source\PSoC5/CapSense_PM.c **** *
  97:Generated_Source\PSoC5/CapSense_PM.c **** * Reentrant:
  98:Generated_Source\PSoC5/CapSense_PM.c **** *  No
  99:Generated_Source\PSoC5/CapSense_PM.c **** *
 100:Generated_Source\PSoC5/CapSense_PM.c **** *******************************************************************************/
 101:Generated_Source\PSoC5/CapSense_PM.c **** void CapSense_Sleep(void) 
 102:Generated_Source\PSoC5/CapSense_PM.c **** {
  57              		.loc 1 102 0
  58              		.cfi_startproc
  59              		@ args = 0, pretend = 0, frame = 0
  60              		@ frame_needed = 0, uses_anonymous_args = 0
  61 0000 08B5     		push	{r3, lr}
  62              		.cfi_def_cfa_offset 8
  63              		.cfi_offset 3, -8
  64              		.cfi_offset 14, -4
 103:Generated_Source\PSoC5/CapSense_PM.c ****     /* Check and save enable state */
 104:Generated_Source\PSoC5/CapSense_PM.c ****     if(CapSense_IS_CAPSENSE_ENABLE(CapSense_CONTROL_REG))
  65              		.loc 1 104 0
  66 0002 084B     		ldr	r3, .L8
  67 0004 1B78     		ldrb	r3, [r3]	@ zero_extendqisi2
ARM GAS  C:\Users\Xwx47\AppData\Local\Temp\cc3ythzD.s 			page 4


  68 0006 13F0800F 		tst	r3, #128
  69 000a 074B     		ldr	r3, .L8+4
  70 000c 04D0     		beq	.L5
 105:Generated_Source\PSoC5/CapSense_PM.c ****     {
 106:Generated_Source\PSoC5/CapSense_PM.c ****         CapSense_backup.enableState = 1u;
  71              		.loc 1 106 0
  72 000e 0122     		movs	r2, #1
  73 0010 1A70     		strb	r2, [r3]
 107:Generated_Source\PSoC5/CapSense_PM.c ****         CapSense_Stop();
  74              		.loc 1 107 0
  75 0012 FFF7FEFF 		bl	CapSense_Stop
  76              	.LVL1:
  77 0016 01E0     		b	.L6
  78              	.L5:
 108:Generated_Source\PSoC5/CapSense_PM.c ****     }
 109:Generated_Source\PSoC5/CapSense_PM.c ****     else
 110:Generated_Source\PSoC5/CapSense_PM.c ****     {
 111:Generated_Source\PSoC5/CapSense_PM.c ****         CapSense_backup.enableState = 0u;
  79              		.loc 1 111 0
  80 0018 0022     		movs	r2, #0
  81 001a 1A70     		strb	r2, [r3]
  82              	.L6:
 112:Generated_Source\PSoC5/CapSense_PM.c ****     }
 113:Generated_Source\PSoC5/CapSense_PM.c ****     
 114:Generated_Source\PSoC5/CapSense_PM.c ****     CapSense_SaveConfig();
 115:Generated_Source\PSoC5/CapSense_PM.c **** }
  83              		.loc 1 115 0
  84 001c BDE80840 		pop	{r3, lr}
  85              		.cfi_restore 14
  86              		.cfi_restore 3
  87              		.cfi_def_cfa_offset 0
 114:Generated_Source\PSoC5/CapSense_PM.c **** }
  88              		.loc 1 114 0
  89 0020 FFF7FEBF 		b	CapSense_SaveConfig
  90              	.LVL2:
  91              	.L9:
  92              		.align	2
  93              	.L8:
  94 0024 79640040 		.word	1073767545
  95 0028 00000000 		.word	.LANCHOR0
  96              		.cfi_endproc
  97              	.LFE1:
  98              		.size	CapSense_Sleep, .-CapSense_Sleep
  99              		.section	.text.CapSense_RestoreConfig,"ax",%progbits
 100              		.align	1
 101              		.global	CapSense_RestoreConfig
 102              		.thumb
 103              		.thumb_func
 104              		.type	CapSense_RestoreConfig, %function
 105              	CapSense_RestoreConfig:
 106              	.LFB2:
 116:Generated_Source\PSoC5/CapSense_PM.c **** 
 117:Generated_Source\PSoC5/CapSense_PM.c **** 
 118:Generated_Source\PSoC5/CapSense_PM.c **** /*******************************************************************************
 119:Generated_Source\PSoC5/CapSense_PM.c **** * Function Name: CapSense_RestoreConfig
 120:Generated_Source\PSoC5/CapSense_PM.c **** ********************************************************************************
 121:Generated_Source\PSoC5/CapSense_PM.c **** *
ARM GAS  C:\Users\Xwx47\AppData\Local\Temp\cc3ythzD.s 			page 5


 122:Generated_Source\PSoC5/CapSense_PM.c **** * Summary:
 123:Generated_Source\PSoC5/CapSense_PM.c **** *  Restores CapSense configuration and non-retention register values.
 124:Generated_Source\PSoC5/CapSense_PM.c **** *
 125:Generated_Source\PSoC5/CapSense_PM.c **** * Parameters:
 126:Generated_Source\PSoC5/CapSense_PM.c **** *  None
 127:Generated_Source\PSoC5/CapSense_PM.c **** *
 128:Generated_Source\PSoC5/CapSense_PM.c **** * Return:
 129:Generated_Source\PSoC5/CapSense_PM.c **** *  None
 130:Generated_Source\PSoC5/CapSense_PM.c **** *
 131:Generated_Source\PSoC5/CapSense_PM.c **** * Side Effects:
 132:Generated_Source\PSoC5/CapSense_PM.c **** *  Must be called only after CapSense_SaveConfig() routine. Otherwise 
 133:Generated_Source\PSoC5/CapSense_PM.c **** *  the component configuration will be overwritten with its initial setting.
 134:Generated_Source\PSoC5/CapSense_PM.c **** *  This finction modifies the CONTROL_REG register. 
 135:Generated_Source\PSoC5/CapSense_PM.c **** *
 136:Generated_Source\PSoC5/CapSense_PM.c **** * Note:
 137:Generated_Source\PSoC5/CapSense_PM.c **** *  This function should be called after completion of all scans.
 138:Generated_Source\PSoC5/CapSense_PM.c **** *
 139:Generated_Source\PSoC5/CapSense_PM.c **** * Global Variables:
 140:Generated_Source\PSoC5/CapSense_PM.c **** *  CapSense_backup - used to save component state before enter sleep 
 141:Generated_Source\PSoC5/CapSense_PM.c **** *  mode and none-retention registers.
 142:Generated_Source\PSoC5/CapSense_PM.c **** *
 143:Generated_Source\PSoC5/CapSense_PM.c **** *******************************************************************************/
 144:Generated_Source\PSoC5/CapSense_PM.c **** void CapSense_RestoreConfig(void) 
 145:Generated_Source\PSoC5/CapSense_PM.c **** {       
 107              		.loc 1 145 0
 108              		.cfi_startproc
 109              		@ args = 0, pretend = 0, frame = 0
 110              		@ frame_needed = 0, uses_anonymous_args = 0
 111              		@ link register save eliminated.
 146:Generated_Source\PSoC5/CapSense_PM.c ****     /* Set PRS */
 147:Generated_Source\PSoC5/CapSense_PM.c ****     #if (CapSense_PRS_OPTIONS == CapSense_PRS_8BITS)        
 148:Generated_Source\PSoC5/CapSense_PM.c ****         /* Write FIFO with seed */
 149:Generated_Source\PSoC5/CapSense_PM.c ****         CapSense_SEED_COPY_REG = CapSense_MEASURE_FULL_RANGE_LOW;               /* F0 register */
 150:Generated_Source\PSoC5/CapSense_PM.c ****     
 151:Generated_Source\PSoC5/CapSense_PM.c ****     #elif (CapSense_PRS_OPTIONS == CapSense_PRS_16BITS)
 152:Generated_Source\PSoC5/CapSense_PM.c ****         /* Write FIFO with seed */
 153:Generated_Source\PSoC5/CapSense_PM.c ****         CY_SET_REG16(CapSense_SEED_COPY_PTR, CapSense_MEASURE_FULL_RANGE);      /* F0 register */
 112              		.loc 1 153 0
 113 0000 4FF6FF72 		movw	r2, #65535
 114 0004 084B     		ldr	r3, .L11
 154:Generated_Source\PSoC5/CapSense_PM.c ****                 
 155:Generated_Source\PSoC5/CapSense_PM.c ****     #elif (CapSense_PRS_OPTIONS == CapSense_PRS_16BITS_4X)
 156:Generated_Source\PSoC5/CapSense_PM.c ****         
 157:Generated_Source\PSoC5/CapSense_PM.c ****         /* Write FIFO with seed */
 158:Generated_Source\PSoC5/CapSense_PM.c ****         CapSense_SEED_COPY_A__F1_REG = CapSense_MEASURE_FULL_RANGE_LOW;         /* F0 register */
 159:Generated_Source\PSoC5/CapSense_PM.c ****         CapSense_SEED_COPY_A__F0_REG =CapSense_MEASURE_FULL_RANGE_LOW;          /* F1 register */
 160:Generated_Source\PSoC5/CapSense_PM.c ****         
 161:Generated_Source\PSoC5/CapSense_PM.c ****     #else
 162:Generated_Source\PSoC5/CapSense_PM.c ****         /* Do nothing = config without PRS */
 163:Generated_Source\PSoC5/CapSense_PM.c ****     #endif  /* (CapSense_PRS_OPTIONS == CapSense_PRS_8BITS) */
 164:Generated_Source\PSoC5/CapSense_PM.c ****     
 165:Generated_Source\PSoC5/CapSense_PM.c ****     /* Set the Measure */
 166:Generated_Source\PSoC5/CapSense_PM.c ****     #if (CapSense_IMPLEMENTATION_CH0 == CapSense_MEASURE_IMPLEMENTATION_FF)
 167:Generated_Source\PSoC5/CapSense_PM.c ****         /* Window PWM  - FF Timer register are retention */
 168:Generated_Source\PSoC5/CapSense_PM.c ****         /* Raw Counter - FF Timer register are retention */
 169:Generated_Source\PSoC5/CapSense_PM.c ****     #else
 170:Generated_Source\PSoC5/CapSense_PM.c ****         
ARM GAS  C:\Users\Xwx47\AppData\Local\Temp\cc3ythzD.s 			page 6


 171:Generated_Source\PSoC5/CapSense_PM.c ****         /* Window PWM */
 172:Generated_Source\PSoC5/CapSense_PM.c ****         CapSense_PWM_CH0_PERIOD_LO_REG    = CapSense_MEASURE_FULL_RANGE_LOW;        /* F0 register 
 115              		.loc 1 172 0
 116 0006 0949     		ldr	r1, .L11+4
 153:Generated_Source\PSoC5/CapSense_PM.c ****                 
 117              		.loc 1 153 0
 118 0008 1A80     		strh	r2, [r3]	@ movhi
 119              		.loc 1 172 0
 120 000a 0A70     		strb	r2, [r1]
 173:Generated_Source\PSoC5/CapSense_PM.c ****         
 174:Generated_Source\PSoC5/CapSense_PM.c ****         /* Raw Counter */
 175:Generated_Source\PSoC5/CapSense_PM.c ****         CapSense_RAW_CH0_PERIOD_HI_REG    = CapSense_MEASURE_FULL_RANGE_LOW;        /* F1 register 
 121              		.loc 1 175 0
 122 000c 084A     		ldr	r2, .L11+8
 172:Generated_Source\PSoC5/CapSense_PM.c ****         
 123              		.loc 1 172 0
 124 000e FF23     		movs	r3, #255
 125              		.loc 1 175 0
 126 0010 1370     		strb	r3, [r2]
 176:Generated_Source\PSoC5/CapSense_PM.c ****         CapSense_RAW_CH0_PERIOD_LO_REG    = CapSense_MEASURE_FULL_RANGE_LOW;        /* F0 register 
 127              		.loc 1 176 0
 128 0012 02F8103C 		strb	r3, [r2, #-16]
 177:Generated_Source\PSoC5/CapSense_PM.c ****     
 178:Generated_Source\PSoC5/CapSense_PM.c ****     #endif  /* (CapSense_IMPLEMENTATION_CH0 == CapSense_MEASURE_IMPLEMENTATION_FF) */ 
 179:Generated_Source\PSoC5/CapSense_PM.c ****     
 180:Generated_Source\PSoC5/CapSense_PM.c ****     #if (CapSense_DESIGN_TYPE == CapSense_TWO_CHANNELS_DESIGN)
 181:Generated_Source\PSoC5/CapSense_PM.c ****         #if (CapSense_IMPLEMENTATION_CH1 == CapSense_MEASURE_IMPLEMENTATION_FF)
 182:Generated_Source\PSoC5/CapSense_PM.c ****             /* Window PWM  - FF Timer register are retention */
 183:Generated_Source\PSoC5/CapSense_PM.c ****             /* Raw Counter - FF Timer register are retention */
 184:Generated_Source\PSoC5/CapSense_PM.c ****         #else
 185:Generated_Source\PSoC5/CapSense_PM.c ****             
 186:Generated_Source\PSoC5/CapSense_PM.c ****             /* Window PWM */
 187:Generated_Source\PSoC5/CapSense_PM.c ****             CapSense_PWM_CH1_PERIOD_LO_REG    = CapSense_MEASURE_FULL_RANGE_LOW;       /* F0 regist
 188:Generated_Source\PSoC5/CapSense_PM.c ****             
 189:Generated_Source\PSoC5/CapSense_PM.c ****             /* Raw Counter */
 190:Generated_Source\PSoC5/CapSense_PM.c ****             CapSense_RAW_CH1_PERIOD_HI_REG    = CapSense_MEASURE_FULL_RANGE_LOW;       /* F1 regist
 191:Generated_Source\PSoC5/CapSense_PM.c ****             CapSense_RAW_CH1_PERIOD_LO_REG    = CapSense_MEASURE_FULL_RANGE_LOW;       /* F0 regist
 192:Generated_Source\PSoC5/CapSense_PM.c ****             
 193:Generated_Source\PSoC5/CapSense_PM.c ****         #endif  /* (CapSense_IMPLEMENTATION_CH1 == CapSense_MEASURE_IMPLEMENTATION_FF) */
 194:Generated_Source\PSoC5/CapSense_PM.c ****     
 195:Generated_Source\PSoC5/CapSense_PM.c ****     #endif  /* (CapSense_DESIGN_TYPE == TWO_CHANNELS_DESIGN)*/
 196:Generated_Source\PSoC5/CapSense_PM.c **** 
 197:Generated_Source\PSoC5/CapSense_PM.c ****     /* Set CONTROL_REG */
 198:Generated_Source\PSoC5/CapSense_PM.c ****     CapSense_CONTROL_REG = CapSense_backup.ctrlReg;
 129              		.loc 1 198 0
 130 0016 074B     		ldr	r3, .L11+12
 131 0018 5A78     		ldrb	r2, [r3, #1]	@ zero_extendqisi2
 132 001a 074B     		ldr	r3, .L11+16
 133 001c 1A70     		strb	r2, [r3]
 199:Generated_Source\PSoC5/CapSense_PM.c **** 
 200:Generated_Source\PSoC5/CapSense_PM.c ****     /* Enable window generation */
 201:Generated_Source\PSoC5/CapSense_PM.c ****     #if (CapSense_DESIGN_TYPE == CapSense_ONE_CHANNEL_DESIGN)
 202:Generated_Source\PSoC5/CapSense_PM.c ****         CapSense_CONTROL_REG |= CapSense_CTRL_WINDOW_EN__CH0;
 134              		.loc 1 202 0
 135 001e 1A78     		ldrb	r2, [r3]	@ zero_extendqisi2
 136 0020 42F00402 		orr	r2, r2, #4
 137 0024 1A70     		strb	r2, [r3]
ARM GAS  C:\Users\Xwx47\AppData\Local\Temp\cc3ythzD.s 			page 7


 138 0026 7047     		bx	lr
 139              	.L12:
 140              		.align	2
 141              	.L11:
 142 0028 4A640040 		.word	1073767498
 143 002c 4C640040 		.word	1073767500
 144 0030 5D640040 		.word	1073767517
 145 0034 00000000 		.word	.LANCHOR0
 146 0038 79640040 		.word	1073767545
 147              		.cfi_endproc
 148              	.LFE2:
 149              		.size	CapSense_RestoreConfig, .-CapSense_RestoreConfig
 150              		.section	.text.CapSense_Wakeup,"ax",%progbits
 151              		.align	1
 152              		.global	CapSense_Wakeup
 153              		.thumb
 154              		.thumb_func
 155              		.type	CapSense_Wakeup, %function
 156              	CapSense_Wakeup:
 157              	.LFB3:
 203:Generated_Source\PSoC5/CapSense_PM.c ****     #elif (CapSense_DESIGN_TYPE == CapSense_TWO_CHANNELS_DESIGN) 
 204:Generated_Source\PSoC5/CapSense_PM.c ****         CapSense_CONTROL_REG |= (CapSense_CTRL_WINDOW_EN__CH0 | CapSense_CTRL_WINDOW_EN__CH1); 
 205:Generated_Source\PSoC5/CapSense_PM.c ****     #endif  /* CapSense_DESIGN_TYPE */
 206:Generated_Source\PSoC5/CapSense_PM.c ****  
 207:Generated_Source\PSoC5/CapSense_PM.c ****     /* The pins enable are customer concern: Cmod and Rb */
 208:Generated_Source\PSoC5/CapSense_PM.c ****  }
 209:Generated_Source\PSoC5/CapSense_PM.c ****  
 210:Generated_Source\PSoC5/CapSense_PM.c **** 
 211:Generated_Source\PSoC5/CapSense_PM.c **** /*******************************************************************************
 212:Generated_Source\PSoC5/CapSense_PM.c **** * Function Name: CapSense_Wakeup
 213:Generated_Source\PSoC5/CapSense_PM.c **** ********************************************************************************
 214:Generated_Source\PSoC5/CapSense_PM.c **** *
 215:Generated_Source\PSoC5/CapSense_PM.c **** * Summary:
 216:Generated_Source\PSoC5/CapSense_PM.c **** *  Restores CapSense configuration and non-retention register values. 
 217:Generated_Source\PSoC5/CapSense_PM.c **** *  Restores enabled state of component by setting Active mode power template 
 218:Generated_Source\PSoC5/CapSense_PM.c **** *  bits for number of component used within CapSense.
 219:Generated_Source\PSoC5/CapSense_PM.c **** *
 220:Generated_Source\PSoC5/CapSense_PM.c **** * Parameters:
 221:Generated_Source\PSoC5/CapSense_PM.c **** *  None
 222:Generated_Source\PSoC5/CapSense_PM.c **** *
 223:Generated_Source\PSoC5/CapSense_PM.c **** * Return:
 224:Generated_Source\PSoC5/CapSense_PM.c **** *  None
 225:Generated_Source\PSoC5/CapSense_PM.c **** *
 226:Generated_Source\PSoC5/CapSense_PM.c **** * Side Effects:
 227:Generated_Source\PSoC5/CapSense_PM.c **** *  Must be called only after CapSense_SaveConfig() routine. Otherwise 
 228:Generated_Source\PSoC5/CapSense_PM.c **** *  the component configuration will be overwritten with its initial setting.
 229:Generated_Source\PSoC5/CapSense_PM.c **** *  This finction modifies the CONTROL_REG register. 
 230:Generated_Source\PSoC5/CapSense_PM.c **** *
 231:Generated_Source\PSoC5/CapSense_PM.c **** * Note:
 232:Generated_Source\PSoC5/CapSense_PM.c **** *  This function should be called after completion of all scans.
 233:Generated_Source\PSoC5/CapSense_PM.c **** *
 234:Generated_Source\PSoC5/CapSense_PM.c **** * Global Variables:
 235:Generated_Source\PSoC5/CapSense_PM.c **** *  CapSense_backup - used to save component state before enter sleep 
 236:Generated_Source\PSoC5/CapSense_PM.c **** *  mode and none-retention registers.
 237:Generated_Source\PSoC5/CapSense_PM.c **** *
 238:Generated_Source\PSoC5/CapSense_PM.c **** *******************************************************************************/
 239:Generated_Source\PSoC5/CapSense_PM.c **** void CapSense_Wakeup(void) 
ARM GAS  C:\Users\Xwx47\AppData\Local\Temp\cc3ythzD.s 			page 8


 240:Generated_Source\PSoC5/CapSense_PM.c **** {
 158              		.loc 1 240 0
 159              		.cfi_startproc
 160              		@ args = 0, pretend = 0, frame = 0
 161              		@ frame_needed = 0, uses_anonymous_args = 0
 162 0000 08B5     		push	{r3, lr}
 163              		.cfi_def_cfa_offset 8
 164              		.cfi_offset 3, -8
 165              		.cfi_offset 14, -4
 241:Generated_Source\PSoC5/CapSense_PM.c ****     CapSense_RestoreConfig();
 166              		.loc 1 241 0
 167 0002 FFF7FEFF 		bl	CapSense_RestoreConfig
 168              	.LVL3:
 242:Generated_Source\PSoC5/CapSense_PM.c ****     
 243:Generated_Source\PSoC5/CapSense_PM.c ****     /* Restore CapSense Enable state */
 244:Generated_Source\PSoC5/CapSense_PM.c ****     if (CapSense_backup.enableState != 0u)
 169              		.loc 1 244 0
 170 0006 044B     		ldr	r3, .L15
 171 0008 1B78     		ldrb	r3, [r3]	@ zero_extendqisi2
 172 000a 1BB1     		cbz	r3, .L13
 245:Generated_Source\PSoC5/CapSense_PM.c ****     {
 246:Generated_Source\PSoC5/CapSense_PM.c ****         CapSense_Enable();
 247:Generated_Source\PSoC5/CapSense_PM.c ****     }
 248:Generated_Source\PSoC5/CapSense_PM.c **** }
 173              		.loc 1 248 0
 174 000c BDE80840 		pop	{r3, lr}
 175              		.cfi_remember_state
 176              		.cfi_restore 14
 177              		.cfi_restore 3
 178              		.cfi_def_cfa_offset 0
 246:Generated_Source\PSoC5/CapSense_PM.c ****     }
 179              		.loc 1 246 0
 180 0010 FFF7FEBF 		b	CapSense_Enable
 181              	.LVL4:
 182              	.L13:
 183              		.cfi_restore_state
 184 0014 08BD     		pop	{r3, pc}
 185              	.L16:
 186 0016 00BF     		.align	2
 187              	.L15:
 188 0018 00000000 		.word	.LANCHOR0
 189              		.cfi_endproc
 190              	.LFE3:
 191              		.size	CapSense_Wakeup, .-CapSense_Wakeup
 192              		.global	CapSense_backup
 193              		.bss
 194              		.set	.LANCHOR0,. + 0
 195              		.type	CapSense_backup, %object
 196              		.size	CapSense_backup, 2
 197              	CapSense_backup:
 198 0000 0000     		.space	2
 199              		.text
 200              	.Letext0:
 201              		.file 2 "Generated_Source\\PSoC5\\cytypes.h"
 202              		.file 3 "Generated_Source\\PSoC5\\CapSense.h"