ARM GAS  C:\Users\Xwx47\AppData\Local\Temp\ccAWrati.s 			page 1


   1              		.syntax unified
   2              		.cpu cortex-m3
   3              		.fpu softvfp
   4              		.eabi_attribute 20, 1
   5              		.eabi_attribute 21, 1
   6              		.eabi_attribute 23, 3
   7              		.eabi_attribute 24, 1
   8              		.eabi_attribute 25, 1
   9              		.eabi_attribute 26, 1
  10              		.eabi_attribute 30, 4
  11              		.eabi_attribute 34, 1
  12              		.eabi_attribute 18, 4
  13              		.thumb
  14              		.syntax unified
  15              		.file	"cyfitter_cfg.c"
  16              		.text
  17              	.Ltext0:
  18              		.cfi_sections	.debug_frame
  19              		.section	.text.SetAnalogRoutingPumps,"ax",%progbits
  20              		.align	1
  21              		.global	SetAnalogRoutingPumps
  22              		.thumb
  23              		.thumb_func
  24              		.type	SetAnalogRoutingPumps, %function
  25              	SetAnalogRoutingPumps:
  26              	.LFB7:
  27              		.file 1 "Generated_Source\\PSoC5\\cyfitter_cfg.c"
   1:Generated_Source\PSoC5/cyfitter_cfg.c **** 
   2:Generated_Source\PSoC5/cyfitter_cfg.c **** /*******************************************************************************
   3:Generated_Source\PSoC5/cyfitter_cfg.c **** * File Name: cyfitter_cfg.c
   4:Generated_Source\PSoC5/cyfitter_cfg.c **** * 
   5:Generated_Source\PSoC5/cyfitter_cfg.c **** * PSoC Creator  4.1 Update 1
   6:Generated_Source\PSoC5/cyfitter_cfg.c **** *
   7:Generated_Source\PSoC5/cyfitter_cfg.c **** * Description:
   8:Generated_Source\PSoC5/cyfitter_cfg.c **** * This file contains device initialization code.
   9:Generated_Source\PSoC5/cyfitter_cfg.c **** * Except for the user defined sections in CyClockStartupError(), this file should not be modified.
  10:Generated_Source\PSoC5/cyfitter_cfg.c **** * This file is automatically generated by PSoC Creator.
  11:Generated_Source\PSoC5/cyfitter_cfg.c **** *
  12:Generated_Source\PSoC5/cyfitter_cfg.c **** ********************************************************************************
  13:Generated_Source\PSoC5/cyfitter_cfg.c **** * Copyright (c) 2007-2017 Cypress Semiconductor.  All rights reserved.
  14:Generated_Source\PSoC5/cyfitter_cfg.c **** * You may use this file only in accordance with the license, terms, conditions, 
  15:Generated_Source\PSoC5/cyfitter_cfg.c **** * disclaimers, and limitations in the end user license agreement accompanying 
  16:Generated_Source\PSoC5/cyfitter_cfg.c **** * the software package with which this file was provided.
  17:Generated_Source\PSoC5/cyfitter_cfg.c **** ********************************************************************************/
  18:Generated_Source\PSoC5/cyfitter_cfg.c **** 
  19:Generated_Source\PSoC5/cyfitter_cfg.c **** #include <string.h>
  20:Generated_Source\PSoC5/cyfitter_cfg.c **** #include "cytypes.h"
  21:Generated_Source\PSoC5/cyfitter_cfg.c **** #include "cydevice_trm.h"
  22:Generated_Source\PSoC5/cyfitter_cfg.c **** #include "cyfitter.h"
  23:Generated_Source\PSoC5/cyfitter_cfg.c **** #include "CyLib.h"
  24:Generated_Source\PSoC5/cyfitter_cfg.c **** #include "cyfitter_cfg.h"
  25:Generated_Source\PSoC5/cyfitter_cfg.c **** 
  26:Generated_Source\PSoC5/cyfitter_cfg.c **** #define CY_NEED_CYCLOCKSTARTUPERROR 1
  27:Generated_Source\PSoC5/cyfitter_cfg.c **** 
  28:Generated_Source\PSoC5/cyfitter_cfg.c **** 
  29:Generated_Source\PSoC5/cyfitter_cfg.c **** #if defined(__GNUC__) || defined(__ARMCC_VERSION)
  30:Generated_Source\PSoC5/cyfitter_cfg.c ****     #define CYPACKED 
ARM GAS  C:\Users\Xwx47\AppData\Local\Temp\ccAWrati.s 			page 2


  31:Generated_Source\PSoC5/cyfitter_cfg.c ****     #define CYPACKED_ATTR __attribute__ ((packed))
  32:Generated_Source\PSoC5/cyfitter_cfg.c ****     #define CYALIGNED __attribute__ ((aligned))
  33:Generated_Source\PSoC5/cyfitter_cfg.c ****     #define CY_CFG_UNUSED __attribute__ ((unused))
  34:Generated_Source\PSoC5/cyfitter_cfg.c ****     #ifndef CY_CFG_SECTION
  35:Generated_Source\PSoC5/cyfitter_cfg.c ****         #define CY_CFG_SECTION __attribute__ ((section(".psocinit")))
  36:Generated_Source\PSoC5/cyfitter_cfg.c ****     #endif
  37:Generated_Source\PSoC5/cyfitter_cfg.c ****     
  38:Generated_Source\PSoC5/cyfitter_cfg.c ****     #if defined(__ARMCC_VERSION)
  39:Generated_Source\PSoC5/cyfitter_cfg.c ****         #define CY_CFG_MEMORY_BARRIER() __memory_changed()
  40:Generated_Source\PSoC5/cyfitter_cfg.c ****     #else
  41:Generated_Source\PSoC5/cyfitter_cfg.c ****         #define CY_CFG_MEMORY_BARRIER() __sync_synchronize()
  42:Generated_Source\PSoC5/cyfitter_cfg.c ****     #endif
  43:Generated_Source\PSoC5/cyfitter_cfg.c ****     
  44:Generated_Source\PSoC5/cyfitter_cfg.c **** #elif defined(__ICCARM__)
  45:Generated_Source\PSoC5/cyfitter_cfg.c ****     #include <intrinsics.h>
  46:Generated_Source\PSoC5/cyfitter_cfg.c **** 
  47:Generated_Source\PSoC5/cyfitter_cfg.c ****     #define CYPACKED __packed
  48:Generated_Source\PSoC5/cyfitter_cfg.c ****     #define CYPACKED_ATTR 
  49:Generated_Source\PSoC5/cyfitter_cfg.c ****     #define CYALIGNED _Pragma("data_alignment=4")
  50:Generated_Source\PSoC5/cyfitter_cfg.c ****     #define CY_CFG_UNUSED _Pragma("diag_suppress=Pe177")
  51:Generated_Source\PSoC5/cyfitter_cfg.c ****     #define CY_CFG_SECTION _Pragma("location=\".psocinit\"")
  52:Generated_Source\PSoC5/cyfitter_cfg.c ****     
  53:Generated_Source\PSoC5/cyfitter_cfg.c ****     #define CY_CFG_MEMORY_BARRIER() __DMB()
  54:Generated_Source\PSoC5/cyfitter_cfg.c ****     
  55:Generated_Source\PSoC5/cyfitter_cfg.c **** #else
  56:Generated_Source\PSoC5/cyfitter_cfg.c ****     #error Unsupported toolchain
  57:Generated_Source\PSoC5/cyfitter_cfg.c **** #endif
  58:Generated_Source\PSoC5/cyfitter_cfg.c **** 
  59:Generated_Source\PSoC5/cyfitter_cfg.c **** #ifndef CYCODE
  60:Generated_Source\PSoC5/cyfitter_cfg.c ****     #define CYCODE
  61:Generated_Source\PSoC5/cyfitter_cfg.c **** #endif
  62:Generated_Source\PSoC5/cyfitter_cfg.c **** #ifndef CYDATA
  63:Generated_Source\PSoC5/cyfitter_cfg.c ****     #define CYDATA
  64:Generated_Source\PSoC5/cyfitter_cfg.c **** #endif
  65:Generated_Source\PSoC5/cyfitter_cfg.c **** #ifndef CYFAR
  66:Generated_Source\PSoC5/cyfitter_cfg.c ****     #define CYFAR
  67:Generated_Source\PSoC5/cyfitter_cfg.c **** #endif
  68:Generated_Source\PSoC5/cyfitter_cfg.c **** #ifndef CYXDATA
  69:Generated_Source\PSoC5/cyfitter_cfg.c ****     #define CYXDATA
  70:Generated_Source\PSoC5/cyfitter_cfg.c **** #endif
  71:Generated_Source\PSoC5/cyfitter_cfg.c **** 
  72:Generated_Source\PSoC5/cyfitter_cfg.c **** 
  73:Generated_Source\PSoC5/cyfitter_cfg.c **** CY_CFG_UNUSED
  74:Generated_Source\PSoC5/cyfitter_cfg.c **** static void CYMEMZERO(void *s, size_t n);
  75:Generated_Source\PSoC5/cyfitter_cfg.c **** CY_CFG_UNUSED
  76:Generated_Source\PSoC5/cyfitter_cfg.c **** static void CYMEMZERO(void *s, size_t n)
  77:Generated_Source\PSoC5/cyfitter_cfg.c **** {
  78:Generated_Source\PSoC5/cyfitter_cfg.c **** 	(void)memset(s, 0, n);
  79:Generated_Source\PSoC5/cyfitter_cfg.c **** }
  80:Generated_Source\PSoC5/cyfitter_cfg.c **** CY_CFG_UNUSED
  81:Generated_Source\PSoC5/cyfitter_cfg.c **** static void CYCONFIGCPY(void *dest, const void *src, size_t n);
  82:Generated_Source\PSoC5/cyfitter_cfg.c **** CY_CFG_UNUSED
  83:Generated_Source\PSoC5/cyfitter_cfg.c **** static void CYCONFIGCPY(void *dest, const void *src, size_t n)
  84:Generated_Source\PSoC5/cyfitter_cfg.c **** {
  85:Generated_Source\PSoC5/cyfitter_cfg.c **** 	(void)memcpy(dest, src, n);
  86:Generated_Source\PSoC5/cyfitter_cfg.c **** }
  87:Generated_Source\PSoC5/cyfitter_cfg.c **** CY_CFG_UNUSED
ARM GAS  C:\Users\Xwx47\AppData\Local\Temp\ccAWrati.s 			page 3


  88:Generated_Source\PSoC5/cyfitter_cfg.c **** static void CYCONFIGCPYCODE(void *dest, const void *src, size_t n);
  89:Generated_Source\PSoC5/cyfitter_cfg.c **** CY_CFG_UNUSED
  90:Generated_Source\PSoC5/cyfitter_cfg.c **** static void CYCONFIGCPYCODE(void *dest, const void *src, size_t n)
  91:Generated_Source\PSoC5/cyfitter_cfg.c **** {
  92:Generated_Source\PSoC5/cyfitter_cfg.c **** 	(void)memcpy(dest, src, n);
  93:Generated_Source\PSoC5/cyfitter_cfg.c **** }
  94:Generated_Source\PSoC5/cyfitter_cfg.c **** 
  95:Generated_Source\PSoC5/cyfitter_cfg.c **** 
  96:Generated_Source\PSoC5/cyfitter_cfg.c **** 
  97:Generated_Source\PSoC5/cyfitter_cfg.c **** 
  98:Generated_Source\PSoC5/cyfitter_cfg.c **** /* Clock startup error codes                                                   */
  99:Generated_Source\PSoC5/cyfitter_cfg.c **** #define CYCLOCKSTART_NO_ERROR    0u
 100:Generated_Source\PSoC5/cyfitter_cfg.c **** #define CYCLOCKSTART_XTAL_ERROR  1u
 101:Generated_Source\PSoC5/cyfitter_cfg.c **** #define CYCLOCKSTART_32KHZ_ERROR 2u
 102:Generated_Source\PSoC5/cyfitter_cfg.c **** #define CYCLOCKSTART_PLL_ERROR   3u
 103:Generated_Source\PSoC5/cyfitter_cfg.c **** #define CYCLOCKSTART_FLL_ERROR   4u
 104:Generated_Source\PSoC5/cyfitter_cfg.c **** 
 105:Generated_Source\PSoC5/cyfitter_cfg.c **** 
 106:Generated_Source\PSoC5/cyfitter_cfg.c **** #ifdef CY_NEED_CYCLOCKSTARTUPERROR
 107:Generated_Source\PSoC5/cyfitter_cfg.c **** /*******************************************************************************
 108:Generated_Source\PSoC5/cyfitter_cfg.c **** * Function Name: CyClockStartupError
 109:Generated_Source\PSoC5/cyfitter_cfg.c **** ********************************************************************************
 110:Generated_Source\PSoC5/cyfitter_cfg.c **** * Summary:
 111:Generated_Source\PSoC5/cyfitter_cfg.c **** *  If an error is encountered during clock configuration (crystal startup error,
 112:Generated_Source\PSoC5/cyfitter_cfg.c **** *  PLL lock error, etc.), the system will end up here.  Unless reimplemented by
 113:Generated_Source\PSoC5/cyfitter_cfg.c **** *  the customer, this function will stop in an infinite loop.
 114:Generated_Source\PSoC5/cyfitter_cfg.c **** *
 115:Generated_Source\PSoC5/cyfitter_cfg.c **** * Parameters:
 116:Generated_Source\PSoC5/cyfitter_cfg.c **** *   void
 117:Generated_Source\PSoC5/cyfitter_cfg.c **** *
 118:Generated_Source\PSoC5/cyfitter_cfg.c **** * Return:
 119:Generated_Source\PSoC5/cyfitter_cfg.c **** *   void
 120:Generated_Source\PSoC5/cyfitter_cfg.c **** *
 121:Generated_Source\PSoC5/cyfitter_cfg.c **** *******************************************************************************/
 122:Generated_Source\PSoC5/cyfitter_cfg.c **** CY_CFG_UNUSED
 123:Generated_Source\PSoC5/cyfitter_cfg.c **** static void CyClockStartupError(uint8 errorCode);
 124:Generated_Source\PSoC5/cyfitter_cfg.c **** CY_CFG_UNUSED
 125:Generated_Source\PSoC5/cyfitter_cfg.c **** static void CyClockStartupError(uint8 errorCode)
 126:Generated_Source\PSoC5/cyfitter_cfg.c **** {
 127:Generated_Source\PSoC5/cyfitter_cfg.c ****     /* To remove the compiler warning if errorCode not used. */
 128:Generated_Source\PSoC5/cyfitter_cfg.c **** #if defined(CY_PSOC3) && (CY_PSOC3)
 129:Generated_Source\PSoC5/cyfitter_cfg.c ****     errorCode = errorCode;
 130:Generated_Source\PSoC5/cyfitter_cfg.c **** #else
 131:Generated_Source\PSoC5/cyfitter_cfg.c ****     (void)errorCode;
 132:Generated_Source\PSoC5/cyfitter_cfg.c **** #endif /* CY_PSOC3 */
 133:Generated_Source\PSoC5/cyfitter_cfg.c **** 
 134:Generated_Source\PSoC5/cyfitter_cfg.c ****     /* If we have a clock startup error (bad MHz crystal, PLL lock, etc.),  */
 135:Generated_Source\PSoC5/cyfitter_cfg.c ****     /* we will end up here to allow the customer to implement something to  */
 136:Generated_Source\PSoC5/cyfitter_cfg.c ****     /* deal with the clock condition.                                       */
 137:Generated_Source\PSoC5/cyfitter_cfg.c **** 
 138:Generated_Source\PSoC5/cyfitter_cfg.c **** #ifdef CY_CFG_CLOCK_STARTUP_ERROR_CALLBACK
 139:Generated_Source\PSoC5/cyfitter_cfg.c ****     CY_CFG_Clock_Startup_ErrorCallback();
 140:Generated_Source\PSoC5/cyfitter_cfg.c **** #else
 141:Generated_Source\PSoC5/cyfitter_cfg.c ****     /*  If not using CY_CFG_CLOCK_STARTUP_ERROR_CALLBACK, place your clock startup code here. */
 142:Generated_Source\PSoC5/cyfitter_cfg.c ****     /* `#START CyClockStartupError` */
 143:Generated_Source\PSoC5/cyfitter_cfg.c **** 
 144:Generated_Source\PSoC5/cyfitter_cfg.c ****     /* If we have a clock startup error (bad MHz crystal, PLL lock, etc.),  */
ARM GAS  C:\Users\Xwx47\AppData\Local\Temp\ccAWrati.s 			page 4


 145:Generated_Source\PSoC5/cyfitter_cfg.c ****     /* we will end up here to allow the customer to implement something to  */
 146:Generated_Source\PSoC5/cyfitter_cfg.c ****     /* deal with the clock condition.                                       */
 147:Generated_Source\PSoC5/cyfitter_cfg.c **** 
 148:Generated_Source\PSoC5/cyfitter_cfg.c ****     /* `#END` */
 149:Generated_Source\PSoC5/cyfitter_cfg.c **** 
 150:Generated_Source\PSoC5/cyfitter_cfg.c ****     while(1) {}
 151:Generated_Source\PSoC5/cyfitter_cfg.c **** #endif /* CY_CFG_CLOCK_STARTUP_ERROR_CALLBACK */
 152:Generated_Source\PSoC5/cyfitter_cfg.c **** }
 153:Generated_Source\PSoC5/cyfitter_cfg.c **** #endif
 154:Generated_Source\PSoC5/cyfitter_cfg.c **** 
 155:Generated_Source\PSoC5/cyfitter_cfg.c **** #define CY_CFG_BASE_ADDR_COUNT 20u
 156:Generated_Source\PSoC5/cyfitter_cfg.c **** CYPACKED typedef struct
 157:Generated_Source\PSoC5/cyfitter_cfg.c **** {
 158:Generated_Source\PSoC5/cyfitter_cfg.c **** 	uint8 offset;
 159:Generated_Source\PSoC5/cyfitter_cfg.c **** 	uint8 value;
 160:Generated_Source\PSoC5/cyfitter_cfg.c **** } CYPACKED_ATTR cy_cfg_addrvalue_t;
 161:Generated_Source\PSoC5/cyfitter_cfg.c **** 
 162:Generated_Source\PSoC5/cyfitter_cfg.c **** #define cy_cfg_addr_table ((const uint32 CYFAR *)0x48000000u)
 163:Generated_Source\PSoC5/cyfitter_cfg.c **** #define cy_cfg_data_table ((const cy_cfg_addrvalue_t CYFAR *)0x48000050u)
 164:Generated_Source\PSoC5/cyfitter_cfg.c **** 
 165:Generated_Source\PSoC5/cyfitter_cfg.c **** /* IOPINS0_8 Address: CYREG_PRT15_DM0 Size (bytes): 8 */
 166:Generated_Source\PSoC5/cyfitter_cfg.c **** #define BS_IOPINS0_8_VAL ((const uint8 CYFAR *)0x48000320u)
 167:Generated_Source\PSoC5/cyfitter_cfg.c **** 
 168:Generated_Source\PSoC5/cyfitter_cfg.c **** /* IOPINS0_1 Address: CYREG_PRT1_DM0 Size (bytes): 8 */
 169:Generated_Source\PSoC5/cyfitter_cfg.c **** #define BS_IOPINS0_1_VAL ((const uint8 CYFAR *)0x48000328u)
 170:Generated_Source\PSoC5/cyfitter_cfg.c **** 
 171:Generated_Source\PSoC5/cyfitter_cfg.c **** /* IOPINS0_2 Address: CYREG_PRT2_DM0 Size (bytes): 8 */
 172:Generated_Source\PSoC5/cyfitter_cfg.c **** #define BS_IOPINS0_2_VAL ((const uint8 CYFAR *)0x48000330u)
 173:Generated_Source\PSoC5/cyfitter_cfg.c **** 
 174:Generated_Source\PSoC5/cyfitter_cfg.c **** 
 175:Generated_Source\PSoC5/cyfitter_cfg.c **** /*******************************************************************************
 176:Generated_Source\PSoC5/cyfitter_cfg.c **** * Function Name: cfg_write_bytes32
 177:Generated_Source\PSoC5/cyfitter_cfg.c **** ********************************************************************************
 178:Generated_Source\PSoC5/cyfitter_cfg.c **** * Summary:
 179:Generated_Source\PSoC5/cyfitter_cfg.c **** *  This function is used for setting up the chip configuration areas that
 180:Generated_Source\PSoC5/cyfitter_cfg.c **** *  contain relatively sparse data.
 181:Generated_Source\PSoC5/cyfitter_cfg.c **** *
 182:Generated_Source\PSoC5/cyfitter_cfg.c **** * Parameters:
 183:Generated_Source\PSoC5/cyfitter_cfg.c **** *   void
 184:Generated_Source\PSoC5/cyfitter_cfg.c **** *
 185:Generated_Source\PSoC5/cyfitter_cfg.c **** * Return:
 186:Generated_Source\PSoC5/cyfitter_cfg.c **** *   void
 187:Generated_Source\PSoC5/cyfitter_cfg.c **** *
 188:Generated_Source\PSoC5/cyfitter_cfg.c **** *******************************************************************************/
 189:Generated_Source\PSoC5/cyfitter_cfg.c **** static void cfg_write_bytes32(const uint32 addr_table[], const cy_cfg_addrvalue_t data_table[]);
 190:Generated_Source\PSoC5/cyfitter_cfg.c **** static void cfg_write_bytes32(const uint32 addr_table[], const cy_cfg_addrvalue_t data_table[])
 191:Generated_Source\PSoC5/cyfitter_cfg.c **** {
 192:Generated_Source\PSoC5/cyfitter_cfg.c **** 	/* For 32-bit little-endian architectures */
 193:Generated_Source\PSoC5/cyfitter_cfg.c **** 	uint32 i, j = 0u;
 194:Generated_Source\PSoC5/cyfitter_cfg.c **** 	for (i = 0u; i < CY_CFG_BASE_ADDR_COUNT; i++)
 195:Generated_Source\PSoC5/cyfitter_cfg.c **** 	{
 196:Generated_Source\PSoC5/cyfitter_cfg.c **** 		uint32 baseAddr = addr_table[i];
 197:Generated_Source\PSoC5/cyfitter_cfg.c **** 		uint8 count = (uint8)baseAddr;
 198:Generated_Source\PSoC5/cyfitter_cfg.c **** 		baseAddr &= 0xFFFFFF00u;
 199:Generated_Source\PSoC5/cyfitter_cfg.c **** 		while (count != 0u)
 200:Generated_Source\PSoC5/cyfitter_cfg.c **** 		{
 201:Generated_Source\PSoC5/cyfitter_cfg.c **** 			CY_SET_REG8((void *)(baseAddr + data_table[j].offset), data_table[j].value);
ARM GAS  C:\Users\Xwx47\AppData\Local\Temp\ccAWrati.s 			page 5


 202:Generated_Source\PSoC5/cyfitter_cfg.c **** 			j++;
 203:Generated_Source\PSoC5/cyfitter_cfg.c **** 			count--;
 204:Generated_Source\PSoC5/cyfitter_cfg.c **** 		}
 205:Generated_Source\PSoC5/cyfitter_cfg.c **** 	}
 206:Generated_Source\PSoC5/cyfitter_cfg.c **** }
 207:Generated_Source\PSoC5/cyfitter_cfg.c **** 
 208:Generated_Source\PSoC5/cyfitter_cfg.c **** /*******************************************************************************
 209:Generated_Source\PSoC5/cyfitter_cfg.c **** * Function Name: ClockSetup
 210:Generated_Source\PSoC5/cyfitter_cfg.c **** ********************************************************************************
 211:Generated_Source\PSoC5/cyfitter_cfg.c **** *
 212:Generated_Source\PSoC5/cyfitter_cfg.c **** * Summary:
 213:Generated_Source\PSoC5/cyfitter_cfg.c **** *  Performs the initialization of all of the clocks in the device based on the
 214:Generated_Source\PSoC5/cyfitter_cfg.c **** *  settings in the Clock tab of the DWR.  This includes enabling the requested
 215:Generated_Source\PSoC5/cyfitter_cfg.c **** *  clocks and setting the necessary dividers to produce the desired frequency. 
 216:Generated_Source\PSoC5/cyfitter_cfg.c **** *
 217:Generated_Source\PSoC5/cyfitter_cfg.c **** * Parameters:
 218:Generated_Source\PSoC5/cyfitter_cfg.c **** *  void
 219:Generated_Source\PSoC5/cyfitter_cfg.c **** *
 220:Generated_Source\PSoC5/cyfitter_cfg.c **** * Return:
 221:Generated_Source\PSoC5/cyfitter_cfg.c **** *  void
 222:Generated_Source\PSoC5/cyfitter_cfg.c **** *
 223:Generated_Source\PSoC5/cyfitter_cfg.c **** *******************************************************************************/
 224:Generated_Source\PSoC5/cyfitter_cfg.c **** static void ClockSetup(void);
 225:Generated_Source\PSoC5/cyfitter_cfg.c **** static void ClockSetup(void)
 226:Generated_Source\PSoC5/cyfitter_cfg.c **** {
 227:Generated_Source\PSoC5/cyfitter_cfg.c **** 	uint32 timeout;
 228:Generated_Source\PSoC5/cyfitter_cfg.c **** 	uint8 pllLock;
 229:Generated_Source\PSoC5/cyfitter_cfg.c **** 
 230:Generated_Source\PSoC5/cyfitter_cfg.c **** 
 231:Generated_Source\PSoC5/cyfitter_cfg.c **** 	/* Configure Digital Clocks based on settings from Clock DWR */
 232:Generated_Source\PSoC5/cyfitter_cfg.c **** 	CY_SET_XTND_REG16((void CYFAR *)(CYREG_CLKDIST_DCFG0_CFG0), 0x0001u);
 233:Generated_Source\PSoC5/cyfitter_cfg.c **** 	CY_SET_XTND_REG8((void CYFAR *)(CYREG_CLKDIST_DCFG0_CFG0 + 0x2u), 0x18u);
 234:Generated_Source\PSoC5/cyfitter_cfg.c **** 
 235:Generated_Source\PSoC5/cyfitter_cfg.c **** 	/* Configure ILO based on settings from Clock DWR */
 236:Generated_Source\PSoC5/cyfitter_cfg.c **** 	CY_SET_XTND_REG8((void CYFAR *)(CYREG_SLOWCLK_ILO_CR0), 0x02u);
 237:Generated_Source\PSoC5/cyfitter_cfg.c **** 	CY_SET_XTND_REG8((void CYFAR *)(CYREG_CLKDIST_CR), 0x08u);
 238:Generated_Source\PSoC5/cyfitter_cfg.c **** 
 239:Generated_Source\PSoC5/cyfitter_cfg.c **** 	/* Configure IMO based on settings from Clock DWR */
 240:Generated_Source\PSoC5/cyfitter_cfg.c **** 	CY_SET_XTND_REG8((void CYFAR *)(CYREG_FASTCLK_IMO_CR), 0x03u);
 241:Generated_Source\PSoC5/cyfitter_cfg.c **** 	CY_SET_XTND_REG8((void CYFAR *)(CYREG_IMO_TR1), (CY_GET_XTND_REG8((void CYFAR *)CYREG_FLSHID_CUST_
 242:Generated_Source\PSoC5/cyfitter_cfg.c **** 
 243:Generated_Source\PSoC5/cyfitter_cfg.c **** 	/* Configure PLL based on settings from Clock DWR */
 244:Generated_Source\PSoC5/cyfitter_cfg.c **** 	CY_SET_XTND_REG16((void CYFAR *)(CYREG_FASTCLK_PLL_P), 0x0008u);
 245:Generated_Source\PSoC5/cyfitter_cfg.c **** 	CY_SET_XTND_REG16((void CYFAR *)(CYREG_FASTCLK_PLL_CFG0), 0x1251u);
 246:Generated_Source\PSoC5/cyfitter_cfg.c **** 	/* Wait up to 250us for the PLL to lock */
 247:Generated_Source\PSoC5/cyfitter_cfg.c **** 	pllLock = 0u;
 248:Generated_Source\PSoC5/cyfitter_cfg.c **** 	for (timeout = 250u / 10u; (timeout > 0u) && (pllLock != 0x03u); timeout--)
 249:Generated_Source\PSoC5/cyfitter_cfg.c **** 	{ 
 250:Generated_Source\PSoC5/cyfitter_cfg.c **** 		pllLock = 0x03u & ((uint8)((uint8)pllLock << 1) | ((CY_GET_XTND_REG8((void CYFAR *)CYREG_FASTCLK_
 251:Generated_Source\PSoC5/cyfitter_cfg.c **** 		CyDelayCycles(10u * 48u); /* Delay 10us based on 48MHz clock */
 252:Generated_Source\PSoC5/cyfitter_cfg.c **** 	}
 253:Generated_Source\PSoC5/cyfitter_cfg.c **** 	/* If we ran out of time the PLL didn't lock so go to the error function */
 254:Generated_Source\PSoC5/cyfitter_cfg.c **** 	if (timeout == 0u)
 255:Generated_Source\PSoC5/cyfitter_cfg.c **** 	{
 256:Generated_Source\PSoC5/cyfitter_cfg.c **** 		CyClockStartupError(CYCLOCKSTART_PLL_ERROR);
 257:Generated_Source\PSoC5/cyfitter_cfg.c **** 	}
 258:Generated_Source\PSoC5/cyfitter_cfg.c **** 
ARM GAS  C:\Users\Xwx47\AppData\Local\Temp\ccAWrati.s 			page 6


 259:Generated_Source\PSoC5/cyfitter_cfg.c **** 	/* Configure Bus/Master Clock based on settings from Clock DWR */
 260:Generated_Source\PSoC5/cyfitter_cfg.c **** 	CY_SET_XTND_REG16((void CYFAR *)(CYREG_CLKDIST_MSTR0), 0x0100u);
 261:Generated_Source\PSoC5/cyfitter_cfg.c **** 	CY_SET_XTND_REG8((void CYFAR *)(CYREG_CLKDIST_MSTR0), 0x07u);
 262:Generated_Source\PSoC5/cyfitter_cfg.c **** 	CY_SET_XTND_REG8((void CYFAR *)(CYREG_CLKDIST_BCFG0), 0x00u);
 263:Generated_Source\PSoC5/cyfitter_cfg.c **** 	CY_SET_XTND_REG8((void CYFAR *)(CYREG_CLKDIST_BCFG2), 0x48u);
 264:Generated_Source\PSoC5/cyfitter_cfg.c **** 	CY_SET_XTND_REG8((void CYFAR *)(CYREG_CLKDIST_MSTR0), 0x00u);
 265:Generated_Source\PSoC5/cyfitter_cfg.c **** 	CY_SET_XTND_REG8((void CYFAR *)(CYREG_CLKDIST_LD), 0x02u);
 266:Generated_Source\PSoC5/cyfitter_cfg.c **** 
 267:Generated_Source\PSoC5/cyfitter_cfg.c **** 	CY_SET_XTND_REG8((void CYFAR *)(CYREG_PM_ACT_CFG2), ((CY_GET_XTND_REG8((void CYFAR *)CYREG_PM_ACT_
 268:Generated_Source\PSoC5/cyfitter_cfg.c **** }
 269:Generated_Source\PSoC5/cyfitter_cfg.c **** 
 270:Generated_Source\PSoC5/cyfitter_cfg.c **** 
 271:Generated_Source\PSoC5/cyfitter_cfg.c **** /* Analog API Functions */
 272:Generated_Source\PSoC5/cyfitter_cfg.c **** 
 273:Generated_Source\PSoC5/cyfitter_cfg.c **** 
 274:Generated_Source\PSoC5/cyfitter_cfg.c **** /*******************************************************************************
 275:Generated_Source\PSoC5/cyfitter_cfg.c **** * Function Name: AnalogSetDefault
 276:Generated_Source\PSoC5/cyfitter_cfg.c **** ********************************************************************************
 277:Generated_Source\PSoC5/cyfitter_cfg.c **** *
 278:Generated_Source\PSoC5/cyfitter_cfg.c **** * Summary:
 279:Generated_Source\PSoC5/cyfitter_cfg.c **** *  Sets up the analog portions of the chip to default values based on chip
 280:Generated_Source\PSoC5/cyfitter_cfg.c **** *  configuration options from the project.
 281:Generated_Source\PSoC5/cyfitter_cfg.c **** *
 282:Generated_Source\PSoC5/cyfitter_cfg.c **** * Parameters:
 283:Generated_Source\PSoC5/cyfitter_cfg.c **** *  void
 284:Generated_Source\PSoC5/cyfitter_cfg.c **** *
 285:Generated_Source\PSoC5/cyfitter_cfg.c **** * Return:
 286:Generated_Source\PSoC5/cyfitter_cfg.c **** *  void
 287:Generated_Source\PSoC5/cyfitter_cfg.c **** *
 288:Generated_Source\PSoC5/cyfitter_cfg.c **** *******************************************************************************/
 289:Generated_Source\PSoC5/cyfitter_cfg.c **** static void AnalogSetDefault(void);
 290:Generated_Source\PSoC5/cyfitter_cfg.c **** static void AnalogSetDefault(void)
 291:Generated_Source\PSoC5/cyfitter_cfg.c **** {
 292:Generated_Source\PSoC5/cyfitter_cfg.c **** 	uint8 bg_xover_inl_trim = CY_GET_XTND_REG8((void CYFAR *)(CYREG_FLSHID_MFG_CFG_BG_XOVER_INL_TRIM +
 293:Generated_Source\PSoC5/cyfitter_cfg.c **** 	CY_SET_XTND_REG8((void CYFAR *)(CYREG_BG_DFT0), (bg_xover_inl_trim & 0x07u));
 294:Generated_Source\PSoC5/cyfitter_cfg.c **** 	CY_SET_XTND_REG8((void CYFAR *)(CYREG_BG_DFT1), ((bg_xover_inl_trim >> 4) & 0x0Fu));
 295:Generated_Source\PSoC5/cyfitter_cfg.c **** 	CY_SET_XTND_REG8((void CYFAR *)CYREG_PRT15_AG, 0x10u);
 296:Generated_Source\PSoC5/cyfitter_cfg.c **** 	CY_SET_XTND_REG8((void CYFAR *)CYREG_CAPSL_CFG0, 0x00u);
 297:Generated_Source\PSoC5/cyfitter_cfg.c **** 	CY_SET_XTND_REG8((void CYFAR *)CYREG_CMP1_SW3, 0x20u);
 298:Generated_Source\PSoC5/cyfitter_cfg.c **** 	CY_SET_XTND_REG8((void CYFAR *)CYREG_BUS_SW3, 0x01u);
 299:Generated_Source\PSoC5/cyfitter_cfg.c **** 	CY_SET_XTND_REG8((void CYFAR *)CYREG_PUMP_CR0, 0x44u);
 300:Generated_Source\PSoC5/cyfitter_cfg.c **** }
 301:Generated_Source\PSoC5/cyfitter_cfg.c **** 
 302:Generated_Source\PSoC5/cyfitter_cfg.c **** 
 303:Generated_Source\PSoC5/cyfitter_cfg.c **** /*******************************************************************************
 304:Generated_Source\PSoC5/cyfitter_cfg.c **** * Function Name: SetAnalogRoutingPumps
 305:Generated_Source\PSoC5/cyfitter_cfg.c **** ********************************************************************************
 306:Generated_Source\PSoC5/cyfitter_cfg.c **** *
 307:Generated_Source\PSoC5/cyfitter_cfg.c **** * Summary:
 308:Generated_Source\PSoC5/cyfitter_cfg.c **** * Enables or disables the analog pumps feeding analog routing switches.
 309:Generated_Source\PSoC5/cyfitter_cfg.c **** * Intended to be called at startup, based on the Vdda system configuration;
 310:Generated_Source\PSoC5/cyfitter_cfg.c **** * may be called during operation when the user informs us that the Vdda voltage
 311:Generated_Source\PSoC5/cyfitter_cfg.c **** * crossed the pump threshold.
 312:Generated_Source\PSoC5/cyfitter_cfg.c **** *
 313:Generated_Source\PSoC5/cyfitter_cfg.c **** * Parameters:
 314:Generated_Source\PSoC5/cyfitter_cfg.c **** *  enabled - 1 to enable the pumps, 0 to disable the pumps
 315:Generated_Source\PSoC5/cyfitter_cfg.c **** *
ARM GAS  C:\Users\Xwx47\AppData\Local\Temp\ccAWrati.s 			page 7


 316:Generated_Source\PSoC5/cyfitter_cfg.c **** * Return:
 317:Generated_Source\PSoC5/cyfitter_cfg.c **** *  void
 318:Generated_Source\PSoC5/cyfitter_cfg.c **** *
 319:Generated_Source\PSoC5/cyfitter_cfg.c **** *******************************************************************************/
 320:Generated_Source\PSoC5/cyfitter_cfg.c **** void SetAnalogRoutingPumps(uint8 enabled)
 321:Generated_Source\PSoC5/cyfitter_cfg.c **** {
  28              		.loc 1 321 0
  29              		.cfi_startproc
  30              		@ args = 0, pretend = 0, frame = 0
  31              		@ frame_needed = 0, uses_anonymous_args = 0
  32              		@ link register save eliminated.
  33              	.LVL0:
 322:Generated_Source\PSoC5/cyfitter_cfg.c **** 	uint8 regValue = CY_GET_XTND_REG8((void CYFAR *)CYREG_PUMP_CR0);
  34              		.loc 1 322 0
  35 0000 054A     		ldr	r2, .L5
  36 0002 1378     		ldrb	r3, [r2]	@ zero_extendqisi2
  37 0004 DBB2     		uxtb	r3, r3
  38              	.LVL1:
 323:Generated_Source\PSoC5/cyfitter_cfg.c **** 	if (enabled != 0u)
  39              		.loc 1 323 0
  40 0006 10B1     		cbz	r0, .L2
 324:Generated_Source\PSoC5/cyfitter_cfg.c **** 	{
 325:Generated_Source\PSoC5/cyfitter_cfg.c **** 		regValue |= 0x22u;
  41              		.loc 1 325 0
  42 0008 43F02203 		orr	r3, r3, #34
  43              	.LVL2:
  44 000c 01E0     		b	.L3
  45              	.L2:
 326:Generated_Source\PSoC5/cyfitter_cfg.c **** 	}
 327:Generated_Source\PSoC5/cyfitter_cfg.c **** 	else
 328:Generated_Source\PSoC5/cyfitter_cfg.c **** 	{
 329:Generated_Source\PSoC5/cyfitter_cfg.c **** 		regValue &= (uint8)~0x22u;
  46              		.loc 1 329 0
  47 000e 03F0DD03 		and	r3, r3, #221
  48              	.LVL3:
  49              	.L3:
 330:Generated_Source\PSoC5/cyfitter_cfg.c **** 	}
 331:Generated_Source\PSoC5/cyfitter_cfg.c **** 	CY_SET_XTND_REG8((void CYFAR *)CYREG_PUMP_CR0, regValue);
  50              		.loc 1 331 0
  51 0012 1370     		strb	r3, [r2]
  52 0014 7047     		bx	lr
  53              	.L6:
  54 0016 00BF     		.align	2
  55              	.L5:
  56 0018 76580040 		.word	1073764470
  57              		.cfi_endproc
  58              	.LFE7:
  59              		.size	SetAnalogRoutingPumps, .-SetAnalogRoutingPumps
  60              		.section	.text.CapSense_AMuxCH0_Set,"ax",%progbits
  61              		.align	1
  62              		.global	CapSense_AMuxCH0_Set
  63              		.thumb
  64              		.thumb_func
  65              		.type	CapSense_AMuxCH0_Set, %function
  66              	CapSense_AMuxCH0_Set:
  67              	.LFB8:
 332:Generated_Source\PSoC5/cyfitter_cfg.c **** }
ARM GAS  C:\Users\Xwx47\AppData\Local\Temp\ccAWrati.s 			page 8


 333:Generated_Source\PSoC5/cyfitter_cfg.c **** 
 334:Generated_Source\PSoC5/cyfitter_cfg.c **** 
 335:Generated_Source\PSoC5/cyfitter_cfg.c **** #define CY_AMUX_UNUSED CYREG_BOOST_SR
 336:Generated_Source\PSoC5/cyfitter_cfg.c **** /* This is an implementation detail of the AMux. Code that depends on it may be
 337:Generated_Source\PSoC5/cyfitter_cfg.c ****    incompatible with other versions of PSoC Creator. */
 338:Generated_Source\PSoC5/cyfitter_cfg.c **** uint8 CYXDATA * const CYCODE CapSense_AMuxCH0__addrTable[6] = {
 339:Generated_Source\PSoC5/cyfitter_cfg.c **** 	(uint8 CYXDATA *)CYREG_PRT1_AMUX, 
 340:Generated_Source\PSoC5/cyfitter_cfg.c **** 	(uint8 CYXDATA *)CYREG_PRT1_AMUX, 
 341:Generated_Source\PSoC5/cyfitter_cfg.c **** 	(uint8 CYXDATA *)CYREG_PRT1_AMUX, 
 342:Generated_Source\PSoC5/cyfitter_cfg.c **** 	(uint8 CYXDATA *)CYREG_PRT15_AMUX, 
 343:Generated_Source\PSoC5/cyfitter_cfg.c **** 	(uint8 CYXDATA *)CYREG_CMP1_SW3, 
 344:Generated_Source\PSoC5/cyfitter_cfg.c **** 	(uint8 CYXDATA *)CYREG_DAC3_SW3, 
 345:Generated_Source\PSoC5/cyfitter_cfg.c **** };
 346:Generated_Source\PSoC5/cyfitter_cfg.c **** 
 347:Generated_Source\PSoC5/cyfitter_cfg.c **** /* This is an implementation detail of the AMux. Code that depends on it may be
 348:Generated_Source\PSoC5/cyfitter_cfg.c ****    incompatible with other versions of PSoC Creator. */
 349:Generated_Source\PSoC5/cyfitter_cfg.c **** const uint8 CYCODE CapSense_AMuxCH0__maskTable[6] = {
 350:Generated_Source\PSoC5/cyfitter_cfg.c **** 	0x40u, 
 351:Generated_Source\PSoC5/cyfitter_cfg.c **** 	0x10u, 
 352:Generated_Source\PSoC5/cyfitter_cfg.c **** 	0x04u, 
 353:Generated_Source\PSoC5/cyfitter_cfg.c **** 	0x10u, 
 354:Generated_Source\PSoC5/cyfitter_cfg.c **** 	0x01u, 
 355:Generated_Source\PSoC5/cyfitter_cfg.c **** 	0x10u, 
 356:Generated_Source\PSoC5/cyfitter_cfg.c **** };
 357:Generated_Source\PSoC5/cyfitter_cfg.c **** 
 358:Generated_Source\PSoC5/cyfitter_cfg.c **** /*******************************************************************************
 359:Generated_Source\PSoC5/cyfitter_cfg.c **** * Function Name: CapSense_AMuxCH0_Set
 360:Generated_Source\PSoC5/cyfitter_cfg.c **** ********************************************************************************
 361:Generated_Source\PSoC5/cyfitter_cfg.c **** * Summary:
 362:Generated_Source\PSoC5/cyfitter_cfg.c **** *  This function is used to set a particular channel as active on the AMux.
 363:Generated_Source\PSoC5/cyfitter_cfg.c **** *
 364:Generated_Source\PSoC5/cyfitter_cfg.c **** * Parameters:  
 365:Generated_Source\PSoC5/cyfitter_cfg.c **** *   channel - The mux channel input to set as active
 366:Generated_Source\PSoC5/cyfitter_cfg.c **** *
 367:Generated_Source\PSoC5/cyfitter_cfg.c **** * Return:
 368:Generated_Source\PSoC5/cyfitter_cfg.c **** *   void
 369:Generated_Source\PSoC5/cyfitter_cfg.c **** *
 370:Generated_Source\PSoC5/cyfitter_cfg.c **** *******************************************************************************/
 371:Generated_Source\PSoC5/cyfitter_cfg.c **** void CapSense_AMuxCH0_Set(uint8 channel)
 372:Generated_Source\PSoC5/cyfitter_cfg.c **** {
  68              		.loc 1 372 0
  69              		.cfi_startproc
  70              		@ args = 0, pretend = 0, frame = 0
  71              		@ frame_needed = 0, uses_anonymous_args = 0
  72              		@ link register save eliminated.
  73              	.LVL4:
 373:Generated_Source\PSoC5/cyfitter_cfg.c **** 	if (channel < 6)
  74              		.loc 1 373 0
  75 0000 0528     		cmp	r0, #5
  76 0002 07D8     		bhi	.L7
 374:Generated_Source\PSoC5/cyfitter_cfg.c **** 	{
 375:Generated_Source\PSoC5/cyfitter_cfg.c **** 		*CapSense_AMuxCH0__addrTable[channel] |= CapSense_AMuxCH0__maskTable[channel];
  77              		.loc 1 375 0
  78 0004 044B     		ldr	r3, .L9
  79 0006 53F82020 		ldr	r2, [r3, r0, lsl #2]
  80 000a 1844     		add	r0, r0, r3
  81              	.LVL5:
ARM GAS  C:\Users\Xwx47\AppData\Local\Temp\ccAWrati.s 			page 9


  82 000c 1178     		ldrb	r1, [r2]	@ zero_extendqisi2
  83 000e 037E     		ldrb	r3, [r0, #24]	@ zero_extendqisi2
  84 0010 0B43     		orrs	r3, r3, r1
  85 0012 1370     		strb	r3, [r2]
  86              	.L7:
  87 0014 7047     		bx	lr
  88              	.L10:
  89 0016 00BF     		.align	2
  90              	.L9:
  91 0018 00000000 		.word	.LANCHOR0
  92              		.cfi_endproc
  93              	.LFE8:
  94              		.size	CapSense_AMuxCH0_Set, .-CapSense_AMuxCH0_Set
  95              		.section	.text.CapSense_AMuxCH0_Unset,"ax",%progbits
  96              		.align	1
  97              		.global	CapSense_AMuxCH0_Unset
  98              		.thumb
  99              		.thumb_func
 100              		.type	CapSense_AMuxCH0_Unset, %function
 101              	CapSense_AMuxCH0_Unset:
 102              	.LFB9:
 376:Generated_Source\PSoC5/cyfitter_cfg.c **** 	}
 377:Generated_Source\PSoC5/cyfitter_cfg.c **** }
 378:Generated_Source\PSoC5/cyfitter_cfg.c **** 
 379:Generated_Source\PSoC5/cyfitter_cfg.c **** /*******************************************************************************
 380:Generated_Source\PSoC5/cyfitter_cfg.c **** * Function Name: CapSense_AMuxCH0_Unset
 381:Generated_Source\PSoC5/cyfitter_cfg.c **** ********************************************************************************
 382:Generated_Source\PSoC5/cyfitter_cfg.c **** * Summary:
 383:Generated_Source\PSoC5/cyfitter_cfg.c **** *  This function is used to clear a particular channel from being active on the
 384:Generated_Source\PSoC5/cyfitter_cfg.c **** *  AMux.
 385:Generated_Source\PSoC5/cyfitter_cfg.c **** *
 386:Generated_Source\PSoC5/cyfitter_cfg.c **** * Parameters:  
 387:Generated_Source\PSoC5/cyfitter_cfg.c **** *   channel - The mux channel input to mark inactive
 388:Generated_Source\PSoC5/cyfitter_cfg.c **** *
 389:Generated_Source\PSoC5/cyfitter_cfg.c **** * Return:
 390:Generated_Source\PSoC5/cyfitter_cfg.c **** *   void
 391:Generated_Source\PSoC5/cyfitter_cfg.c **** *
 392:Generated_Source\PSoC5/cyfitter_cfg.c **** *******************************************************************************/
 393:Generated_Source\PSoC5/cyfitter_cfg.c **** void CapSense_AMuxCH0_Unset(uint8 channel)
 394:Generated_Source\PSoC5/cyfitter_cfg.c **** {
 103              		.loc 1 394 0
 104              		.cfi_startproc
 105              		@ args = 0, pretend = 0, frame = 0
 106              		@ frame_needed = 0, uses_anonymous_args = 0
 107              		@ link register save eliminated.
 108              	.LVL6:
 395:Generated_Source\PSoC5/cyfitter_cfg.c **** 	if (channel < 6)
 109              		.loc 1 395 0
 110 0000 0528     		cmp	r0, #5
 111 0002 08D8     		bhi	.L11
 396:Generated_Source\PSoC5/cyfitter_cfg.c **** 	{
 397:Generated_Source\PSoC5/cyfitter_cfg.c **** 		*CapSense_AMuxCH0__addrTable[channel] &= (uint8)~CapSense_AMuxCH0__maskTable[channel];
 112              		.loc 1 397 0
 113 0004 044B     		ldr	r3, .L13
 114 0006 53F82020 		ldr	r2, [r3, r0, lsl #2]
 115 000a 1844     		add	r0, r0, r3
 116              	.LVL7:
ARM GAS  C:\Users\Xwx47\AppData\Local\Temp\ccAWrati.s 			page 10


 117 000c 017E     		ldrb	r1, [r0, #24]	@ zero_extendqisi2
 118 000e 1378     		ldrb	r3, [r2]	@ zero_extendqisi2
 119 0010 23EA0103 		bic	r3, r3, r1
 120 0014 1370     		strb	r3, [r2]
 121              	.L11:
 122 0016 7047     		bx	lr
 123              	.L14:
 124              		.align	2
 125              	.L13:
 126 0018 00000000 		.word	.LANCHOR0
 127              		.cfi_endproc
 128              	.LFE9:
 129              		.size	CapSense_AMuxCH0_Unset, .-CapSense_AMuxCH0_Unset
 130              		.section	.text.cyfitter_cfg,"ax",%progbits
 131              		.align	1
 132              		.global	cyfitter_cfg
 133              		.thumb
 134              		.thumb_func
 135              		.type	cyfitter_cfg, %function
 136              	cyfitter_cfg:
 137              	.LFB10:
 398:Generated_Source\PSoC5/cyfitter_cfg.c **** 	}
 399:Generated_Source\PSoC5/cyfitter_cfg.c **** }
 400:Generated_Source\PSoC5/cyfitter_cfg.c **** 
 401:Generated_Source\PSoC5/cyfitter_cfg.c **** 
 402:Generated_Source\PSoC5/cyfitter_cfg.c **** 
 403:Generated_Source\PSoC5/cyfitter_cfg.c **** /*******************************************************************************
 404:Generated_Source\PSoC5/cyfitter_cfg.c **** * Function Name: cyfitter_cfg
 405:Generated_Source\PSoC5/cyfitter_cfg.c **** ********************************************************************************
 406:Generated_Source\PSoC5/cyfitter_cfg.c **** * Summary:
 407:Generated_Source\PSoC5/cyfitter_cfg.c **** *  This function is called by the start-up code for the selected device. It
 408:Generated_Source\PSoC5/cyfitter_cfg.c **** *  performs all of the necessary device configuration based on the design
 409:Generated_Source\PSoC5/cyfitter_cfg.c **** *  settings.  This includes settings from the Design Wide Resources (DWR) such
 410:Generated_Source\PSoC5/cyfitter_cfg.c **** *  as Clocks and Pins as well as any component configuration that is necessary.
 411:Generated_Source\PSoC5/cyfitter_cfg.c **** *
 412:Generated_Source\PSoC5/cyfitter_cfg.c **** * Parameters:
 413:Generated_Source\PSoC5/cyfitter_cfg.c **** *   void
 414:Generated_Source\PSoC5/cyfitter_cfg.c **** *
 415:Generated_Source\PSoC5/cyfitter_cfg.c **** * Return:
 416:Generated_Source\PSoC5/cyfitter_cfg.c **** *   void
 417:Generated_Source\PSoC5/cyfitter_cfg.c **** *
 418:Generated_Source\PSoC5/cyfitter_cfg.c **** *******************************************************************************/
 419:Generated_Source\PSoC5/cyfitter_cfg.c **** 
 420:Generated_Source\PSoC5/cyfitter_cfg.c **** void cyfitter_cfg(void)
 421:Generated_Source\PSoC5/cyfitter_cfg.c **** {
 138              		.loc 1 421 0
 139              		.cfi_startproc
 140              		@ args = 0, pretend = 0, frame = 0
 141              		@ frame_needed = 0, uses_anonymous_args = 0
 142 0000 F8B5     		push	{r3, r4, r5, r6, r7, lr}
 143              		.cfi_def_cfa_offset 24
 144              		.cfi_offset 3, -24
 145              		.cfi_offset 4, -20
 146              		.cfi_offset 5, -16
 147              		.cfi_offset 6, -12
 148              		.cfi_offset 7, -8
 149              		.cfi_offset 14, -4
ARM GAS  C:\Users\Xwx47\AppData\Local\Temp\ccAWrati.s 			page 11


 422:Generated_Source\PSoC5/cyfitter_cfg.c **** #ifdef CYGlobalIntDisable
 423:Generated_Source\PSoC5/cyfitter_cfg.c **** 	/* Disable interrupts by default. Let user enable if/when they want. */
 424:Generated_Source\PSoC5/cyfitter_cfg.c **** 	CYGlobalIntDisable
 150              		.loc 1 424 0
 151              		.syntax unified
 152              	@ 424 "Generated_Source\PSoC5\cyfitter_cfg.c" 1
 153 0002 72B6     		CPSID   i
 154              	@ 0 "" 2
 425:Generated_Source\PSoC5/cyfitter_cfg.c **** #endif
 426:Generated_Source\PSoC5/cyfitter_cfg.c **** 
 427:Generated_Source\PSoC5/cyfitter_cfg.c **** 	/* Enable/Disable Debug functionality based on settings from System DWR */
 428:Generated_Source\PSoC5/cyfitter_cfg.c **** 	CY_SET_XTND_REG8((void CYFAR *)CYREG_MLOGIC_DEBUG, (CY_GET_XTND_REG8((void CYFAR *)CYREG_MLOGIC_DE
 155              		.loc 1 428 0
 156              		.thumb
 157              		.syntax unified
 158 0004 684A     		ldr	r2, .L30
 159              	.LBB34:
 160              	.LBB35:
 429:Generated_Source\PSoC5/cyfitter_cfg.c **** 
 430:Generated_Source\PSoC5/cyfitter_cfg.c **** 	{
 431:Generated_Source\PSoC5/cyfitter_cfg.c **** 
 432:Generated_Source\PSoC5/cyfitter_cfg.c **** 		CYPACKED typedef struct {
 433:Generated_Source\PSoC5/cyfitter_cfg.c **** 			void CYFAR *address;
 434:Generated_Source\PSoC5/cyfitter_cfg.c **** 			uint16 size;
 435:Generated_Source\PSoC5/cyfitter_cfg.c **** 		} CYPACKED_ATTR cfg_memset_t;
 436:Generated_Source\PSoC5/cyfitter_cfg.c **** 
 437:Generated_Source\PSoC5/cyfitter_cfg.c **** 		static const cfg_memset_t CYCODE cfg_memset_list[] = {
 438:Generated_Source\PSoC5/cyfitter_cfg.c **** 			/* address, size */
 439:Generated_Source\PSoC5/cyfitter_cfg.c **** 			{(void CYFAR *)(CYREG_PRT0_DR), 16u},
 440:Generated_Source\PSoC5/cyfitter_cfg.c **** 			{(void CYFAR *)(CYREG_PRT3_DR), 64u},
 441:Generated_Source\PSoC5/cyfitter_cfg.c **** 			{(void CYFAR *)(CYREG_PRT12_DR), 16u},
 442:Generated_Source\PSoC5/cyfitter_cfg.c **** 			{(void CYFAR *)(CYDEV_UCFG_B0_P0_U0_BASE), 4096u},
 443:Generated_Source\PSoC5/cyfitter_cfg.c **** 			{(void CYFAR *)(CYDEV_UCFG_B1_P2_U0_BASE), 2048u},
 444:Generated_Source\PSoC5/cyfitter_cfg.c **** 			{(void CYFAR *)(CYDEV_UCFG_DSI0_BASE), 2560u},
 445:Generated_Source\PSoC5/cyfitter_cfg.c **** 			{(void CYFAR *)(CYDEV_UCFG_DSI12_BASE), 512u},
 446:Generated_Source\PSoC5/cyfitter_cfg.c **** 			{(void CYFAR *)(CYREG_BCTL0_MDCLK_EN), 32u},
 447:Generated_Source\PSoC5/cyfitter_cfg.c **** 		};
 448:Generated_Source\PSoC5/cyfitter_cfg.c **** 
 449:Generated_Source\PSoC5/cyfitter_cfg.c **** 		uint8 CYDATA i;
 450:Generated_Source\PSoC5/cyfitter_cfg.c **** 
 451:Generated_Source\PSoC5/cyfitter_cfg.c **** 		/* Zero out critical memory blocks before beginning configuration */
 452:Generated_Source\PSoC5/cyfitter_cfg.c **** 		for (i = 0u; i < (sizeof(cfg_memset_list)/sizeof(cfg_memset_list[0])); i++)
 453:Generated_Source\PSoC5/cyfitter_cfg.c **** 		{
 454:Generated_Source\PSoC5/cyfitter_cfg.c **** 			const cfg_memset_t CYCODE * CYDATA ms = &cfg_memset_list[i];
 455:Generated_Source\PSoC5/cyfitter_cfg.c **** 			CYMEMZERO(ms->address, (size_t)(uint32)(ms->size));
 161              		.loc 1 455 0
 162 0006 694D     		ldr	r5, .L30+4
 163              	.LBE35:
 164              	.LBE34:
 428:Generated_Source\PSoC5/cyfitter_cfg.c **** 
 165              		.loc 1 428 0
 166 0008 1378     		ldrb	r3, [r2]	@ zero_extendqisi2
 167 000a 0024     		movs	r4, #0
 168 000c 43F00403 		orr	r3, r3, #4
 169 0010 1370     		strb	r3, [r2]
 170              	.LVL8:
 171              	.LBB44:
ARM GAS  C:\Users\Xwx47\AppData\Local\Temp\ccAWrati.s 			page 12


 172              	.LBB38:
 173              		.loc 1 455 0
 174 0012 0626     		movs	r6, #6
 175              	.LVL9:
 176              	.L16:
 177              		.loc 1 455 0 is_stmt 0 discriminator 3
 178 0014 06FB0453 		mla	r3, r6, r4, r5
 179              	.LBB36:
 180              	.LBB37:
  78:Generated_Source\PSoC5/cyfitter_cfg.c **** }
 181              		.loc 1 78 0 is_stmt 1 discriminator 3
 182 0018 0021     		movs	r1, #0
 183 001a 5A8C     		ldrh	r2, [r3, #34]	@ unaligned
 184 001c D3F81E00 		ldr	r0, [r3, #30]	@ unaligned
 185 0020 0134     		adds	r4, r4, #1
 186              	.LVL10:
 187 0022 FFF7FEFF 		bl	memset
 188              	.LVL11:
 189              	.LBE37:
 190              	.LBE36:
 191              	.LBE38:
 452:Generated_Source\PSoC5/cyfitter_cfg.c **** 		{
 192              		.loc 1 452 0 discriminator 3
 193 0026 082C     		cmp	r4, #8
 194 0028 F4D1     		bne	.L16
 195 002a 6148     		ldr	r0, .L30+8
 196              	.LBB39:
 197              	.LBB40:
 194:Generated_Source\PSoC5/cyfitter_cfg.c **** 	{
 198              		.loc 1 194 0
 199 002c 614D     		ldr	r5, .L30+12
 200              	.LBE40:
 201              	.LBE39:
 202 002e 0024     		movs	r4, #0
 203              	.LVL12:
 204              	.L19:
 205              	.LBB43:
 206              	.LBB42:
 207              	.LBB41:
 196:Generated_Source\PSoC5/cyfitter_cfg.c **** 		uint8 count = (uint8)baseAddr;
 208              		.loc 1 196 0
 209 0030 50F8041F 		ldr	r1, [r0, #4]!
 210              	.LVL13:
 211 0034 04F11053 		add	r3, r4, #603979776
 212 0038 03F12802 		add	r2, r3, #40
 198:Generated_Source\PSoC5/cyfitter_cfg.c **** 		while (count != 0u)
 213              		.loc 1 198 0
 214 003c 21F0FF06 		bic	r6, r1, #255
 215              	.LVL14:
 216 0040 2933     		adds	r3, r3, #41
 217 0042 C9B2     		uxtb	r1, r1
 218 0044 0B44     		add	r3, r3, r1
 219 0046 5200     		lsls	r2, r2, #1
 220 0048 5B00     		lsls	r3, r3, #1
 221              	.LVL15:
 222              	.L17:
 223 004a 0232     		adds	r2, r2, #2
ARM GAS  C:\Users\Xwx47\AppData\Local\Temp\ccAWrati.s 			page 13


 199:Generated_Source\PSoC5/cyfitter_cfg.c **** 		{
 224              		.loc 1 199 0
 225 004c 9A42     		cmp	r2, r3
 226 004e 06D0     		beq	.L29
 201:Generated_Source\PSoC5/cyfitter_cfg.c **** 			j++;
 227              		.loc 1 201 0
 228 0050 12F8027C 		ldrb	r7, [r2, #-2]	@ zero_extendqisi2
 229 0054 12F801EC 		ldrb	lr, [r2, #-1]	@ zero_extendqisi2
 230 0058 07F806E0 		strb	lr, [r7, r6]
 231 005c F5E7     		b	.L17
 232              	.L29:
 233              	.LBE41:
 194:Generated_Source\PSoC5/cyfitter_cfg.c **** 	{
 234              		.loc 1 194 0
 235 005e A842     		cmp	r0, r5
 236 0060 0C44     		add	r4, r4, r1
 237              	.LVL16:
 238 0062 E5D1     		bne	.L19
 239              	.LVL17:
 240              	.LBE42:
 241              	.LBE43:
 456:Generated_Source\PSoC5/cyfitter_cfg.c **** 		}
 457:Generated_Source\PSoC5/cyfitter_cfg.c **** 
 458:Generated_Source\PSoC5/cyfitter_cfg.c **** 		cfg_write_bytes32(cy_cfg_addr_table, cy_cfg_data_table);
 459:Generated_Source\PSoC5/cyfitter_cfg.c **** 
 460:Generated_Source\PSoC5/cyfitter_cfg.c **** 		/* Perform normal device configuration. Order is not critical for these items. */
 461:Generated_Source\PSoC5/cyfitter_cfg.c **** 		CY_SET_XTND_REG16((void CYFAR *)(CYREG_CAPSR_CFG0), 0x0300u);
 242              		.loc 1 461 0
 243 0064 544B     		ldr	r3, .L30+16
 244 0066 4FF44072 		mov	r2, #768
 245 006a 1A80     		strh	r2, [r3]	@ movhi
 462:Generated_Source\PSoC5/cyfitter_cfg.c **** 		CY_SET_XTND_REG16((void CYFAR *)(CYREG_LUT1_CR), 0x0103u);
 246              		.loc 1 462 0
 247 006c 40F20312 		movw	r2, #259
 248 0070 23F8282C 		strh	r2, [r3, #-40]	@ movhi
 463:Generated_Source\PSoC5/cyfitter_cfg.c **** 
 464:Generated_Source\PSoC5/cyfitter_cfg.c **** 		/* B0_P5_U0_CFG24 Starting address: CYDEV_UCFG_B0_P5_U0_CFG24 */
 465:Generated_Source\PSoC5/cyfitter_cfg.c **** 		CY_SET_XTND_REG32((void CYFAR *)(CYREG_B0_P5_U0_CFG24), 0x84040404u);
 249              		.loc 1 465 0
 250 0074 514A     		ldr	r2, .L30+20
 251 0076 03F53143 		add	r3, r3, #45312
 252 007a E633     		adds	r3, r3, #230
 253 007c 1A60     		str	r2, [r3]
 466:Generated_Source\PSoC5/cyfitter_cfg.c **** 
 467:Generated_Source\PSoC5/cyfitter_cfg.c **** 		/* Enable digital routing */
 468:Generated_Source\PSoC5/cyfitter_cfg.c **** 		CY_SET_XTND_REG8((void CYFAR *)CYREG_BCTL0_BANK_CTL, CY_GET_XTND_REG8((void CYFAR *)CYREG_BCTL0_B
 254              		.loc 1 468 0
 255 007e 504A     		ldr	r2, .L30+24
 469:Generated_Source\PSoC5/cyfitter_cfg.c **** 		CY_SET_XTND_REG8((void CYFAR *)CYREG_BCTL1_BANK_CTL, CY_GET_XTND_REG8((void CYFAR *)CYREG_BCTL1_B
 470:Generated_Source\PSoC5/cyfitter_cfg.c **** 
 471:Generated_Source\PSoC5/cyfitter_cfg.c **** 		/* Enable UDB array */
 472:Generated_Source\PSoC5/cyfitter_cfg.c **** 		CY_SET_XTND_REG8((void CYFAR *)CYREG_PM_ACT_CFG0, CY_GET_XTND_REG8((void CYFAR *)CYREG_PM_ACT_CFG
 256              		.loc 1 472 0
 257 0080 504C     		ldr	r4, .L30+28
 468:Generated_Source\PSoC5/cyfitter_cfg.c **** 		CY_SET_XTND_REG8((void CYFAR *)CYREG_BCTL1_BANK_CTL, CY_GET_XTND_REG8((void CYFAR *)CYREG_BCTL1_B
 258              		.loc 1 468 0
 259 0082 1378     		ldrb	r3, [r2]	@ zero_extendqisi2
ARM GAS  C:\Users\Xwx47\AppData\Local\Temp\ccAWrati.s 			page 14


 260              	.LBE44:
 261              	.LBB45:
 262              	.LBB46:
 250:Generated_Source\PSoC5/cyfitter_cfg.c **** 		CyDelayCycles(10u * 48u); /* Delay 10us based on 48MHz clock */
 263              		.loc 1 250 0
 264 0084 504F     		ldr	r7, .L30+32
 265              	.LBE46:
 266              	.LBE45:
 267              	.LBB52:
 468:Generated_Source\PSoC5/cyfitter_cfg.c **** 		CY_SET_XTND_REG8((void CYFAR *)CYREG_BCTL1_BANK_CTL, CY_GET_XTND_REG8((void CYFAR *)CYREG_BCTL1_B
 268              		.loc 1 468 0
 269 0086 43F00203 		orr	r3, r3, #2
 270 008a 1370     		strb	r3, [r2]
 469:Generated_Source\PSoC5/cyfitter_cfg.c **** 		CY_SET_XTND_REG8((void CYFAR *)CYREG_BCTL1_BANK_CTL, CY_GET_XTND_REG8((void CYFAR *)CYREG_BCTL1_B
 271              		.loc 1 469 0
 272 008c 137C     		ldrb	r3, [r2, #16]	@ zero_extendqisi2
 273              	.LBE52:
 274              	.LBB53:
 275              	.LBB47:
 245:Generated_Source\PSoC5/cyfitter_cfg.c **** 	/* Wait up to 250us for the PLL to lock */
 276              		.loc 1 245 0
 277 008e 1926     		movs	r6, #25
 278              	.LBE47:
 279              	.LBE53:
 280              	.LBB54:
 469:Generated_Source\PSoC5/cyfitter_cfg.c **** 
 281              		.loc 1 469 0
 282 0090 43F00203 		orr	r3, r3, #2
 283 0094 1374     		strb	r3, [r2, #16]
 284              		.loc 1 472 0
 285 0096 2378     		ldrb	r3, [r4]	@ zero_extendqisi2
 473:Generated_Source\PSoC5/cyfitter_cfg.c **** 		CY_SET_XTND_REG8((void CYFAR *)CYREG_PM_AVAIL_CR2, CY_GET_XTND_REG8((void CYFAR *)CYREG_PM_AVAIL_
 286              		.loc 1 473 0
 287 0098 A2F58632 		sub	r2, r2, #68608
 472:Generated_Source\PSoC5/cyfitter_cfg.c **** 		CY_SET_XTND_REG8((void CYFAR *)CYREG_PM_AVAIL_CR2, CY_GET_XTND_REG8((void CYFAR *)CYREG_PM_AVAIL_
 288              		.loc 1 472 0
 289 009c 43F04003 		orr	r3, r3, #64
 290 00a0 2370     		strb	r3, [r4]
 291              		.loc 1 473 0
 292 00a2 413A     		subs	r2, r2, #65
 293 00a4 1378     		ldrb	r3, [r2]	@ zero_extendqisi2
 294              	.LBE54:
 295              	.LBB55:
 296              	.LBB48:
 247:Generated_Source\PSoC5/cyfitter_cfg.c **** 	for (timeout = 250u / 10u; (timeout > 0u) && (pllLock != 0x03u); timeout--)
 297              		.loc 1 247 0
 298 00a6 0025     		movs	r5, #0
 299              	.LBE48:
 300              	.LBE55:
 301              	.LBB56:
 302              		.loc 1 473 0
 303 00a8 43F01003 		orr	r3, r3, #16
 304 00ac 1370     		strb	r3, [r2]
 305              	.LVL18:
 306              	.LBE56:
 307              	.LBB57:
 308              	.LBB58:
ARM GAS  C:\Users\Xwx47\AppData\Local\Temp\ccAWrati.s 			page 15


  85:Generated_Source\PSoC5/cyfitter_cfg.c **** }
 309              		.loc 1 85 0
 310 00ae 474B     		ldr	r3, .L30+36
 311 00b0 03CB     		ldmia	r3!, {r0, r1}
 312 00b2 C2F8300E 		str	r0, [r2, #3632]	@ unaligned
 313 00b6 C2F8341E 		str	r1, [r2, #3636]	@ unaligned
 314              	.LVL19:
 315              	.LBE58:
 316              	.LBE57:
 317              	.LBB59:
 318              	.LBB60:
 319 00ba 03CB     		ldmia	r3!, {r0, r1}
 320 00bc C2F8500D 		str	r0, [r2, #3408]	@ unaligned
 321 00c0 C2F8541D 		str	r1, [r2, #3412]	@ unaligned
 322              	.LVL20:
 323              	.LBE60:
 324              	.LBE59:
 325              	.LBB61:
 326              	.LBB62:
 327 00c4 03CB     		ldmia	r3!, {r0, r1}
 328 00c6 C2F8641D 		str	r1, [r2, #3428]	@ unaligned
 329              	.LVL21:
 330 00ca C2F8600D 		str	r0, [r2, #3424]	@ unaligned
 331              	.LBE62:
 332              	.LBE61:
 474:Generated_Source\PSoC5/cyfitter_cfg.c **** 	}
 475:Generated_Source\PSoC5/cyfitter_cfg.c **** 
 476:Generated_Source\PSoC5/cyfitter_cfg.c **** 
 477:Generated_Source\PSoC5/cyfitter_cfg.c **** 	/* Perform second pass device configuration. These items must be configured in specific order afte
 478:Generated_Source\PSoC5/cyfitter_cfg.c **** 	CYCONFIGCPY((void CYFAR *)(CYREG_PRT15_DM0), (const void CYFAR *)(BS_IOPINS0_8_VAL), 8u);
 479:Generated_Source\PSoC5/cyfitter_cfg.c **** 	CYCONFIGCPY((void CYFAR *)(CYREG_PRT1_DM0), (const void CYFAR *)(BS_IOPINS0_1_VAL), 8u);
 480:Generated_Source\PSoC5/cyfitter_cfg.c **** 	CYCONFIGCPY((void CYFAR *)(CYREG_PRT2_DM0), (const void CYFAR *)(BS_IOPINS0_2_VAL), 8u);
 481:Generated_Source\PSoC5/cyfitter_cfg.c **** 	/* Switch Boost to the precision bandgap reference from its internal reference */
 482:Generated_Source\PSoC5/cyfitter_cfg.c **** 	CY_SET_REG8((void CYXDATA *)CYREG_BOOST_CR2, (CY_GET_REG8((void CYXDATA *)CYREG_BOOST_CR2) | 0x08u
 333              		.loc 1 482 0
 334 00ce A03A     		subs	r2, r2, #160
 335 00d0 1378     		ldrb	r3, [r2]	@ zero_extendqisi2
 336              	.LBB63:
 337              	.LBB49:
 240:Generated_Source\PSoC5/cyfitter_cfg.c **** 	CY_SET_XTND_REG8((void CYFAR *)(CYREG_IMO_TR1), (CY_GET_XTND_REG8((void CYFAR *)CYREG_FLSHID_CUST_
 338              		.loc 1 240 0
 339 00d2 0321     		movs	r1, #3
 340              	.LBE49:
 341              	.LBE63:
 342              		.loc 1 482 0
 343 00d4 43F00803 		orr	r3, r3, #8
 344 00d8 1370     		strb	r3, [r2]
 483:Generated_Source\PSoC5/cyfitter_cfg.c **** 
 484:Generated_Source\PSoC5/cyfitter_cfg.c **** 	/* Set Flash Cycles based on max possible frequency in case a glitch occurs during ClockSetup(). *
 485:Generated_Source\PSoC5/cyfitter_cfg.c **** 	CY_SET_XTND_REG8((void CYFAR *)(CYREG_CACHE_CC_CTL), (((CYDEV_INSTRUCT_CACHE_ENABLED) != 0) ? 0x61
 345              		.loc 1 485 0
 346 00da 3D4B     		ldr	r3, .L30+40
 347 00dc 6122     		movs	r2, #97
 348 00de 1A70     		strb	r2, [r3]
 349              	.LBB64:
 350              	.LBB50:
 232:Generated_Source\PSoC5/cyfitter_cfg.c **** 	CY_SET_XTND_REG8((void CYFAR *)(CYREG_CLKDIST_DCFG0_CFG0 + 0x2u), 0x18u);
ARM GAS  C:\Users\Xwx47\AppData\Local\Temp\ccAWrati.s 			page 16


 351              		.loc 1 232 0
 352 00e0 A3F5F063 		sub	r3, r3, #1920
 353 00e4 0122     		movs	r2, #1
 354 00e6 1A80     		strh	r2, [r3]	@ movhi
 233:Generated_Source\PSoC5/cyfitter_cfg.c **** 
 355              		.loc 1 233 0
 356 00e8 1822     		movs	r2, #24
 357 00ea 9A70     		strb	r2, [r3, #2]
 236:Generated_Source\PSoC5/cyfitter_cfg.c **** 	CY_SET_XTND_REG8((void CYFAR *)(CYREG_CLKDIST_CR), 0x08u);
 358              		.loc 1 236 0
 359 00ec 0222     		movs	r2, #2
 360 00ee 83F88022 		strb	r2, [r3, #640]
 237:Generated_Source\PSoC5/cyfitter_cfg.c **** 
 361              		.loc 1 237 0
 362 00f2 0822     		movs	r2, #8
 363 00f4 4FF04023 		mov	r3, #1073758208
 364 00f8 1A70     		strb	r2, [r3]
 240:Generated_Source\PSoC5/cyfitter_cfg.c **** 	CY_SET_XTND_REG8((void CYFAR *)(CYREG_IMO_TR1), (CY_GET_XTND_REG8((void CYFAR *)CYREG_FLSHID_CUST_
 365              		.loc 1 240 0
 366 00fa 83F80012 		strb	r1, [r3, #512]
 241:Generated_Source\PSoC5/cyfitter_cfg.c **** 
 367              		.loc 1 241 0
 368 00fe 354B     		ldr	r3, .L30+44
 369 0100 3549     		ldr	r1, .L30+48
 370 0102 1B78     		ldrb	r3, [r3]	@ zero_extendqisi2
 371 0104 DBB2     		uxtb	r3, r3
 372 0106 0B70     		strb	r3, [r1]
 244:Generated_Source\PSoC5/cyfitter_cfg.c **** 	CY_SET_XTND_REG16((void CYFAR *)(CYREG_FASTCLK_PLL_CFG0), 0x1251u);
 373              		.loc 1 244 0
 374 0108 344B     		ldr	r3, .L30+52
 375 010a 1A80     		strh	r2, [r3]	@ movhi
 245:Generated_Source\PSoC5/cyfitter_cfg.c **** 	/* Wait up to 250us for the PLL to lock */
 376              		.loc 1 245 0
 377 010c 41F25122 		movw	r2, #4689
 378 0110 23F8022C 		strh	r2, [r3, #-2]	@ movhi
 379              	.LVL22:
 380              	.L21:
 250:Generated_Source\PSoC5/cyfitter_cfg.c **** 		CyDelayCycles(10u * 48u); /* Delay 10us based on 48MHz clock */
 381              		.loc 1 250 0
 382 0114 3B78     		ldrb	r3, [r7]	@ zero_extendqisi2
 251:Generated_Source\PSoC5/cyfitter_cfg.c **** 	}
 383              		.loc 1 251 0
 384 0116 4FF4F070 		mov	r0, #480
 250:Generated_Source\PSoC5/cyfitter_cfg.c **** 		CyDelayCycles(10u * 48u); /* Delay 10us based on 48MHz clock */
 385              		.loc 1 250 0
 386 011a 03F00103 		and	r3, r3, #1
 387 011e 43EA4505 		orr	r5, r3, r5, lsl #1
 388              	.LVL23:
 251:Generated_Source\PSoC5/cyfitter_cfg.c **** 	}
 389              		.loc 1 251 0
 390 0122 FFF7FEFF 		bl	CyDelayCycles
 391              	.LVL24:
 248:Generated_Source\PSoC5/cyfitter_cfg.c **** 	{ 
 392              		.loc 1 248 0
 393 0126 013E     		subs	r6, r6, #1
 394              	.LVL25:
 250:Generated_Source\PSoC5/cyfitter_cfg.c **** 		CyDelayCycles(10u * 48u); /* Delay 10us based on 48MHz clock */
ARM GAS  C:\Users\Xwx47\AppData\Local\Temp\ccAWrati.s 			page 17


 395              		.loc 1 250 0
 396 0128 05F00305 		and	r5, r5, #3
 397              	.LVL26:
 248:Generated_Source\PSoC5/cyfitter_cfg.c **** 	{ 
 398              		.loc 1 248 0
 399 012c 3AD0     		beq	.L20
 400              	.LVL27:
 401 012e 032D     		cmp	r5, #3
 402 0130 F0D1     		bne	.L21
 260:Generated_Source\PSoC5/cyfitter_cfg.c **** 	CY_SET_XTND_REG8((void CYFAR *)(CYREG_CLKDIST_MSTR0), 0x07u);
 403              		.loc 1 260 0
 404 0132 2B4B     		ldr	r3, .L30+56
 405 0134 4FF48072 		mov	r2, #256
 406 0138 1A80     		strh	r2, [r3]	@ movhi
 262:Generated_Source\PSoC5/cyfitter_cfg.c **** 	CY_SET_XTND_REG8((void CYFAR *)(CYREG_CLKDIST_BCFG2), 0x48u);
 407              		.loc 1 262 0
 408 013a 2A49     		ldr	r1, .L30+60
 261:Generated_Source\PSoC5/cyfitter_cfg.c **** 	CY_SET_XTND_REG8((void CYFAR *)(CYREG_CLKDIST_BCFG0), 0x00u);
 409              		.loc 1 261 0
 410 013c 0722     		movs	r2, #7
 411 013e 1A70     		strb	r2, [r3]
 263:Generated_Source\PSoC5/cyfitter_cfg.c **** 	CY_SET_XTND_REG8((void CYFAR *)(CYREG_CLKDIST_MSTR0), 0x00u);
 412              		.loc 1 263 0
 413 0140 4820     		movs	r0, #72
 262:Generated_Source\PSoC5/cyfitter_cfg.c **** 	CY_SET_XTND_REG8((void CYFAR *)(CYREG_CLKDIST_BCFG2), 0x48u);
 414              		.loc 1 262 0
 415 0142 0022     		movs	r2, #0
 416 0144 0A70     		strb	r2, [r1]
 263:Generated_Source\PSoC5/cyfitter_cfg.c **** 	CY_SET_XTND_REG8((void CYFAR *)(CYREG_CLKDIST_MSTR0), 0x00u);
 417              		.loc 1 263 0
 418 0146 8870     		strb	r0, [r1, #2]
 265:Generated_Source\PSoC5/cyfitter_cfg.c **** 
 419              		.loc 1 265 0
 420 0148 0221     		movs	r1, #2
 264:Generated_Source\PSoC5/cyfitter_cfg.c **** 	CY_SET_XTND_REG8((void CYFAR *)(CYREG_CLKDIST_LD), 0x02u);
 421              		.loc 1 264 0
 422 014a 1A70     		strb	r2, [r3]
 265:Generated_Source\PSoC5/cyfitter_cfg.c **** 
 423              		.loc 1 265 0
 424 014c 03F8031C 		strb	r1, [r3, #-3]
 267:Generated_Source\PSoC5/cyfitter_cfg.c **** }
 425              		.loc 1 267 0
 426 0150 2549     		ldr	r1, .L30+64
 427              	.LBE50:
 428              	.LBE64:
 429              	.LBB65:
 430              	.LBB66:
 293:Generated_Source\PSoC5/cyfitter_cfg.c **** 	CY_SET_XTND_REG8((void CYFAR *)(CYREG_BG_DFT1), ((bg_xover_inl_trim >> 4) & 0x0Fu));
 431              		.loc 1 293 0
 432 0152 2648     		ldr	r0, .L30+68
 433              	.LBE66:
 434              	.LBE65:
 435              	.LBB69:
 436              	.LBB51:
 267:Generated_Source\PSoC5/cyfitter_cfg.c **** }
 437              		.loc 1 267 0
 438 0154 0B78     		ldrb	r3, [r1]	@ zero_extendqisi2
ARM GAS  C:\Users\Xwx47\AppData\Local\Temp\ccAWrati.s 			page 18


 439 0156 43F00103 		orr	r3, r3, #1
 440 015a 0B70     		strb	r3, [r1]
 441              	.LVL28:
 442              	.LBE51:
 443              	.LBE69:
 486:Generated_Source\PSoC5/cyfitter_cfg.c **** 	/* Setup clocks based on selections from Clock DWR */
 487:Generated_Source\PSoC5/cyfitter_cfg.c **** 	ClockSetup();
 488:Generated_Source\PSoC5/cyfitter_cfg.c **** 	/* Set Flash Cycles based on newly configured 24.00MHz Bus Clock. */
 489:Generated_Source\PSoC5/cyfitter_cfg.c **** 	CY_SET_XTND_REG8((void CYFAR *)(CYREG_CACHE_CC_CTL), (((CYDEV_INSTRUCT_CACHE_ENABLED) != 0) ? 0x81
 444              		.loc 1 489 0
 445 015c 1C4B     		ldr	r3, .L30+40
 446 015e 8121     		movs	r1, #129
 447 0160 1970     		strb	r1, [r3]
 490:Generated_Source\PSoC5/cyfitter_cfg.c **** 	CY_SET_XTND_REG8((void CYFAR *)(CYREG_PANTHER_WAITPIPE), 0x01u);
 448              		.loc 1 490 0
 449 0162 03F5F723 		add	r3, r3, #505856
 450 0166 0121     		movs	r1, #1
 451 0168 0433     		adds	r3, r3, #4
 452 016a 1970     		strb	r1, [r3]
 453              	.LBB70:
 454              	.LBB67:
 292:Generated_Source\PSoC5/cyfitter_cfg.c **** 	CY_SET_XTND_REG8((void CYFAR *)(CYREG_BG_DFT0), (bg_xover_inl_trim & 0x07u));
 455              		.loc 1 292 0
 456 016c 204B     		ldr	r3, .L30+72
 457 016e 1B78     		ldrb	r3, [r3]	@ zero_extendqisi2
 458 0170 DBB2     		uxtb	r3, r3
 459              	.LVL29:
 293:Generated_Source\PSoC5/cyfitter_cfg.c **** 	CY_SET_XTND_REG8((void CYFAR *)(CYREG_BG_DFT1), ((bg_xover_inl_trim >> 4) & 0x0Fu));
 460              		.loc 1 293 0
 461 0172 03F00705 		and	r5, r3, #7
 294:Generated_Source\PSoC5/cyfitter_cfg.c **** 	CY_SET_XTND_REG8((void CYFAR *)CYREG_PRT15_AG, 0x10u);
 462              		.loc 1 294 0
 463 0176 1B09     		lsrs	r3, r3, #4
 464              	.LVL30:
 293:Generated_Source\PSoC5/cyfitter_cfg.c **** 	CY_SET_XTND_REG8((void CYFAR *)(CYREG_BG_DFT1), ((bg_xover_inl_trim >> 4) & 0x0Fu));
 465              		.loc 1 293 0
 466 0178 0570     		strb	r5, [r0]
 294:Generated_Source\PSoC5/cyfitter_cfg.c **** 	CY_SET_XTND_REG8((void CYFAR *)CYREG_PRT15_AG, 0x10u);
 467              		.loc 1 294 0
 468 017a 4370     		strb	r3, [r0, #1]
 295:Generated_Source\PSoC5/cyfitter_cfg.c **** 	CY_SET_XTND_REG8((void CYFAR *)CYREG_CAPSL_CFG0, 0x00u);
 469              		.loc 1 295 0
 470 017c 1D4B     		ldr	r3, .L30+76
 471 017e 1020     		movs	r0, #16
 472 0180 1870     		strb	r0, [r3]
 296:Generated_Source\PSoC5/cyfitter_cfg.c **** 	CY_SET_XTND_REG8((void CYFAR *)CYREG_CMP1_SW3, 0x20u);
 473              		.loc 1 296 0
 474 0182 83F87326 		strb	r2, [r3, #1651]
 297:Generated_Source\PSoC5/cyfitter_cfg.c **** 	CY_SET_XTND_REG8((void CYFAR *)CYREG_BUS_SW3, 0x01u);
 475              		.loc 1 297 0
 476 0186 2022     		movs	r2, #32
 477 0188 83F8CE28 		strb	r2, [r3, #2254]
 478              	.LBE67:
 479              	.LBE70:
 480              	.LBB71:
 481              	.LBB72:
  85:Generated_Source\PSoC5/cyfitter_cfg.c **** }
ARM GAS  C:\Users\Xwx47\AppData\Local\Temp\ccAWrati.s 			page 19


 482              		.loc 1 85 0
 483 018c 1A4D     		ldr	r5, .L30+80
 484              	.LBE72:
 485              	.LBE71:
 486              	.LBB74:
 487              	.LBB68:
 298:Generated_Source\PSoC5/cyfitter_cfg.c **** 	CY_SET_XTND_REG8((void CYFAR *)CYREG_PUMP_CR0, 0x44u);
 488              		.loc 1 298 0
 489 018e 83F85E19 		strb	r1, [r3, #2398]
 299:Generated_Source\PSoC5/cyfitter_cfg.c **** }
 490              		.loc 1 299 0
 491 0192 4422     		movs	r2, #68
 492 0194 03F27963 		addw	r3, r3, #1657
 493 0198 1A70     		strb	r2, [r3]
 494              	.LVL31:
 495              	.LBE68:
 496              	.LBE74:
 497              	.LBB75:
 498              	.LBB73:
  85:Generated_Source\PSoC5/cyfitter_cfg.c **** }
 499              		.loc 1 85 0
 500 019a 94E80F00 		ldmia	r4, {r0, r1, r2, r3}
 501 019e 07C5     		stmia	r5!, {r0, r1, r2}
 502 01a0 2B80     		strh	r3, [r5]	@ movhi
 503              	.LVL32:
 504 01a2 F8BD     		pop	{r3, r4, r5, r6, r7, pc}
 505              	.LVL33:
 506              	.L20:
 507 01a4 FEE7     		b	.L20
 508              	.L31:
 509 01a6 00BF     		.align	2
 510              	.L30:
 511 01a8 E8460040 		.word	1073759976
 512 01ac 00000000 		.word	.LANCHOR0
 513 01b0 FCFFFF47 		.word	1207959548
 514 01b4 4C000048 		.word	1207959628
 515 01b8 72580040 		.word	1073764466
 516 01bc 04040484 		.word	-2080111612
 517 01c0 03500140 		.word	1073827843
 518 01c4 A0430040 		.word	1073759136
 519 01c8 25420040 		.word	1073758757
 520 01cc 20030048 		.word	1207960352
 521 01d0 00480040 		.word	1073760256
 522 01d4 08010049 		.word	1224737032
 523 01d8 A1460040 		.word	1073759905
 524 01dc 22420040 		.word	1073758754
 525 01e0 04400040 		.word	1073758212
 526 01e4 06400040 		.word	1073758214
 527 01e8 A2430040 		.word	1073759138
 528 01ec 6E580040 		.word	1073764462
 529 01f0 CF010049 		.word	1224737231
 530 01f4 FD510040 		.word	1073762813
 531 01f8 B0430040 		.word	1073759152
 532              	.LBE73:
 533              	.LBE75:
 534              		.cfi_endproc
 535              	.LFE10:
ARM GAS  C:\Users\Xwx47\AppData\Local\Temp\ccAWrati.s 			page 20


 536              		.size	cyfitter_cfg, .-cyfitter_cfg
 537              		.global	CapSense_AMuxCH0__maskTable
 538              		.global	CapSense_AMuxCH0__addrTable
 539              		.section	.rodata
 540              		.align	2
 541              		.set	.LANCHOR0,. + 0
 542              		.type	CapSense_AMuxCH0__addrTable, %object
 543              		.size	CapSense_AMuxCH0__addrTable, 24
 544              	CapSense_AMuxCH0__addrTable:
 545 0000 1C510040 		.word	1073762588
 546 0004 1C510040 		.word	1073762588
 547 0008 1C510040 		.word	1073762588
 548 000c FC510040 		.word	1073762812
 549 0010 CB5A0040 		.word	1073765067
 550 0014 9B5A0040 		.word	1073765019
 551              		.type	CapSense_AMuxCH0__maskTable, %object
 552              		.size	CapSense_AMuxCH0__maskTable, 6
 553              	CapSense_AMuxCH0__maskTable:
 554 0018 40       		.byte	64
 555 0019 10       		.byte	16
 556 001a 04       		.byte	4
 557 001b 10       		.byte	16
 558 001c 01       		.byte	1
 559 001d 10       		.byte	16
 560              		.type	cfg_memset_list.5017, %object
 561              		.size	cfg_memset_list.5017, 48
 562              	cfg_memset_list.5017:
 563 001e 00510040 		.4byte	1073762560
 564 0022 1000     		.2byte	16
 565 0024 30510040 		.4byte	1073762608
 566 0028 4000     		.2byte	64
 567 002a C0510040 		.4byte	1073762752
 568 002e 1000     		.2byte	16
 569 0030 00000140 		.4byte	1073807360
 570 0034 0010     		.2byte	4096
 571 0036 00140140 		.4byte	1073812480
 572 003a 0008     		.2byte	2048
 573 003c 00400140 		.4byte	1073823744
 574 0040 000A     		.2byte	2560
 575 0042 004C0140 		.4byte	1073826816
 576 0046 0002     		.2byte	512
 577 0048 00500140 		.4byte	1073827840
 578 004c 2000     		.2byte	32
 579              		.text
 580              	.Letext0:
 581              		.file 2 "c:\\program files (x86)\\cypress\\psoc creator\\4.1\\psoc creator\\import\\gnu\\arm\\5.4.
 582              		.file 3 "Generated_Source\\PSoC5\\cytypes.h"
 583              		.file 4 "Generated_Source\\PSoC5\\CyLib.h"