ARM GAS  C:\Users\Xwx47\AppData\Local\Temp\cc1UuzrZ.s 			page 1


   1              		.syntax unified
   2              		.cpu cortex-m3
   3              		.fpu softvfp
   4              		.eabi_attribute 20, 1
   5              		.eabi_attribute 21, 1
   6              		.eabi_attribute 23, 3
   7              		.eabi_attribute 24, 1
   8              		.eabi_attribute 25, 1
   9              		.eabi_attribute 26, 1
  10              		.eabi_attribute 30, 4
  11              		.eabi_attribute 34, 1
  12              		.eabi_attribute 18, 4
  13              		.thumb
  14              		.file	"CapSense_AMuxCH0.c"
  15              		.text
  16              	.Ltext0:
  17              		.cfi_sections	.debug_frame
  18              		.section	.text.CapSense_AMuxCH0_FastSelect,"ax",%progbits
  19              		.align	1
  20              		.global	CapSense_AMuxCH0_FastSelect
  21              		.thumb
  22              		.thumb_func
  23              		.type	CapSense_AMuxCH0_FastSelect, %function
  24              	CapSense_AMuxCH0_FastSelect:
  25              	.LFB4:
  26              		.file 1 ".\\Generated_Source\\PSoC5\\CapSense_AMuxCH0.c"
   1:.\Generated_Source\PSoC5/CapSense_AMuxCH0.c **** /*******************************************************************************
   2:.\Generated_Source\PSoC5/CapSense_AMuxCH0.c **** * File Name: CapSense_AMuxCH0.c
   3:.\Generated_Source\PSoC5/CapSense_AMuxCH0.c **** * Version 3.50
   4:.\Generated_Source\PSoC5/CapSense_AMuxCH0.c **** *
   5:.\Generated_Source\PSoC5/CapSense_AMuxCH0.c **** *  Description:
   6:.\Generated_Source\PSoC5/CapSense_AMuxCH0.c **** *    This file contains all functions required for the analog multiplexer
   7:.\Generated_Source\PSoC5/CapSense_AMuxCH0.c **** *    CapSense_CSD_AMux User Module.
   8:.\Generated_Source\PSoC5/CapSense_AMuxCH0.c **** *
   9:.\Generated_Source\PSoC5/CapSense_AMuxCH0.c **** *   Note:
  10:.\Generated_Source\PSoC5/CapSense_AMuxCH0.c **** *
  11:.\Generated_Source\PSoC5/CapSense_AMuxCH0.c **** *******************************************************************************
  12:.\Generated_Source\PSoC5/CapSense_AMuxCH0.c **** * Copyright 2008-2012, Cypress Semiconductor Corporation.  All rights reserved.
  13:.\Generated_Source\PSoC5/CapSense_AMuxCH0.c **** * You may use this file only in accordance with the license, terms, conditions, 
  14:.\Generated_Source\PSoC5/CapSense_AMuxCH0.c **** * disclaimers, and limitations in the end user license agreement accompanying 
  15:.\Generated_Source\PSoC5/CapSense_AMuxCH0.c **** * the software package with which this file was provided.
  16:.\Generated_Source\PSoC5/CapSense_AMuxCH0.c **** ********************************************************************************/
  17:.\Generated_Source\PSoC5/CapSense_AMuxCH0.c **** 
  18:.\Generated_Source\PSoC5/CapSense_AMuxCH0.c **** #include "CapSense_AMuxCH0.h"
  19:.\Generated_Source\PSoC5/CapSense_AMuxCH0.c **** 
  20:.\Generated_Source\PSoC5/CapSense_AMuxCH0.c **** uint8 CapSense_AMuxCH0_initVar = 0u;
  21:.\Generated_Source\PSoC5/CapSense_AMuxCH0.c **** uint8 CapSense_AMuxCH0_lastChannel = CapSense_AMuxCH0_NULL_CHANNEL;
  22:.\Generated_Source\PSoC5/CapSense_AMuxCH0.c **** 
  23:.\Generated_Source\PSoC5/CapSense_AMuxCH0.c **** 
  24:.\Generated_Source\PSoC5/CapSense_AMuxCH0.c **** /*******************************************************************************
  25:.\Generated_Source\PSoC5/CapSense_AMuxCH0.c **** * Function Name: CapSense_AMuxCH0_Start
  26:.\Generated_Source\PSoC5/CapSense_AMuxCH0.c **** ********************************************************************************
  27:.\Generated_Source\PSoC5/CapSense_AMuxCH0.c **** * Summary:
  28:.\Generated_Source\PSoC5/CapSense_AMuxCH0.c **** *  Disconnect all channels.
  29:.\Generated_Source\PSoC5/CapSense_AMuxCH0.c **** *
  30:.\Generated_Source\PSoC5/CapSense_AMuxCH0.c **** * Parameters:
  31:.\Generated_Source\PSoC5/CapSense_AMuxCH0.c **** *  void
ARM GAS  C:\Users\Xwx47\AppData\Local\Temp\cc1UuzrZ.s 			page 2


  32:.\Generated_Source\PSoC5/CapSense_AMuxCH0.c **** *
  33:.\Generated_Source\PSoC5/CapSense_AMuxCH0.c **** * Return:
  34:.\Generated_Source\PSoC5/CapSense_AMuxCH0.c **** *  void
  35:.\Generated_Source\PSoC5/CapSense_AMuxCH0.c **** *
  36:.\Generated_Source\PSoC5/CapSense_AMuxCH0.c **** *******************************************************************************/
  37:.\Generated_Source\PSoC5/CapSense_AMuxCH0.c **** void CapSense_AMuxCH0_Start(void)
  38:.\Generated_Source\PSoC5/CapSense_AMuxCH0.c **** {
  39:.\Generated_Source\PSoC5/CapSense_AMuxCH0.c ****     CapSense_AMuxCH0_DisconnectAll();
  40:.\Generated_Source\PSoC5/CapSense_AMuxCH0.c ****     CapSense_AMuxCH0_initVar = 1u;
  41:.\Generated_Source\PSoC5/CapSense_AMuxCH0.c **** }
  42:.\Generated_Source\PSoC5/CapSense_AMuxCH0.c **** 
  43:.\Generated_Source\PSoC5/CapSense_AMuxCH0.c **** 
  44:.\Generated_Source\PSoC5/CapSense_AMuxCH0.c **** /*******************************************************************************
  45:.\Generated_Source\PSoC5/CapSense_AMuxCH0.c **** * Function Name: CapSense_AMuxCH0_Init
  46:.\Generated_Source\PSoC5/CapSense_AMuxCH0.c **** ********************************************************************************
  47:.\Generated_Source\PSoC5/CapSense_AMuxCH0.c **** * Summary:
  48:.\Generated_Source\PSoC5/CapSense_AMuxCH0.c **** *  Disconnect all channels.
  49:.\Generated_Source\PSoC5/CapSense_AMuxCH0.c **** *
  50:.\Generated_Source\PSoC5/CapSense_AMuxCH0.c **** * Parameters:
  51:.\Generated_Source\PSoC5/CapSense_AMuxCH0.c **** *  void
  52:.\Generated_Source\PSoC5/CapSense_AMuxCH0.c **** *
  53:.\Generated_Source\PSoC5/CapSense_AMuxCH0.c **** * Return:
  54:.\Generated_Source\PSoC5/CapSense_AMuxCH0.c **** *  void
  55:.\Generated_Source\PSoC5/CapSense_AMuxCH0.c **** *
  56:.\Generated_Source\PSoC5/CapSense_AMuxCH0.c **** *******************************************************************************/
  57:.\Generated_Source\PSoC5/CapSense_AMuxCH0.c **** void CapSense_AMuxCH0_Init(void)
  58:.\Generated_Source\PSoC5/CapSense_AMuxCH0.c **** {
  59:.\Generated_Source\PSoC5/CapSense_AMuxCH0.c ****     CapSense_AMuxCH0_DisconnectAll();
  60:.\Generated_Source\PSoC5/CapSense_AMuxCH0.c **** }
  61:.\Generated_Source\PSoC5/CapSense_AMuxCH0.c **** 
  62:.\Generated_Source\PSoC5/CapSense_AMuxCH0.c **** 
  63:.\Generated_Source\PSoC5/CapSense_AMuxCH0.c **** /*******************************************************************************
  64:.\Generated_Source\PSoC5/CapSense_AMuxCH0.c **** * Function Name: CapSense_AMuxCH0_Stop
  65:.\Generated_Source\PSoC5/CapSense_AMuxCH0.c **** ********************************************************************************
  66:.\Generated_Source\PSoC5/CapSense_AMuxCH0.c **** * Summary:
  67:.\Generated_Source\PSoC5/CapSense_AMuxCH0.c **** *  Disconnect all channels.
  68:.\Generated_Source\PSoC5/CapSense_AMuxCH0.c **** *
  69:.\Generated_Source\PSoC5/CapSense_AMuxCH0.c **** * Parameters:
  70:.\Generated_Source\PSoC5/CapSense_AMuxCH0.c **** *  void
  71:.\Generated_Source\PSoC5/CapSense_AMuxCH0.c **** *
  72:.\Generated_Source\PSoC5/CapSense_AMuxCH0.c **** * Return:
  73:.\Generated_Source\PSoC5/CapSense_AMuxCH0.c **** *  void
  74:.\Generated_Source\PSoC5/CapSense_AMuxCH0.c **** *
  75:.\Generated_Source\PSoC5/CapSense_AMuxCH0.c **** *******************************************************************************/
  76:.\Generated_Source\PSoC5/CapSense_AMuxCH0.c **** void CapSense_AMuxCH0_Stop(void)
  77:.\Generated_Source\PSoC5/CapSense_AMuxCH0.c **** {
  78:.\Generated_Source\PSoC5/CapSense_AMuxCH0.c ****     CapSense_AMuxCH0_DisconnectAll();
  79:.\Generated_Source\PSoC5/CapSense_AMuxCH0.c **** }
  80:.\Generated_Source\PSoC5/CapSense_AMuxCH0.c **** 
  81:.\Generated_Source\PSoC5/CapSense_AMuxCH0.c **** 
  82:.\Generated_Source\PSoC5/CapSense_AMuxCH0.c **** /*******************************************************************************
  83:.\Generated_Source\PSoC5/CapSense_AMuxCH0.c **** * Function Name: CapSense_AMuxCH0_Select
  84:.\Generated_Source\PSoC5/CapSense_AMuxCH0.c **** ********************************************************************************
  85:.\Generated_Source\PSoC5/CapSense_AMuxCH0.c **** * Summary:
  86:.\Generated_Source\PSoC5/CapSense_AMuxCH0.c **** *  This functions first disconnects all channels then connects the given
  87:.\Generated_Source\PSoC5/CapSense_AMuxCH0.c **** *  channel.
  88:.\Generated_Source\PSoC5/CapSense_AMuxCH0.c **** *
ARM GAS  C:\Users\Xwx47\AppData\Local\Temp\cc1UuzrZ.s 			page 3


  89:.\Generated_Source\PSoC5/CapSense_AMuxCH0.c **** * Parameters:
  90:.\Generated_Source\PSoC5/CapSense_AMuxCH0.c **** *  channel:  The channel to connect to the common terminal.
  91:.\Generated_Source\PSoC5/CapSense_AMuxCH0.c **** *
  92:.\Generated_Source\PSoC5/CapSense_AMuxCH0.c **** * Return:
  93:.\Generated_Source\PSoC5/CapSense_AMuxCH0.c **** *  void
  94:.\Generated_Source\PSoC5/CapSense_AMuxCH0.c **** *
  95:.\Generated_Source\PSoC5/CapSense_AMuxCH0.c **** *******************************************************************************/
  96:.\Generated_Source\PSoC5/CapSense_AMuxCH0.c **** void CapSense_AMuxCH0_Select(uint8 channel) CYREENTRANT
  97:.\Generated_Source\PSoC5/CapSense_AMuxCH0.c **** {
  98:.\Generated_Source\PSoC5/CapSense_AMuxCH0.c ****     CapSense_AMuxCH0_DisconnectAll();        /* Disconnect all previous connections */
  99:.\Generated_Source\PSoC5/CapSense_AMuxCH0.c ****     CapSense_AMuxCH0_Connect(channel);       /* Make the given selection */
 100:.\Generated_Source\PSoC5/CapSense_AMuxCH0.c ****     CapSense_AMuxCH0_lastChannel = channel;  /* Update last channel */
 101:.\Generated_Source\PSoC5/CapSense_AMuxCH0.c **** }
 102:.\Generated_Source\PSoC5/CapSense_AMuxCH0.c **** 
 103:.\Generated_Source\PSoC5/CapSense_AMuxCH0.c **** 
 104:.\Generated_Source\PSoC5/CapSense_AMuxCH0.c **** /*******************************************************************************
 105:.\Generated_Source\PSoC5/CapSense_AMuxCH0.c **** * Function Name: CapSense_AMuxCH0_FastSelect
 106:.\Generated_Source\PSoC5/CapSense_AMuxCH0.c **** ********************************************************************************
 107:.\Generated_Source\PSoC5/CapSense_AMuxCH0.c **** * Summary:
 108:.\Generated_Source\PSoC5/CapSense_AMuxCH0.c **** *  This function first disconnects the last connection made with FastSelect or
 109:.\Generated_Source\PSoC5/CapSense_AMuxCH0.c **** *  Select, then connects the given channel. The FastSelect function is similar
 110:.\Generated_Source\PSoC5/CapSense_AMuxCH0.c **** *  to the Select function, except it is faster since it only disconnects the
 111:.\Generated_Source\PSoC5/CapSense_AMuxCH0.c **** *  last channel selected rather than all channels.
 112:.\Generated_Source\PSoC5/CapSense_AMuxCH0.c **** *
 113:.\Generated_Source\PSoC5/CapSense_AMuxCH0.c **** * Parameters:
 114:.\Generated_Source\PSoC5/CapSense_AMuxCH0.c **** *  channel:  The channel to connect to the common terminal.
 115:.\Generated_Source\PSoC5/CapSense_AMuxCH0.c **** *
 116:.\Generated_Source\PSoC5/CapSense_AMuxCH0.c **** * Return:
 117:.\Generated_Source\PSoC5/CapSense_AMuxCH0.c **** *  void
 118:.\Generated_Source\PSoC5/CapSense_AMuxCH0.c **** *
 119:.\Generated_Source\PSoC5/CapSense_AMuxCH0.c **** *******************************************************************************/
 120:.\Generated_Source\PSoC5/CapSense_AMuxCH0.c **** void CapSense_AMuxCH0_FastSelect(uint8 channel) CYREENTRANT
 121:.\Generated_Source\PSoC5/CapSense_AMuxCH0.c **** {
  27              		.loc 1 121 0
  28              		.cfi_startproc
  29              		@ args = 0, pretend = 0, frame = 0
  30              		@ frame_needed = 0, uses_anonymous_args = 0
  31              	.LVL0:
  32 0000 38B5     		push	{r3, r4, r5, lr}
  33              		.cfi_def_cfa_offset 16
  34              		.cfi_offset 3, -16
  35              		.cfi_offset 4, -12
  36              		.cfi_offset 5, -8
  37              		.cfi_offset 14, -4
 122:.\Generated_Source\PSoC5/CapSense_AMuxCH0.c ****     /* Disconnect the last valid channel */
 123:.\Generated_Source\PSoC5/CapSense_AMuxCH0.c ****     if( CapSense_AMuxCH0_lastChannel != CapSense_AMuxCH0_NULL_CHANNEL)   /* Update last channel */
  38              		.loc 1 123 0
  39 0002 064B     		ldr	r3, .L7
 121:.\Generated_Source\PSoC5/CapSense_AMuxCH0.c **** {
  40              		.loc 1 121 0
  41 0004 0446     		mov	r4, r0
  42              		.loc 1 123 0
  43 0006 1878     		ldrb	r0, [r3]	@ zero_extendqisi2
  44              	.LVL1:
  45 0008 1D46     		mov	r5, r3
  46 000a FF28     		cmp	r0, #255
  47 000c 01D0     		beq	.L2
ARM GAS  C:\Users\Xwx47\AppData\Local\Temp\cc1UuzrZ.s 			page 4


 124:.\Generated_Source\PSoC5/CapSense_AMuxCH0.c ****     {
 125:.\Generated_Source\PSoC5/CapSense_AMuxCH0.c ****         CapSense_AMuxCH0_Disconnect(CapSense_AMuxCH0_lastChannel);
  48              		.loc 1 125 0
  49 000e FFF7FEFF 		bl	CapSense_AMuxCH0_Unset
  50              	.LVL2:
  51              	.L2:
 126:.\Generated_Source\PSoC5/CapSense_AMuxCH0.c ****     }
 127:.\Generated_Source\PSoC5/CapSense_AMuxCH0.c **** 
 128:.\Generated_Source\PSoC5/CapSense_AMuxCH0.c ****     /* Make the new channel connection */
 129:.\Generated_Source\PSoC5/CapSense_AMuxCH0.c ****     CapSense_AMuxCH0_Connect(channel);
  52              		.loc 1 129 0
  53 0012 2046     		mov	r0, r4
  54 0014 FFF7FEFF 		bl	CapSense_AMuxCH0_Set
  55              	.LVL3:
 130:.\Generated_Source\PSoC5/CapSense_AMuxCH0.c ****     CapSense_AMuxCH0_lastChannel = channel;   /* Update last channel */
  56              		.loc 1 130 0
  57 0018 2C70     		strb	r4, [r5]
  58 001a 38BD     		pop	{r3, r4, r5, pc}
  59              	.L8:
  60              		.align	2
  61              	.L7:
  62 001c 00000000 		.word	.LANCHOR0
  63              		.cfi_endproc
  64              	.LFE4:
  65              		.size	CapSense_AMuxCH0_FastSelect, .-CapSense_AMuxCH0_FastSelect
  66              		.section	.text.CapSense_AMuxCH0_DisconnectAll,"ax",%progbits
  67              		.align	1
  68              		.global	CapSense_AMuxCH0_DisconnectAll
  69              		.thumb
  70              		.thumb_func
  71              		.type	CapSense_AMuxCH0_DisconnectAll, %function
  72              	CapSense_AMuxCH0_DisconnectAll:
  73              	.LFB5:
 131:.\Generated_Source\PSoC5/CapSense_AMuxCH0.c **** }
 132:.\Generated_Source\PSoC5/CapSense_AMuxCH0.c **** 
 133:.\Generated_Source\PSoC5/CapSense_AMuxCH0.c **** 
 134:.\Generated_Source\PSoC5/CapSense_AMuxCH0.c **** #if(CapSense_AMuxCH0_MUXTYPE == CapSense_AMuxCH0_MUX_DIFF)
 135:.\Generated_Source\PSoC5/CapSense_AMuxCH0.c ****     /*******************************************************************************
 136:.\Generated_Source\PSoC5/CapSense_AMuxCH0.c ****     * Function Name: CapSense_AMuxCH0_Connect
 137:.\Generated_Source\PSoC5/CapSense_AMuxCH0.c ****     ********************************************************************************
 138:.\Generated_Source\PSoC5/CapSense_AMuxCH0.c ****     * Summary:
 139:.\Generated_Source\PSoC5/CapSense_AMuxCH0.c ****     *  This function connects the given channel without affecting other connections.
 140:.\Generated_Source\PSoC5/CapSense_AMuxCH0.c ****     *
 141:.\Generated_Source\PSoC5/CapSense_AMuxCH0.c ****     * Parameters:
 142:.\Generated_Source\PSoC5/CapSense_AMuxCH0.c ****     *  channel:  The channel to connect to the common terminal.
 143:.\Generated_Source\PSoC5/CapSense_AMuxCH0.c ****     *
 144:.\Generated_Source\PSoC5/CapSense_AMuxCH0.c ****     * Return:
 145:.\Generated_Source\PSoC5/CapSense_AMuxCH0.c ****     *  void
 146:.\Generated_Source\PSoC5/CapSense_AMuxCH0.c ****     *
 147:.\Generated_Source\PSoC5/CapSense_AMuxCH0.c ****     *******************************************************************************/
 148:.\Generated_Source\PSoC5/CapSense_AMuxCH0.c ****     void CapSense_AMuxCH0_Connect(uint8 channel) CYREENTRANT
 149:.\Generated_Source\PSoC5/CapSense_AMuxCH0.c ****     {
 150:.\Generated_Source\PSoC5/CapSense_AMuxCH0.c ****         CapSense_AMuxCH0_CYAMUXSIDE_A_Set(channel);
 151:.\Generated_Source\PSoC5/CapSense_AMuxCH0.c ****         CapSense_AMuxCH0_CYAMUXSIDE_B_Set(channel);
 152:.\Generated_Source\PSoC5/CapSense_AMuxCH0.c ****     }
 153:.\Generated_Source\PSoC5/CapSense_AMuxCH0.c ****     
 154:.\Generated_Source\PSoC5/CapSense_AMuxCH0.c ****     
ARM GAS  C:\Users\Xwx47\AppData\Local\Temp\cc1UuzrZ.s 			page 5


 155:.\Generated_Source\PSoC5/CapSense_AMuxCH0.c ****     /*******************************************************************************
 156:.\Generated_Source\PSoC5/CapSense_AMuxCH0.c ****     * Function Name: CapSense_AMuxCH0_Disconnect
 157:.\Generated_Source\PSoC5/CapSense_AMuxCH0.c ****     ********************************************************************************
 158:.\Generated_Source\PSoC5/CapSense_AMuxCH0.c ****     * Summary:
 159:.\Generated_Source\PSoC5/CapSense_AMuxCH0.c ****     *  This function disconnects the given channel from the common or output
 160:.\Generated_Source\PSoC5/CapSense_AMuxCH0.c ****     *  terminal without affecting other connections.
 161:.\Generated_Source\PSoC5/CapSense_AMuxCH0.c ****     *
 162:.\Generated_Source\PSoC5/CapSense_AMuxCH0.c ****     * Parameters:
 163:.\Generated_Source\PSoC5/CapSense_AMuxCH0.c ****     *  channel:  The channel to disconnect from the common terminal.
 164:.\Generated_Source\PSoC5/CapSense_AMuxCH0.c ****     *
 165:.\Generated_Source\PSoC5/CapSense_AMuxCH0.c ****     * Return:
 166:.\Generated_Source\PSoC5/CapSense_AMuxCH0.c ****     *  void
 167:.\Generated_Source\PSoC5/CapSense_AMuxCH0.c ****     *
 168:.\Generated_Source\PSoC5/CapSense_AMuxCH0.c ****     *******************************************************************************/
 169:.\Generated_Source\PSoC5/CapSense_AMuxCH0.c ****     void CapSense_AMuxCH0_Disconnect(uint8 channel) CYREENTRANT
 170:.\Generated_Source\PSoC5/CapSense_AMuxCH0.c ****     {
 171:.\Generated_Source\PSoC5/CapSense_AMuxCH0.c ****         CapSense_AMuxCH0_CYAMUXSIDE_A_Unset(channel);
 172:.\Generated_Source\PSoC5/CapSense_AMuxCH0.c ****         CapSense_AMuxCH0_CYAMUXSIDE_B_Unset(channel);
 173:.\Generated_Source\PSoC5/CapSense_AMuxCH0.c ****     }
 174:.\Generated_Source\PSoC5/CapSense_AMuxCH0.c ****     
 175:.\Generated_Source\PSoC5/CapSense_AMuxCH0.c **** #endif  /* End (CapSense_AMuxCH0_MUXTYPE == CapSense_AMuxCH0_MUX_DIFF) */
 176:.\Generated_Source\PSoC5/CapSense_AMuxCH0.c **** 
 177:.\Generated_Source\PSoC5/CapSense_AMuxCH0.c **** 
 178:.\Generated_Source\PSoC5/CapSense_AMuxCH0.c **** /*******************************************************************************
 179:.\Generated_Source\PSoC5/CapSense_AMuxCH0.c **** * Function Name: CapSense_AMuxCH0_DisconnectAll
 180:.\Generated_Source\PSoC5/CapSense_AMuxCH0.c **** ********************************************************************************
 181:.\Generated_Source\PSoC5/CapSense_AMuxCH0.c **** * Summary:
 182:.\Generated_Source\PSoC5/CapSense_AMuxCH0.c **** *  This function disconnects all channels.
 183:.\Generated_Source\PSoC5/CapSense_AMuxCH0.c **** *
 184:.\Generated_Source\PSoC5/CapSense_AMuxCH0.c **** * Parameters:
 185:.\Generated_Source\PSoC5/CapSense_AMuxCH0.c **** *  void
 186:.\Generated_Source\PSoC5/CapSense_AMuxCH0.c **** *
 187:.\Generated_Source\PSoC5/CapSense_AMuxCH0.c **** * Return:
 188:.\Generated_Source\PSoC5/CapSense_AMuxCH0.c **** *  void
 189:.\Generated_Source\PSoC5/CapSense_AMuxCH0.c **** *
 190:.\Generated_Source\PSoC5/CapSense_AMuxCH0.c **** *******************************************************************************/
 191:.\Generated_Source\PSoC5/CapSense_AMuxCH0.c **** void CapSense_AMuxCH0_DisconnectAll(void) CYREENTRANT
 192:.\Generated_Source\PSoC5/CapSense_AMuxCH0.c **** {
  74              		.loc 1 192 0
  75              		.cfi_startproc
  76              		@ args = 0, pretend = 0, frame = 0
  77              		@ frame_needed = 0, uses_anonymous_args = 0
  78              	.LVL4:
  79 0000 10B5     		push	{r4, lr}
  80              		.cfi_def_cfa_offset 8
  81              		.cfi_offset 4, -8
  82              		.cfi_offset 14, -4
  83              		.loc 1 192 0
  84 0002 0024     		movs	r4, #0
  85              	.LVL5:
  86              	.L11:
 193:.\Generated_Source\PSoC5/CapSense_AMuxCH0.c ****     uint8 chan;
 194:.\Generated_Source\PSoC5/CapSense_AMuxCH0.c **** 
 195:.\Generated_Source\PSoC5/CapSense_AMuxCH0.c ****     #if(CapSense_AMuxCH0_MUXTYPE == CapSense_AMuxCH0_MUX_SINGLE)
 196:.\Generated_Source\PSoC5/CapSense_AMuxCH0.c ****         for(chan = 0; chan < CapSense_AMuxCH0_CHANNELS ; chan++)
 197:.\Generated_Source\PSoC5/CapSense_AMuxCH0.c ****         {
 198:.\Generated_Source\PSoC5/CapSense_AMuxCH0.c ****             CapSense_AMuxCH0_Unset(chan);
ARM GAS  C:\Users\Xwx47\AppData\Local\Temp\cc1UuzrZ.s 			page 6


  87              		.loc 1 198 0 discriminator 2
  88 0004 E0B2     		uxtb	r0, r4
  89 0006 0134     		adds	r4, r4, #1
  90              	.LVL6:
  91 0008 FFF7FEFF 		bl	CapSense_AMuxCH0_Unset
  92              	.LVL7:
 196:.\Generated_Source\PSoC5/CapSense_AMuxCH0.c ****         for(chan = 0; chan < CapSense_AMuxCH0_CHANNELS ; chan++)
  93              		.loc 1 196 0 discriminator 2
  94 000c 062C     		cmp	r4, #6
  95 000e F9D1     		bne	.L11
 199:.\Generated_Source\PSoC5/CapSense_AMuxCH0.c ****         }
 200:.\Generated_Source\PSoC5/CapSense_AMuxCH0.c ****     #else
 201:.\Generated_Source\PSoC5/CapSense_AMuxCH0.c ****         for(chan = 0; chan < CapSense_AMuxCH0_CHANNELS ; chan++)
 202:.\Generated_Source\PSoC5/CapSense_AMuxCH0.c ****         {
 203:.\Generated_Source\PSoC5/CapSense_AMuxCH0.c ****             CapSense_AMuxCH0_CYAMUXSIDE_A_Unset(chan);
 204:.\Generated_Source\PSoC5/CapSense_AMuxCH0.c ****             CapSense_AMuxCH0_CYAMUXSIDE_B_Unset(chan);
 205:.\Generated_Source\PSoC5/CapSense_AMuxCH0.c ****         }
 206:.\Generated_Source\PSoC5/CapSense_AMuxCH0.c ****     #endif  /* End (CapSense_AMuxCH0_MUXTYPE == CapSense_AMuxCH0_MUX_SINGLE) */
 207:.\Generated_Source\PSoC5/CapSense_AMuxCH0.c **** }
  96              		.loc 1 207 0
  97 0010 10BD     		pop	{r4, pc}
  98              		.cfi_endproc
  99              	.LFE5:
 100              		.size	CapSense_AMuxCH0_DisconnectAll, .-CapSense_AMuxCH0_DisconnectAll
 101              		.section	.text.CapSense_AMuxCH0_Start,"ax",%progbits
 102              		.align	1
 103              		.global	CapSense_AMuxCH0_Start
 104              		.thumb
 105              		.thumb_func
 106              		.type	CapSense_AMuxCH0_Start, %function
 107              	CapSense_AMuxCH0_Start:
 108              	.LFB0:
  38:.\Generated_Source\PSoC5/CapSense_AMuxCH0.c **** {
 109              		.loc 1 38 0
 110              		.cfi_startproc
 111              		@ args = 0, pretend = 0, frame = 0
 112              		@ frame_needed = 0, uses_anonymous_args = 0
 113 0000 08B5     		push	{r3, lr}
 114              		.cfi_def_cfa_offset 8
 115              		.cfi_offset 3, -8
 116              		.cfi_offset 14, -4
  39:.\Generated_Source\PSoC5/CapSense_AMuxCH0.c ****     CapSense_AMuxCH0_DisconnectAll();
 117              		.loc 1 39 0
 118 0002 FFF7FEFF 		bl	CapSense_AMuxCH0_DisconnectAll
 119              	.LVL8:
  40:.\Generated_Source\PSoC5/CapSense_AMuxCH0.c ****     CapSense_AMuxCH0_initVar = 1u;
 120              		.loc 1 40 0
 121 0006 024B     		ldr	r3, .L13
 122 0008 0122     		movs	r2, #1
 123 000a 1A70     		strb	r2, [r3]
 124 000c 08BD     		pop	{r3, pc}
 125              	.L14:
 126 000e 00BF     		.align	2
 127              	.L13:
 128 0010 00000000 		.word	.LANCHOR1
 129              		.cfi_endproc
 130              	.LFE0:
ARM GAS  C:\Users\Xwx47\AppData\Local\Temp\cc1UuzrZ.s 			page 7


 131              		.size	CapSense_AMuxCH0_Start, .-CapSense_AMuxCH0_Start
 132              		.section	.text.CapSense_AMuxCH0_Init,"ax",%progbits
 133              		.align	1
 134              		.global	CapSense_AMuxCH0_Init
 135              		.thumb
 136              		.thumb_func
 137              		.type	CapSense_AMuxCH0_Init, %function
 138              	CapSense_AMuxCH0_Init:
 139              	.LFB1:
  58:.\Generated_Source\PSoC5/CapSense_AMuxCH0.c **** {
 140              		.loc 1 58 0
 141              		.cfi_startproc
 142              		@ args = 0, pretend = 0, frame = 0
 143              		@ frame_needed = 0, uses_anonymous_args = 0
 144              		@ link register save eliminated.
  59:.\Generated_Source\PSoC5/CapSense_AMuxCH0.c ****     CapSense_AMuxCH0_DisconnectAll();
 145              		.loc 1 59 0
 146 0000 FFF7FEBF 		b	CapSense_AMuxCH0_DisconnectAll
 147              	.LVL9:
 148              		.cfi_endproc
 149              	.LFE1:
 150              		.size	CapSense_AMuxCH0_Init, .-CapSense_AMuxCH0_Init
 151              		.section	.text.CapSense_AMuxCH0_Stop,"ax",%progbits
 152              		.align	1
 153              		.global	CapSense_AMuxCH0_Stop
 154              		.thumb
 155              		.thumb_func
 156              		.type	CapSense_AMuxCH0_Stop, %function
 157              	CapSense_AMuxCH0_Stop:
 158              	.LFB2:
  77:.\Generated_Source\PSoC5/CapSense_AMuxCH0.c **** {
 159              		.loc 1 77 0
 160              		.cfi_startproc
 161              		@ args = 0, pretend = 0, frame = 0
 162              		@ frame_needed = 0, uses_anonymous_args = 0
 163              		@ link register save eliminated.
  78:.\Generated_Source\PSoC5/CapSense_AMuxCH0.c ****     CapSense_AMuxCH0_DisconnectAll();
 164              		.loc 1 78 0
 165 0000 FFF7FEBF 		b	CapSense_AMuxCH0_DisconnectAll
 166              	.LVL10:
 167              		.cfi_endproc
 168              	.LFE2:
 169              		.size	CapSense_AMuxCH0_Stop, .-CapSense_AMuxCH0_Stop
 170              		.section	.text.CapSense_AMuxCH0_Select,"ax",%progbits
 171              		.align	1
 172              		.global	CapSense_AMuxCH0_Select
 173              		.thumb
 174              		.thumb_func
 175              		.type	CapSense_AMuxCH0_Select, %function
 176              	CapSense_AMuxCH0_Select:
 177              	.LFB3:
  97:.\Generated_Source\PSoC5/CapSense_AMuxCH0.c **** {
 178              		.loc 1 97 0
 179              		.cfi_startproc
 180              		@ args = 0, pretend = 0, frame = 0
 181              		@ frame_needed = 0, uses_anonymous_args = 0
 182              	.LVL11:
ARM GAS  C:\Users\Xwx47\AppData\Local\Temp\cc1UuzrZ.s 			page 8


 183 0000 10B5     		push	{r4, lr}
 184              		.cfi_def_cfa_offset 8
 185              		.cfi_offset 4, -8
 186              		.cfi_offset 14, -4
  97:.\Generated_Source\PSoC5/CapSense_AMuxCH0.c **** {
 187              		.loc 1 97 0
 188 0002 0446     		mov	r4, r0
  98:.\Generated_Source\PSoC5/CapSense_AMuxCH0.c ****     CapSense_AMuxCH0_DisconnectAll();        /* Disconnect all previous connections */
 189              		.loc 1 98 0
 190 0004 FFF7FEFF 		bl	CapSense_AMuxCH0_DisconnectAll
 191              	.LVL12:
  99:.\Generated_Source\PSoC5/CapSense_AMuxCH0.c ****     CapSense_AMuxCH0_Connect(channel);       /* Make the given selection */
 192              		.loc 1 99 0
 193 0008 2046     		mov	r0, r4
 194 000a FFF7FEFF 		bl	CapSense_AMuxCH0_Set
 195              	.LVL13:
 100:.\Generated_Source\PSoC5/CapSense_AMuxCH0.c ****     CapSense_AMuxCH0_lastChannel = channel;  /* Update last channel */
 196              		.loc 1 100 0
 197 000e 014B     		ldr	r3, .L18
 198 0010 1C70     		strb	r4, [r3]
 199 0012 10BD     		pop	{r4, pc}
 200              	.L19:
 201              		.align	2
 202              	.L18:
 203 0014 00000000 		.word	.LANCHOR0
 204              		.cfi_endproc
 205              	.LFE3:
 206              		.size	CapSense_AMuxCH0_Select, .-CapSense_AMuxCH0_Select
 207              		.global	CapSense_AMuxCH0_lastChannel
 208              		.global	CapSense_AMuxCH0_initVar
 209              		.data
 210              		.set	.LANCHOR0,. + 0
 211              		.type	CapSense_AMuxCH0_lastChannel, %object
 212              		.size	CapSense_AMuxCH0_lastChannel, 1
 213              	CapSense_AMuxCH0_lastChannel:
 214 0000 FF       		.byte	-1
 215              		.bss
 216              		.set	.LANCHOR1,. + 0
 217              		.type	CapSense_AMuxCH0_initVar, %object
 218              		.size	CapSense_AMuxCH0_initVar, 1
 219              	CapSense_AMuxCH0_initVar:
 220 0000 00       		.space	1
 221              		.text
 222              	.Letext0:
 223              		.file 2 ".\\Generated_Source\\PSoC5\\cytypes.h"
 224              		.file 3 ".\\Generated_Source\\PSoC5\\cyfitter_cfg.h"