ARM GAS  C:\Users\Xwx47\AppData\Local\Temp\ccRhLo1o.s 			page 1


   1              		.syntax unified
   2              		.cpu cortex-m3
   3              		.fpu softvfp
   4              		.eabi_attribute 20, 1
   5              		.eabi_attribute 21, 1
   6              		.eabi_attribute 23, 3
   7              		.eabi_attribute 24, 1
   8              		.eabi_attribute 25, 1
   9              		.eabi_attribute 26, 1
  10              		.eabi_attribute 30, 4
  11              		.eabi_attribute 34, 1
  12              		.eabi_attribute 18, 4
  13              		.thumb
  14              		.file	"CapSense_CompCH0_PM.c"
  15              		.text
  16              	.Ltext0:
  17              		.cfi_sections	.debug_frame
  18              		.section	.text.CapSense_CompCH0_SaveConfig,"ax",%progbits
  19              		.align	1
  20              		.global	CapSense_CompCH0_SaveConfig
  21              		.thumb
  22              		.thumb_func
  23              		.type	CapSense_CompCH0_SaveConfig, %function
  24              	CapSense_CompCH0_SaveConfig:
  25              	.LFB0:
  26              		.file 1 ".\\Generated_Source\\PSoC5\\CapSense_CompCH0_PM.c"
   1:.\Generated_Source\PSoC5/CapSense_CompCH0_PM.c **** /*******************************************************************************
   2:.\Generated_Source\PSoC5/CapSense_CompCH0_PM.c **** * File Name: CapSense_CompCH0.c
   3:.\Generated_Source\PSoC5/CapSense_CompCH0_PM.c **** * Version 2.0
   4:.\Generated_Source\PSoC5/CapSense_CompCH0_PM.c **** *
   5:.\Generated_Source\PSoC5/CapSense_CompCH0_PM.c **** * Description:
   6:.\Generated_Source\PSoC5/CapSense_CompCH0_PM.c **** *  This file provides the power management source code APIs for the
   7:.\Generated_Source\PSoC5/CapSense_CompCH0_PM.c **** *  Comparator.
   8:.\Generated_Source\PSoC5/CapSense_CompCH0_PM.c **** *
   9:.\Generated_Source\PSoC5/CapSense_CompCH0_PM.c **** * Note:
  10:.\Generated_Source\PSoC5/CapSense_CompCH0_PM.c **** *  None
  11:.\Generated_Source\PSoC5/CapSense_CompCH0_PM.c **** *
  12:.\Generated_Source\PSoC5/CapSense_CompCH0_PM.c **** ********************************************************************************
  13:.\Generated_Source\PSoC5/CapSense_CompCH0_PM.c **** * Copyright 2008-2012, Cypress Semiconductor Corporation.  All rights reserved.
  14:.\Generated_Source\PSoC5/CapSense_CompCH0_PM.c **** * You may use this file only in accordance with the license, terms, conditions, 
  15:.\Generated_Source\PSoC5/CapSense_CompCH0_PM.c **** * disclaimers, and limitations in the end user license agreement accompanying 
  16:.\Generated_Source\PSoC5/CapSense_CompCH0_PM.c **** * the software package with which this file was provided.
  17:.\Generated_Source\PSoC5/CapSense_CompCH0_PM.c **** *******************************************************************************/
  18:.\Generated_Source\PSoC5/CapSense_CompCH0_PM.c **** 
  19:.\Generated_Source\PSoC5/CapSense_CompCH0_PM.c **** #include "CapSense_CompCH0.h"
  20:.\Generated_Source\PSoC5/CapSense_CompCH0_PM.c **** 
  21:.\Generated_Source\PSoC5/CapSense_CompCH0_PM.c **** static CapSense_CompCH0_backupStruct CapSense_CompCH0_backup;
  22:.\Generated_Source\PSoC5/CapSense_CompCH0_PM.c **** 
  23:.\Generated_Source\PSoC5/CapSense_CompCH0_PM.c **** 
  24:.\Generated_Source\PSoC5/CapSense_CompCH0_PM.c **** /*******************************************************************************
  25:.\Generated_Source\PSoC5/CapSense_CompCH0_PM.c **** * Function Name: CapSense_CompCH0_SaveConfig
  26:.\Generated_Source\PSoC5/CapSense_CompCH0_PM.c **** ********************************************************************************
  27:.\Generated_Source\PSoC5/CapSense_CompCH0_PM.c **** *
  28:.\Generated_Source\PSoC5/CapSense_CompCH0_PM.c **** * Summary:
  29:.\Generated_Source\PSoC5/CapSense_CompCH0_PM.c **** *  Save the current user configuration
  30:.\Generated_Source\PSoC5/CapSense_CompCH0_PM.c **** *
  31:.\Generated_Source\PSoC5/CapSense_CompCH0_PM.c **** * Parameters:
ARM GAS  C:\Users\Xwx47\AppData\Local\Temp\ccRhLo1o.s 			page 2


  32:.\Generated_Source\PSoC5/CapSense_CompCH0_PM.c **** *  void:
  33:.\Generated_Source\PSoC5/CapSense_CompCH0_PM.c **** *
  34:.\Generated_Source\PSoC5/CapSense_CompCH0_PM.c **** * Return:
  35:.\Generated_Source\PSoC5/CapSense_CompCH0_PM.c **** *  void
  36:.\Generated_Source\PSoC5/CapSense_CompCH0_PM.c **** *
  37:.\Generated_Source\PSoC5/CapSense_CompCH0_PM.c **** *******************************************************************************/
  38:.\Generated_Source\PSoC5/CapSense_CompCH0_PM.c **** void CapSense_CompCH0_SaveConfig(void) 
  39:.\Generated_Source\PSoC5/CapSense_CompCH0_PM.c **** {
  27              		.loc 1 39 0
  28              		.cfi_startproc
  29              		@ args = 0, pretend = 0, frame = 0
  30              		@ frame_needed = 0, uses_anonymous_args = 0
  31              		@ link register save eliminated.
  32 0000 7047     		bx	lr
  33              		.cfi_endproc
  34              	.LFE0:
  35              		.size	CapSense_CompCH0_SaveConfig, .-CapSense_CompCH0_SaveConfig
  36              		.section	.text.CapSense_CompCH0_RestoreConfig,"ax",%progbits
  37              		.align	1
  38              		.global	CapSense_CompCH0_RestoreConfig
  39              		.thumb
  40              		.thumb_func
  41              		.type	CapSense_CompCH0_RestoreConfig, %function
  42              	CapSense_CompCH0_RestoreConfig:
  43              	.LFB1:
  40:.\Generated_Source\PSoC5/CapSense_CompCH0_PM.c ****     /* Empty since all are system reset for retention flops */
  41:.\Generated_Source\PSoC5/CapSense_CompCH0_PM.c **** }
  42:.\Generated_Source\PSoC5/CapSense_CompCH0_PM.c **** 
  43:.\Generated_Source\PSoC5/CapSense_CompCH0_PM.c **** 
  44:.\Generated_Source\PSoC5/CapSense_CompCH0_PM.c **** /*******************************************************************************
  45:.\Generated_Source\PSoC5/CapSense_CompCH0_PM.c **** * Function Name: CapSense_CompCH0_RestoreConfig
  46:.\Generated_Source\PSoC5/CapSense_CompCH0_PM.c **** ********************************************************************************
  47:.\Generated_Source\PSoC5/CapSense_CompCH0_PM.c **** *
  48:.\Generated_Source\PSoC5/CapSense_CompCH0_PM.c **** * Summary:
  49:.\Generated_Source\PSoC5/CapSense_CompCH0_PM.c **** *  Restores the current user configuration.
  50:.\Generated_Source\PSoC5/CapSense_CompCH0_PM.c **** *
  51:.\Generated_Source\PSoC5/CapSense_CompCH0_PM.c **** * Parameters:
  52:.\Generated_Source\PSoC5/CapSense_CompCH0_PM.c **** *  void
  53:.\Generated_Source\PSoC5/CapSense_CompCH0_PM.c **** *
  54:.\Generated_Source\PSoC5/CapSense_CompCH0_PM.c **** * Return:
  55:.\Generated_Source\PSoC5/CapSense_CompCH0_PM.c **** *  void
  56:.\Generated_Source\PSoC5/CapSense_CompCH0_PM.c **** *
  57:.\Generated_Source\PSoC5/CapSense_CompCH0_PM.c **** ********************************************************************************/
  58:.\Generated_Source\PSoC5/CapSense_CompCH0_PM.c **** void CapSense_CompCH0_RestoreConfig(void) 
  59:.\Generated_Source\PSoC5/CapSense_CompCH0_PM.c **** {
  44              		.loc 1 59 0
  45              		.cfi_startproc
  46              		@ args = 0, pretend = 0, frame = 0
  47              		@ frame_needed = 0, uses_anonymous_args = 0
  48              		@ link register save eliminated.
  49 0000 7047     		bx	lr
  50              		.cfi_endproc
  51              	.LFE1:
  52              		.size	CapSense_CompCH0_RestoreConfig, .-CapSense_CompCH0_RestoreConfig
  53              		.section	.text.CapSense_CompCH0_Sleep,"ax",%progbits
  54              		.align	1
  55              		.global	CapSense_CompCH0_Sleep
ARM GAS  C:\Users\Xwx47\AppData\Local\Temp\ccRhLo1o.s 			page 3


  56              		.thumb
  57              		.thumb_func
  58              		.type	CapSense_CompCH0_Sleep, %function
  59              	CapSense_CompCH0_Sleep:
  60              	.LFB2:
  60:.\Generated_Source\PSoC5/CapSense_CompCH0_PM.c ****     /* Empty since all are system reset for retention flops */    
  61:.\Generated_Source\PSoC5/CapSense_CompCH0_PM.c **** }
  62:.\Generated_Source\PSoC5/CapSense_CompCH0_PM.c **** 
  63:.\Generated_Source\PSoC5/CapSense_CompCH0_PM.c **** 
  64:.\Generated_Source\PSoC5/CapSense_CompCH0_PM.c **** /*******************************************************************************
  65:.\Generated_Source\PSoC5/CapSense_CompCH0_PM.c **** * Function Name: CapSense_CompCH0_Sleep
  66:.\Generated_Source\PSoC5/CapSense_CompCH0_PM.c **** ********************************************************************************
  67:.\Generated_Source\PSoC5/CapSense_CompCH0_PM.c **** *
  68:.\Generated_Source\PSoC5/CapSense_CompCH0_PM.c **** * Summary:
  69:.\Generated_Source\PSoC5/CapSense_CompCH0_PM.c **** *  Stop and Save the user configuration
  70:.\Generated_Source\PSoC5/CapSense_CompCH0_PM.c **** *
  71:.\Generated_Source\PSoC5/CapSense_CompCH0_PM.c **** * Parameters:
  72:.\Generated_Source\PSoC5/CapSense_CompCH0_PM.c **** *  void:
  73:.\Generated_Source\PSoC5/CapSense_CompCH0_PM.c **** *
  74:.\Generated_Source\PSoC5/CapSense_CompCH0_PM.c **** * Return:
  75:.\Generated_Source\PSoC5/CapSense_CompCH0_PM.c **** *  void
  76:.\Generated_Source\PSoC5/CapSense_CompCH0_PM.c **** *
  77:.\Generated_Source\PSoC5/CapSense_CompCH0_PM.c **** * Global variables:
  78:.\Generated_Source\PSoC5/CapSense_CompCH0_PM.c **** *  CapSense_CompCH0_backup.enableState:  Is modified depending on the enable 
  79:.\Generated_Source\PSoC5/CapSense_CompCH0_PM.c **** *   state of the block before entering sleep mode.
  80:.\Generated_Source\PSoC5/CapSense_CompCH0_PM.c **** *
  81:.\Generated_Source\PSoC5/CapSense_CompCH0_PM.c **** *******************************************************************************/
  82:.\Generated_Source\PSoC5/CapSense_CompCH0_PM.c **** void CapSense_CompCH0_Sleep(void) 
  83:.\Generated_Source\PSoC5/CapSense_CompCH0_PM.c **** {
  61              		.loc 1 83 0
  62              		.cfi_startproc
  63              		@ args = 0, pretend = 0, frame = 0
  64              		@ frame_needed = 0, uses_anonymous_args = 0
  65              		@ link register save eliminated.
  84:.\Generated_Source\PSoC5/CapSense_CompCH0_PM.c ****     /* Save Comp's enable state */    
  85:.\Generated_Source\PSoC5/CapSense_CompCH0_PM.c ****     if(CapSense_CompCH0_ACT_PWR_EN == (CapSense_CompCH0_PWRMGR & CapSense_CompCH0_ACT_PWR_EN))
  66              		.loc 1 85 0
  67 0000 064B     		ldr	r3, .L7
  68 0002 1A78     		ldrb	r2, [r3]	@ zero_extendqisi2
  69 0004 064B     		ldr	r3, .L7+4
  70 0006 02F00202 		and	r2, r2, #2
  71 000a 02F0FF01 		and	r1, r2, #255
  72 000e 12B1     		cbz	r2, .L4
  86:.\Generated_Source\PSoC5/CapSense_CompCH0_PM.c ****     {
  87:.\Generated_Source\PSoC5/CapSense_CompCH0_PM.c ****         /* Comp is enabled */
  88:.\Generated_Source\PSoC5/CapSense_CompCH0_PM.c ****         CapSense_CompCH0_backup.enableState = 1u;
  73              		.loc 1 88 0
  74 0010 0122     		movs	r2, #1
  75 0012 1A70     		strb	r2, [r3]
  76 0014 00E0     		b	.L5
  77              	.L4:
  89:.\Generated_Source\PSoC5/CapSense_CompCH0_PM.c ****     }
  90:.\Generated_Source\PSoC5/CapSense_CompCH0_PM.c ****     else
  91:.\Generated_Source\PSoC5/CapSense_CompCH0_PM.c ****     {
  92:.\Generated_Source\PSoC5/CapSense_CompCH0_PM.c ****         /* Comp is disabled */
  93:.\Generated_Source\PSoC5/CapSense_CompCH0_PM.c ****         CapSense_CompCH0_backup.enableState = 0u;
  78              		.loc 1 93 0
ARM GAS  C:\Users\Xwx47\AppData\Local\Temp\ccRhLo1o.s 			page 4


  79 0016 1970     		strb	r1, [r3]
  80              	.L5:
  94:.\Generated_Source\PSoC5/CapSense_CompCH0_PM.c ****     }    
  95:.\Generated_Source\PSoC5/CapSense_CompCH0_PM.c ****     
  96:.\Generated_Source\PSoC5/CapSense_CompCH0_PM.c ****     CapSense_CompCH0_Stop();
  81              		.loc 1 96 0
  82 0018 FFF7FEBF 		b	CapSense_CompCH0_Stop
  83              	.LVL0:
  84              	.L8:
  85              		.align	2
  86              	.L7:
  87 001c A7430040 		.word	1073759143
  88 0020 00000000 		.word	.LANCHOR0
  89              		.cfi_endproc
  90              	.LFE2:
  91              		.size	CapSense_CompCH0_Sleep, .-CapSense_CompCH0_Sleep
  92              		.section	.text.CapSense_CompCH0_Wakeup,"ax",%progbits
  93              		.align	1
  94              		.global	CapSense_CompCH0_Wakeup
  95              		.thumb
  96              		.thumb_func
  97              		.type	CapSense_CompCH0_Wakeup, %function
  98              	CapSense_CompCH0_Wakeup:
  99              	.LFB3:
  97:.\Generated_Source\PSoC5/CapSense_CompCH0_PM.c ****     CapSense_CompCH0_SaveConfig();
  98:.\Generated_Source\PSoC5/CapSense_CompCH0_PM.c **** }
  99:.\Generated_Source\PSoC5/CapSense_CompCH0_PM.c **** 
 100:.\Generated_Source\PSoC5/CapSense_CompCH0_PM.c **** 
 101:.\Generated_Source\PSoC5/CapSense_CompCH0_PM.c **** /*******************************************************************************
 102:.\Generated_Source\PSoC5/CapSense_CompCH0_PM.c **** * Function Name: CapSense_CompCH0_Wakeup
 103:.\Generated_Source\PSoC5/CapSense_CompCH0_PM.c **** ********************************************************************************
 104:.\Generated_Source\PSoC5/CapSense_CompCH0_PM.c **** *
 105:.\Generated_Source\PSoC5/CapSense_CompCH0_PM.c **** * Summary:
 106:.\Generated_Source\PSoC5/CapSense_CompCH0_PM.c **** *  Restores and enables the user configuration
 107:.\Generated_Source\PSoC5/CapSense_CompCH0_PM.c **** *  
 108:.\Generated_Source\PSoC5/CapSense_CompCH0_PM.c **** * Parameters:
 109:.\Generated_Source\PSoC5/CapSense_CompCH0_PM.c **** *  void
 110:.\Generated_Source\PSoC5/CapSense_CompCH0_PM.c **** *
 111:.\Generated_Source\PSoC5/CapSense_CompCH0_PM.c **** * Return:
 112:.\Generated_Source\PSoC5/CapSense_CompCH0_PM.c **** *  void
 113:.\Generated_Source\PSoC5/CapSense_CompCH0_PM.c **** *
 114:.\Generated_Source\PSoC5/CapSense_CompCH0_PM.c **** * Global variables:
 115:.\Generated_Source\PSoC5/CapSense_CompCH0_PM.c **** *  CapSense_CompCH0_backup.enableState:  Is used to restore the enable state of 
 116:.\Generated_Source\PSoC5/CapSense_CompCH0_PM.c **** *  block on wakeup from sleep mode.
 117:.\Generated_Source\PSoC5/CapSense_CompCH0_PM.c **** *
 118:.\Generated_Source\PSoC5/CapSense_CompCH0_PM.c **** *******************************************************************************/
 119:.\Generated_Source\PSoC5/CapSense_CompCH0_PM.c **** void CapSense_CompCH0_Wakeup(void) 
 120:.\Generated_Source\PSoC5/CapSense_CompCH0_PM.c **** {
 100              		.loc 1 120 0
 101              		.cfi_startproc
 102              		@ args = 0, pretend = 0, frame = 0
 103              		@ frame_needed = 0, uses_anonymous_args = 0
 104              		@ link register save eliminated.
 121:.\Generated_Source\PSoC5/CapSense_CompCH0_PM.c ****     CapSense_CompCH0_RestoreConfig();
 122:.\Generated_Source\PSoC5/CapSense_CompCH0_PM.c ****     
 123:.\Generated_Source\PSoC5/CapSense_CompCH0_PM.c ****     if(CapSense_CompCH0_backup.enableState == 1u)
 105              		.loc 1 123 0
ARM GAS  C:\Users\Xwx47\AppData\Local\Temp\ccRhLo1o.s 			page 5


 106 0000 034B     		ldr	r3, .L11
 107 0002 1B78     		ldrb	r3, [r3]	@ zero_extendqisi2
 108 0004 012B     		cmp	r3, #1
 109 0006 01D1     		bne	.L9
 124:.\Generated_Source\PSoC5/CapSense_CompCH0_PM.c ****     {
 125:.\Generated_Source\PSoC5/CapSense_CompCH0_PM.c ****         /* Enable Comp's operation */
 126:.\Generated_Source\PSoC5/CapSense_CompCH0_PM.c ****         CapSense_CompCH0_Enable();
 110              		.loc 1 126 0
 111 0008 FFF7FEBF 		b	CapSense_CompCH0_Enable
 112              	.LVL1:
 113              	.L9:
 114 000c 7047     		bx	lr
 115              	.L12:
 116 000e 00BF     		.align	2
 117              	.L11:
 118 0010 00000000 		.word	.LANCHOR0
 119              		.cfi_endproc
 120              	.LFE3:
 121              		.size	CapSense_CompCH0_Wakeup, .-CapSense_CompCH0_Wakeup
 122              		.bss
 123              		.set	.LANCHOR0,. + 0
 124              		.type	CapSense_CompCH0_backup, %object
 125              		.size	CapSense_CompCH0_backup, 1
 126              	CapSense_CompCH0_backup:
 127 0000 00       		.space	1
 128              		.text
 129              	.Letext0:
 130              		.file 2 ".\\Generated_Source\\PSoC5\\cytypes.h"
 131              		.file 3 ".\\Generated_Source\\PSoC5\\CapSense_CompCH0.h"