ARM GAS  C:\Users\Xwx47\AppData\Local\Temp\ccDPbGAs.s 			page 1


   1              		.syntax unified
   2              		.cpu cortex-m3
   3              		.fpu softvfp
   4              		.eabi_attribute 20, 1
   5              		.eabi_attribute 21, 1
   6              		.eabi_attribute 23, 3
   7              		.eabi_attribute 24, 1
   8              		.eabi_attribute 25, 1
   9              		.eabi_attribute 26, 1
  10              		.eabi_attribute 30, 4
  11              		.eabi_attribute 34, 1
  12              		.eabi_attribute 18, 4
  13              		.thumb
  14              		.file	"CapSense_CompCH0.c"
  15              		.text
  16              	.Ltext0:
  17              		.cfi_sections	.debug_frame
  18              		.section	.text.CapSense_CompCH0_trimAdjust,"ax",%progbits
  19              		.align	1
  20              		.thumb
  21              		.thumb_func
  22              		.type	CapSense_CompCH0_trimAdjust, %function
  23              	CapSense_CompCH0_trimAdjust:
  24              	.LFB6:
  25              		.file 1 ".\\Generated_Source\\PSoC5\\CapSense_CompCH0.c"
   1:.\Generated_Source\PSoC5/CapSense_CompCH0.c **** /*******************************************************************************
   2:.\Generated_Source\PSoC5/CapSense_CompCH0.c **** * File Name: CapSense_CompCH0.c
   3:.\Generated_Source\PSoC5/CapSense_CompCH0.c **** * Version 2.0
   4:.\Generated_Source\PSoC5/CapSense_CompCH0.c **** *
   5:.\Generated_Source\PSoC5/CapSense_CompCH0.c **** * Description:
   6:.\Generated_Source\PSoC5/CapSense_CompCH0.c **** *  This file provides the source code to the API for the Comparator component
   7:.\Generated_Source\PSoC5/CapSense_CompCH0.c **** *
   8:.\Generated_Source\PSoC5/CapSense_CompCH0.c **** * Note:
   9:.\Generated_Source\PSoC5/CapSense_CompCH0.c **** *  None
  10:.\Generated_Source\PSoC5/CapSense_CompCH0.c **** *
  11:.\Generated_Source\PSoC5/CapSense_CompCH0.c **** ********************************************************************************
  12:.\Generated_Source\PSoC5/CapSense_CompCH0.c **** * Copyright 2008-2012, Cypress Semiconductor Corporation.  All rights reserved.
  13:.\Generated_Source\PSoC5/CapSense_CompCH0.c **** * You may use this file only in accordance with the license, terms, conditions, 
  14:.\Generated_Source\PSoC5/CapSense_CompCH0.c **** * disclaimers, and limitations in the end user license agreement accompanying 
  15:.\Generated_Source\PSoC5/CapSense_CompCH0.c **** * the software package with which this file was provided.
  16:.\Generated_Source\PSoC5/CapSense_CompCH0.c **** *******************************************************************************/
  17:.\Generated_Source\PSoC5/CapSense_CompCH0.c **** 
  18:.\Generated_Source\PSoC5/CapSense_CompCH0.c **** #include "CapSense_CompCH0.h"
  19:.\Generated_Source\PSoC5/CapSense_CompCH0.c **** 
  20:.\Generated_Source\PSoC5/CapSense_CompCH0.c **** uint8 CapSense_CompCH0_initVar = 0u;
  21:.\Generated_Source\PSoC5/CapSense_CompCH0.c **** 
  22:.\Generated_Source\PSoC5/CapSense_CompCH0.c **** /* Internal functions definitoin */
  23:.\Generated_Source\PSoC5/CapSense_CompCH0.c **** static void CapSense_CompCH0_trimAdjust(uint8 nibble) ;
  24:.\Generated_Source\PSoC5/CapSense_CompCH0.c **** 
  25:.\Generated_Source\PSoC5/CapSense_CompCH0.c **** /* static CapSense_CompCH0_backupStruct  CapSense_CompCH0_backup; */
  26:.\Generated_Source\PSoC5/CapSense_CompCH0.c **** #if (CY_PSOC5A)
  27:.\Generated_Source\PSoC5/CapSense_CompCH0.c ****     static CapSense_CompCH0_LOWPOWER_BACKUP_STRUCT  CapSense_CompCH0_lowPowerBackup;
  28:.\Generated_Source\PSoC5/CapSense_CompCH0.c **** #endif /* CY_PSOC5A */
  29:.\Generated_Source\PSoC5/CapSense_CompCH0.c **** 
  30:.\Generated_Source\PSoC5/CapSense_CompCH0.c **** /* variable to decide whether or not to restore the control register in 
  31:.\Generated_Source\PSoC5/CapSense_CompCH0.c ****    Enable() API for PSoC5A only */
  32:.\Generated_Source\PSoC5/CapSense_CompCH0.c **** #if (CY_PSOC5A)
ARM GAS  C:\Users\Xwx47\AppData\Local\Temp\ccDPbGAs.s 			page 2


  33:.\Generated_Source\PSoC5/CapSense_CompCH0.c ****     static uint8 CapSense_CompCH0_restoreReg = 0u;
  34:.\Generated_Source\PSoC5/CapSense_CompCH0.c **** #endif /* CY_PSOC5A */
  35:.\Generated_Source\PSoC5/CapSense_CompCH0.c **** 
  36:.\Generated_Source\PSoC5/CapSense_CompCH0.c **** 
  37:.\Generated_Source\PSoC5/CapSense_CompCH0.c **** /*******************************************************************************
  38:.\Generated_Source\PSoC5/CapSense_CompCH0.c **** * Function Name: CapSense_CompCH0_Init
  39:.\Generated_Source\PSoC5/CapSense_CompCH0.c **** ********************************************************************************
  40:.\Generated_Source\PSoC5/CapSense_CompCH0.c **** *
  41:.\Generated_Source\PSoC5/CapSense_CompCH0.c **** * Summary:
  42:.\Generated_Source\PSoC5/CapSense_CompCH0.c **** *  Initialize to the schematic state
  43:.\Generated_Source\PSoC5/CapSense_CompCH0.c **** * 
  44:.\Generated_Source\PSoC5/CapSense_CompCH0.c **** * Parameters:
  45:.\Generated_Source\PSoC5/CapSense_CompCH0.c **** *  void
  46:.\Generated_Source\PSoC5/CapSense_CompCH0.c **** *
  47:.\Generated_Source\PSoC5/CapSense_CompCH0.c **** * Return:
  48:.\Generated_Source\PSoC5/CapSense_CompCH0.c **** *  void
  49:.\Generated_Source\PSoC5/CapSense_CompCH0.c **** *
  50:.\Generated_Source\PSoC5/CapSense_CompCH0.c **** *******************************************************************************/
  51:.\Generated_Source\PSoC5/CapSense_CompCH0.c **** void CapSense_CompCH0_Init(void) 
  52:.\Generated_Source\PSoC5/CapSense_CompCH0.c **** {
  53:.\Generated_Source\PSoC5/CapSense_CompCH0.c ****     /* Set default speed/power */
  54:.\Generated_Source\PSoC5/CapSense_CompCH0.c ****     CapSense_CompCH0_SetSpeed(CapSense_CompCH0_DEFAULT_SPEED);
  55:.\Generated_Source\PSoC5/CapSense_CompCH0.c **** 
  56:.\Generated_Source\PSoC5/CapSense_CompCH0.c ****     /* Set default Hysteresis */
  57:.\Generated_Source\PSoC5/CapSense_CompCH0.c ****     #if ( CapSense_CompCH0_DEFAULT_HYSTERESIS == 0u )
  58:.\Generated_Source\PSoC5/CapSense_CompCH0.c ****         CapSense_CompCH0_CR |= CapSense_CompCH0_HYST_OFF;
  59:.\Generated_Source\PSoC5/CapSense_CompCH0.c ****     #else
  60:.\Generated_Source\PSoC5/CapSense_CompCH0.c ****         CapSense_CompCH0_CR &= (uint8)(~CapSense_CompCH0_HYST_OFF);
  61:.\Generated_Source\PSoC5/CapSense_CompCH0.c ****     #endif /* CapSense_CompCH0_DEFAULT_HYSTERESIS == 0u */
  62:.\Generated_Source\PSoC5/CapSense_CompCH0.c ****     /* Power down override feature is not supported for PSoC5A. */
  63:.\Generated_Source\PSoC5/CapSense_CompCH0.c ****     #if (CY_PSOC3 || CY_PSOC5LP)
  64:.\Generated_Source\PSoC5/CapSense_CompCH0.c ****         /* Set default Power Down Override */
  65:.\Generated_Source\PSoC5/CapSense_CompCH0.c ****         #if ( CapSense_CompCH0_DEFAULT_PWRDWN_OVRD == 0u )
  66:.\Generated_Source\PSoC5/CapSense_CompCH0.c ****             CapSense_CompCH0_CR &= (uint8)(~CapSense_CompCH0_PWRDWN_OVRD);
  67:.\Generated_Source\PSoC5/CapSense_CompCH0.c ****         #else 
  68:.\Generated_Source\PSoC5/CapSense_CompCH0.c ****             CapSense_CompCH0_CR |= CapSense_CompCH0_PWRDWN_OVRD;
  69:.\Generated_Source\PSoC5/CapSense_CompCH0.c ****         #endif /* CapSense_CompCH0_DEFAULT_PWRDWN_OVRD == 0u */
  70:.\Generated_Source\PSoC5/CapSense_CompCH0.c ****     #endif /* CY_PSOC3 || CY_PSOC5LP */
  71:.\Generated_Source\PSoC5/CapSense_CompCH0.c ****     
  72:.\Generated_Source\PSoC5/CapSense_CompCH0.c ****     /* Set mux always on logic */
  73:.\Generated_Source\PSoC5/CapSense_CompCH0.c ****     CapSense_CompCH0_CR |= CapSense_CompCH0_MX_AO;
  74:.\Generated_Source\PSoC5/CapSense_CompCH0.c **** 
  75:.\Generated_Source\PSoC5/CapSense_CompCH0.c ****     /* Set default sync */
  76:.\Generated_Source\PSoC5/CapSense_CompCH0.c ****     CapSense_CompCH0_CLK &= (uint8)(~CapSense_CompCH0_SYNCCLK_MASK);
  77:.\Generated_Source\PSoC5/CapSense_CompCH0.c ****     #if ( CapSense_CompCH0_DEFAULT_BYPASS_SYNC == 0u )
  78:.\Generated_Source\PSoC5/CapSense_CompCH0.c ****         CapSense_CompCH0_CLK |= CapSense_CompCH0_SYNC_CLK_EN;
  79:.\Generated_Source\PSoC5/CapSense_CompCH0.c ****     #else
  80:.\Generated_Source\PSoC5/CapSense_CompCH0.c ****         CapSense_CompCH0_CLK |= CapSense_CompCH0_BYPASS_SYNC;
  81:.\Generated_Source\PSoC5/CapSense_CompCH0.c ****     #endif /* CapSense_CompCH0_DEFAULT_BYPASS_SYNC == 0u */
  82:.\Generated_Source\PSoC5/CapSense_CompCH0.c **** }
  83:.\Generated_Source\PSoC5/CapSense_CompCH0.c **** 
  84:.\Generated_Source\PSoC5/CapSense_CompCH0.c **** 
  85:.\Generated_Source\PSoC5/CapSense_CompCH0.c **** /*******************************************************************************
  86:.\Generated_Source\PSoC5/CapSense_CompCH0.c **** * Function Name: CapSense_CompCH0_Enable
  87:.\Generated_Source\PSoC5/CapSense_CompCH0.c **** ********************************************************************************
  88:.\Generated_Source\PSoC5/CapSense_CompCH0.c **** *
  89:.\Generated_Source\PSoC5/CapSense_CompCH0.c **** * Summary:
ARM GAS  C:\Users\Xwx47\AppData\Local\Temp\ccDPbGAs.s 			page 3


  90:.\Generated_Source\PSoC5/CapSense_CompCH0.c **** *  Enable the Comparator
  91:.\Generated_Source\PSoC5/CapSense_CompCH0.c **** * 
  92:.\Generated_Source\PSoC5/CapSense_CompCH0.c **** * Parameters:
  93:.\Generated_Source\PSoC5/CapSense_CompCH0.c **** *  void
  94:.\Generated_Source\PSoC5/CapSense_CompCH0.c **** *
  95:.\Generated_Source\PSoC5/CapSense_CompCH0.c **** * Return:
  96:.\Generated_Source\PSoC5/CapSense_CompCH0.c **** *  void
  97:.\Generated_Source\PSoC5/CapSense_CompCH0.c **** *
  98:.\Generated_Source\PSoC5/CapSense_CompCH0.c **** *******************************************************************************/
  99:.\Generated_Source\PSoC5/CapSense_CompCH0.c **** void CapSense_CompCH0_Enable(void) 
 100:.\Generated_Source\PSoC5/CapSense_CompCH0.c **** {
 101:.\Generated_Source\PSoC5/CapSense_CompCH0.c ****     CapSense_CompCH0_PWRMGR |= CapSense_CompCH0_ACT_PWR_EN;
 102:.\Generated_Source\PSoC5/CapSense_CompCH0.c ****     CapSense_CompCH0_STBY_PWRMGR |= CapSense_CompCH0_STBY_PWR_EN;
 103:.\Generated_Source\PSoC5/CapSense_CompCH0.c ****      
 104:.\Generated_Source\PSoC5/CapSense_CompCH0.c ****      /* This is to restore the value of register CR which is saved 
 105:.\Generated_Source\PSoC5/CapSense_CompCH0.c ****     in prior to the modification in stop() API */
 106:.\Generated_Source\PSoC5/CapSense_CompCH0.c ****     #if (CY_PSOC5A)
 107:.\Generated_Source\PSoC5/CapSense_CompCH0.c ****         if(CapSense_CompCH0_restoreReg == 1u)
 108:.\Generated_Source\PSoC5/CapSense_CompCH0.c ****         {
 109:.\Generated_Source\PSoC5/CapSense_CompCH0.c ****             CapSense_CompCH0_CR = CapSense_CompCH0_lowPowerBackup.compCRReg;
 110:.\Generated_Source\PSoC5/CapSense_CompCH0.c **** 
 111:.\Generated_Source\PSoC5/CapSense_CompCH0.c ****             /* Clear the flag */
 112:.\Generated_Source\PSoC5/CapSense_CompCH0.c ****             CapSense_CompCH0_restoreReg = 0u;
 113:.\Generated_Source\PSoC5/CapSense_CompCH0.c ****         }
 114:.\Generated_Source\PSoC5/CapSense_CompCH0.c ****     #endif /* CY_PSOC5A */
 115:.\Generated_Source\PSoC5/CapSense_CompCH0.c **** }
 116:.\Generated_Source\PSoC5/CapSense_CompCH0.c **** 
 117:.\Generated_Source\PSoC5/CapSense_CompCH0.c **** 
 118:.\Generated_Source\PSoC5/CapSense_CompCH0.c **** /*******************************************************************************
 119:.\Generated_Source\PSoC5/CapSense_CompCH0.c **** * Function Name: CapSense_CompCH0_Start
 120:.\Generated_Source\PSoC5/CapSense_CompCH0.c **** ********************************************************************************
 121:.\Generated_Source\PSoC5/CapSense_CompCH0.c **** *
 122:.\Generated_Source\PSoC5/CapSense_CompCH0.c **** * Summary:
 123:.\Generated_Source\PSoC5/CapSense_CompCH0.c **** *  The start function initializes the Analog Comparator with the default values.
 124:.\Generated_Source\PSoC5/CapSense_CompCH0.c **** *
 125:.\Generated_Source\PSoC5/CapSense_CompCH0.c **** * Parameters:
 126:.\Generated_Source\PSoC5/CapSense_CompCH0.c **** *  void
 127:.\Generated_Source\PSoC5/CapSense_CompCH0.c **** *
 128:.\Generated_Source\PSoC5/CapSense_CompCH0.c **** * Return:
 129:.\Generated_Source\PSoC5/CapSense_CompCH0.c **** *  void 
 130:.\Generated_Source\PSoC5/CapSense_CompCH0.c **** *
 131:.\Generated_Source\PSoC5/CapSense_CompCH0.c **** * Global variables:
 132:.\Generated_Source\PSoC5/CapSense_CompCH0.c **** *  CapSense_CompCH0_initVar: Is modified when this function is called for the 
 133:.\Generated_Source\PSoC5/CapSense_CompCH0.c **** *   first time. Is used to ensure that initialization happens only once.
 134:.\Generated_Source\PSoC5/CapSense_CompCH0.c **** *  
 135:.\Generated_Source\PSoC5/CapSense_CompCH0.c **** *******************************************************************************/
 136:.\Generated_Source\PSoC5/CapSense_CompCH0.c **** void CapSense_CompCH0_Start(void) 
 137:.\Generated_Source\PSoC5/CapSense_CompCH0.c **** {
 138:.\Generated_Source\PSoC5/CapSense_CompCH0.c **** 
 139:.\Generated_Source\PSoC5/CapSense_CompCH0.c ****     if ( CapSense_CompCH0_initVar == 0u )
 140:.\Generated_Source\PSoC5/CapSense_CompCH0.c ****     {
 141:.\Generated_Source\PSoC5/CapSense_CompCH0.c ****         CapSense_CompCH0_Init();
 142:.\Generated_Source\PSoC5/CapSense_CompCH0.c ****         
 143:.\Generated_Source\PSoC5/CapSense_CompCH0.c ****         CapSense_CompCH0_initVar = 1u;
 144:.\Generated_Source\PSoC5/CapSense_CompCH0.c ****     }   
 145:.\Generated_Source\PSoC5/CapSense_CompCH0.c **** 
 146:.\Generated_Source\PSoC5/CapSense_CompCH0.c ****     /* Enable power to comparator */
ARM GAS  C:\Users\Xwx47\AppData\Local\Temp\ccDPbGAs.s 			page 4


 147:.\Generated_Source\PSoC5/CapSense_CompCH0.c ****     CapSense_CompCH0_Enable();    
 148:.\Generated_Source\PSoC5/CapSense_CompCH0.c **** }
 149:.\Generated_Source\PSoC5/CapSense_CompCH0.c **** 
 150:.\Generated_Source\PSoC5/CapSense_CompCH0.c **** 
 151:.\Generated_Source\PSoC5/CapSense_CompCH0.c **** /*******************************************************************************
 152:.\Generated_Source\PSoC5/CapSense_CompCH0.c **** * Function Name: CapSense_CompCH0_Stop
 153:.\Generated_Source\PSoC5/CapSense_CompCH0.c **** ********************************************************************************
 154:.\Generated_Source\PSoC5/CapSense_CompCH0.c **** *
 155:.\Generated_Source\PSoC5/CapSense_CompCH0.c **** * Summary:
 156:.\Generated_Source\PSoC5/CapSense_CompCH0.c **** *  Powers down amplifier to lowest power state.
 157:.\Generated_Source\PSoC5/CapSense_CompCH0.c **** *
 158:.\Generated_Source\PSoC5/CapSense_CompCH0.c **** * Parameters:
 159:.\Generated_Source\PSoC5/CapSense_CompCH0.c **** *  void
 160:.\Generated_Source\PSoC5/CapSense_CompCH0.c **** *
 161:.\Generated_Source\PSoC5/CapSense_CompCH0.c **** * Return:
 162:.\Generated_Source\PSoC5/CapSense_CompCH0.c **** *  void
 163:.\Generated_Source\PSoC5/CapSense_CompCH0.c **** *
 164:.\Generated_Source\PSoC5/CapSense_CompCH0.c **** *******************************************************************************/
 165:.\Generated_Source\PSoC5/CapSense_CompCH0.c **** void CapSense_CompCH0_Stop(void) 
 166:.\Generated_Source\PSoC5/CapSense_CompCH0.c **** {
 167:.\Generated_Source\PSoC5/CapSense_CompCH0.c ****     /* Disable power to comparator */
 168:.\Generated_Source\PSoC5/CapSense_CompCH0.c ****     CapSense_CompCH0_PWRMGR &= (uint8)(~CapSense_CompCH0_ACT_PWR_EN);
 169:.\Generated_Source\PSoC5/CapSense_CompCH0.c ****     CapSense_CompCH0_STBY_PWRMGR &= (uint8)(~CapSense_CompCH0_STBY_PWR_EN);
 170:.\Generated_Source\PSoC5/CapSense_CompCH0.c ****     
 171:.\Generated_Source\PSoC5/CapSense_CompCH0.c ****     #if (CY_PSOC5A)
 172:.\Generated_Source\PSoC5/CapSense_CompCH0.c ****         /* Enable the variable */
 173:.\Generated_Source\PSoC5/CapSense_CompCH0.c ****         CapSense_CompCH0_restoreReg = 1u;
 174:.\Generated_Source\PSoC5/CapSense_CompCH0.c **** 
 175:.\Generated_Source\PSoC5/CapSense_CompCH0.c ****         /* Save the control register before clearing it */
 176:.\Generated_Source\PSoC5/CapSense_CompCH0.c ****         CapSense_CompCH0_lowPowerBackup.compCRReg = CapSense_CompCH0_CR;
 177:.\Generated_Source\PSoC5/CapSense_CompCH0.c ****         CapSense_CompCH0_CR = CapSense_CompCH0_COMP_REG_CLR;
 178:.\Generated_Source\PSoC5/CapSense_CompCH0.c ****     #endif /* CY_PSOC5A */
 179:.\Generated_Source\PSoC5/CapSense_CompCH0.c **** }
 180:.\Generated_Source\PSoC5/CapSense_CompCH0.c **** 
 181:.\Generated_Source\PSoC5/CapSense_CompCH0.c **** 
 182:.\Generated_Source\PSoC5/CapSense_CompCH0.c **** /*******************************************************************************
 183:.\Generated_Source\PSoC5/CapSense_CompCH0.c **** * Function Name: CapSense_CompCH0_SetSpeed
 184:.\Generated_Source\PSoC5/CapSense_CompCH0.c **** ********************************************************************************
 185:.\Generated_Source\PSoC5/CapSense_CompCH0.c **** *
 186:.\Generated_Source\PSoC5/CapSense_CompCH0.c **** * Summary:
 187:.\Generated_Source\PSoC5/CapSense_CompCH0.c **** *  This function sets the speed of the Analog Comparator. The faster the speed
 188:.\Generated_Source\PSoC5/CapSense_CompCH0.c **** *  the more power that is used.
 189:.\Generated_Source\PSoC5/CapSense_CompCH0.c **** *
 190:.\Generated_Source\PSoC5/CapSense_CompCH0.c **** * Parameters:
 191:.\Generated_Source\PSoC5/CapSense_CompCH0.c **** *  speed: (uint8) Sets operation mode of Comparator
 192:.\Generated_Source\PSoC5/CapSense_CompCH0.c **** *
 193:.\Generated_Source\PSoC5/CapSense_CompCH0.c **** * Return:
 194:.\Generated_Source\PSoC5/CapSense_CompCH0.c **** *  void
 195:.\Generated_Source\PSoC5/CapSense_CompCH0.c **** *
 196:.\Generated_Source\PSoC5/CapSense_CompCH0.c **** *******************************************************************************/
 197:.\Generated_Source\PSoC5/CapSense_CompCH0.c **** void CapSense_CompCH0_SetSpeed(uint8 speed) 
 198:.\Generated_Source\PSoC5/CapSense_CompCH0.c **** {
 199:.\Generated_Source\PSoC5/CapSense_CompCH0.c ****     /* Clear and Set power level */    
 200:.\Generated_Source\PSoC5/CapSense_CompCH0.c ****     CapSense_CompCH0_CR = (CapSense_CompCH0_CR & (uint8)(~CapSense_CompCH0_PWR_MODE_MASK)) |
 201:.\Generated_Source\PSoC5/CapSense_CompCH0.c ****                            (speed & CapSense_CompCH0_PWR_MODE_MASK);
 202:.\Generated_Source\PSoC5/CapSense_CompCH0.c **** 
 203:.\Generated_Source\PSoC5/CapSense_CompCH0.c ****     /* Set trim value for high speed comparator */
ARM GAS  C:\Users\Xwx47\AppData\Local\Temp\ccDPbGAs.s 			page 5


 204:.\Generated_Source\PSoC5/CapSense_CompCH0.c ****     if(speed == CapSense_CompCH0_HIGHSPEED)
 205:.\Generated_Source\PSoC5/CapSense_CompCH0.c ****     {
 206:.\Generated_Source\PSoC5/CapSense_CompCH0.c ****         /* PSoC5A */
 207:.\Generated_Source\PSoC5/CapSense_CompCH0.c ****         #if (CY_PSOC5A)
 208:.\Generated_Source\PSoC5/CapSense_CompCH0.c ****             CapSense_CompCH0_TR = CapSense_CompCH0_HS_TRIM_TR0;
 209:.\Generated_Source\PSoC5/CapSense_CompCH0.c ****         #endif /* CY_PSOC5A */
 210:.\Generated_Source\PSoC5/CapSense_CompCH0.c ****         
 211:.\Generated_Source\PSoC5/CapSense_CompCH0.c ****         /* PSoC3, PSoC5LP or later */
 212:.\Generated_Source\PSoC5/CapSense_CompCH0.c ****         #if (CY_PSOC3 || CY_PSOC5LP) 
 213:.\Generated_Source\PSoC5/CapSense_CompCH0.c ****             CapSense_CompCH0_TR0 = CapSense_CompCH0_HS_TRIM_TR0;
 214:.\Generated_Source\PSoC5/CapSense_CompCH0.c ****             CapSense_CompCH0_TR1 = CapSense_CompCH0_HS_TRIM_TR1;
 215:.\Generated_Source\PSoC5/CapSense_CompCH0.c ****         #endif /* CY_PSOC3 || CY_PSOC5LP */
 216:.\Generated_Source\PSoC5/CapSense_CompCH0.c ****     }
 217:.\Generated_Source\PSoC5/CapSense_CompCH0.c ****     else
 218:.\Generated_Source\PSoC5/CapSense_CompCH0.c ****     {
 219:.\Generated_Source\PSoC5/CapSense_CompCH0.c ****     /* PSoC5A */
 220:.\Generated_Source\PSoC5/CapSense_CompCH0.c ****         #if (CY_PSOC5A)
 221:.\Generated_Source\PSoC5/CapSense_CompCH0.c ****             CapSense_CompCH0_TR = CapSense_CompCH0_LS_TRIM_TR0;
 222:.\Generated_Source\PSoC5/CapSense_CompCH0.c ****         #endif /* CY_PSOC5A */
 223:.\Generated_Source\PSoC5/CapSense_CompCH0.c ****         
 224:.\Generated_Source\PSoC5/CapSense_CompCH0.c ****         /* PSoC3, PSoC5LP or later */
 225:.\Generated_Source\PSoC5/CapSense_CompCH0.c ****         #if (CY_PSOC3 || CY_PSOC5LP) 
 226:.\Generated_Source\PSoC5/CapSense_CompCH0.c ****             CapSense_CompCH0_TR0 = CapSense_CompCH0_LS_TRIM_TR0;
 227:.\Generated_Source\PSoC5/CapSense_CompCH0.c ****             CapSense_CompCH0_TR1 = CapSense_CompCH0_LS_TRIM_TR1;
 228:.\Generated_Source\PSoC5/CapSense_CompCH0.c ****         #endif /* CY_PSOC3 || CY_PSOC5LP */
 229:.\Generated_Source\PSoC5/CapSense_CompCH0.c ****     }
 230:.\Generated_Source\PSoC5/CapSense_CompCH0.c **** 
 231:.\Generated_Source\PSoC5/CapSense_CompCH0.c **** }
 232:.\Generated_Source\PSoC5/CapSense_CompCH0.c **** 
 233:.\Generated_Source\PSoC5/CapSense_CompCH0.c **** 
 234:.\Generated_Source\PSoC5/CapSense_CompCH0.c **** /*******************************************************************************
 235:.\Generated_Source\PSoC5/CapSense_CompCH0.c **** * Function Name: CapSense_CompCH0_GetCompare
 236:.\Generated_Source\PSoC5/CapSense_CompCH0.c **** ********************************************************************************
 237:.\Generated_Source\PSoC5/CapSense_CompCH0.c **** *
 238:.\Generated_Source\PSoC5/CapSense_CompCH0.c **** * Summary:
 239:.\Generated_Source\PSoC5/CapSense_CompCH0.c **** *  This function returns the comparator output value.
 240:.\Generated_Source\PSoC5/CapSense_CompCH0.c **** *  This value is not affected by the Polarity parameter.
 241:.\Generated_Source\PSoC5/CapSense_CompCH0.c **** *  This valuea lways reflects a noninverted state.
 242:.\Generated_Source\PSoC5/CapSense_CompCH0.c **** *
 243:.\Generated_Source\PSoC5/CapSense_CompCH0.c **** * Parameters:
 244:.\Generated_Source\PSoC5/CapSense_CompCH0.c **** *   None
 245:.\Generated_Source\PSoC5/CapSense_CompCH0.c **** *
 246:.\Generated_Source\PSoC5/CapSense_CompCH0.c **** * Return:
 247:.\Generated_Source\PSoC5/CapSense_CompCH0.c **** *  (uint8)  0     - if Pos_Input less than Neg_input
 248:.\Generated_Source\PSoC5/CapSense_CompCH0.c **** *           non 0 - if Pos_Input greater than Neg_input.
 249:.\Generated_Source\PSoC5/CapSense_CompCH0.c **** *
 250:.\Generated_Source\PSoC5/CapSense_CompCH0.c **** *******************************************************************************/
 251:.\Generated_Source\PSoC5/CapSense_CompCH0.c **** uint8 CapSense_CompCH0_GetCompare(void) 
 252:.\Generated_Source\PSoC5/CapSense_CompCH0.c **** {
 253:.\Generated_Source\PSoC5/CapSense_CompCH0.c ****     return( CapSense_CompCH0_WRK & CapSense_CompCH0_CMP_OUT_MASK);
 254:.\Generated_Source\PSoC5/CapSense_CompCH0.c **** }
 255:.\Generated_Source\PSoC5/CapSense_CompCH0.c **** 
 256:.\Generated_Source\PSoC5/CapSense_CompCH0.c **** 
 257:.\Generated_Source\PSoC5/CapSense_CompCH0.c **** /*******************************************************************************
 258:.\Generated_Source\PSoC5/CapSense_CompCH0.c **** * Function Name: CapSense_CompCH0_trimAdjust
 259:.\Generated_Source\PSoC5/CapSense_CompCH0.c **** ********************************************************************************
 260:.\Generated_Source\PSoC5/CapSense_CompCH0.c **** *
ARM GAS  C:\Users\Xwx47\AppData\Local\Temp\ccDPbGAs.s 			page 6


 261:.\Generated_Source\PSoC5/CapSense_CompCH0.c **** * Summary:
 262:.\Generated_Source\PSoC5/CapSense_CompCH0.c **** *  This function adjusts the value in the low nibble/high nibble of the Analog 
 263:.\Generated_Source\PSoC5/CapSense_CompCH0.c **** *  Comparator trim register
 264:.\Generated_Source\PSoC5/CapSense_CompCH0.c **** *
 265:.\Generated_Source\PSoC5/CapSense_CompCH0.c **** * Parameters:  
 266:.\Generated_Source\PSoC5/CapSense_CompCH0.c **** *  nibble:
 267:.\Generated_Source\PSoC5/CapSense_CompCH0.c **** *      0 -- adjusts the value in the low nibble
 268:.\Generated_Source\PSoC5/CapSense_CompCH0.c **** *      1 -- adjusts the value in the high nibble
 269:.\Generated_Source\PSoC5/CapSense_CompCH0.c **** *
 270:.\Generated_Source\PSoC5/CapSense_CompCH0.c **** * Return:
 271:.\Generated_Source\PSoC5/CapSense_CompCH0.c **** *  None
 272:.\Generated_Source\PSoC5/CapSense_CompCH0.c **** *
 273:.\Generated_Source\PSoC5/CapSense_CompCH0.c **** * Theory: 
 274:.\Generated_Source\PSoC5/CapSense_CompCH0.c **** *  Function assumes comparator block is setup for trim adjust.
 275:.\Generated_Source\PSoC5/CapSense_CompCH0.c **** *  Intended to be called from Comp_ZeroCal()
 276:.\Generated_Source\PSoC5/CapSense_CompCH0.c **** * 
 277:.\Generated_Source\PSoC5/CapSense_CompCH0.c **** * Side Effects:
 278:.\Generated_Source\PSoC5/CapSense_CompCH0.c **** *  Routine uses a course 1ms delay following each trim adjustment to allow 
 279:.\Generated_Source\PSoC5/CapSense_CompCH0.c **** *  the comparator output to respond.
 280:.\Generated_Source\PSoC5/CapSense_CompCH0.c **** *
 281:.\Generated_Source\PSoC5/CapSense_CompCH0.c **** *******************************************************************************/
 282:.\Generated_Source\PSoC5/CapSense_CompCH0.c **** static void CapSense_CompCH0_trimAdjust(uint8 nibble) 
 283:.\Generated_Source\PSoC5/CapSense_CompCH0.c **** {
  26              		.loc 1 283 0
  27              		.cfi_startproc
  28              		@ args = 0, pretend = 0, frame = 0
  29              		@ frame_needed = 0, uses_anonymous_args = 0
  30              	.LVL0:
  31 0000 2DE9F041 		push	{r4, r5, r6, r7, r8, lr}
  32              		.cfi_def_cfa_offset 24
  33              		.cfi_offset 4, -24
  34              		.cfi_offset 5, -20
  35              		.cfi_offset 6, -16
  36              		.cfi_offset 7, -12
  37              		.cfi_offset 8, -8
  38              		.cfi_offset 14, -4
 284:.\Generated_Source\PSoC5/CapSense_CompCH0.c ****     uint8 trimCnt, trimCntMax;
 285:.\Generated_Source\PSoC5/CapSense_CompCH0.c ****     uint8 cmpState;   
 286:.\Generated_Source\PSoC5/CapSense_CompCH0.c **** 
 287:.\Generated_Source\PSoC5/CapSense_CompCH0.c ****     /* get current state of comparator output */
 288:.\Generated_Source\PSoC5/CapSense_CompCH0.c ****     cmpState = CapSense_CompCH0_WRK & CapSense_CompCH0_CMP_OUT_MASK;
  39              		.loc 1 288 0
  40 0004 184B     		ldr	r3, .L15
 289:.\Generated_Source\PSoC5/CapSense_CompCH0.c ****     
 290:.\Generated_Source\PSoC5/CapSense_CompCH0.c ****     if (nibble == 0u)
  41              		.loc 1 290 0
  42 0006 0746     		mov	r7, r0
 288:.\Generated_Source\PSoC5/CapSense_CompCH0.c ****     cmpState = CapSense_CompCH0_WRK & CapSense_CompCH0_CMP_OUT_MASK;
  43              		.loc 1 288 0
  44 0008 1C78     		ldrb	r4, [r3]	@ zero_extendqisi2
  45 000a 9846     		mov	r8, r3
  46 000c 04F00204 		and	r4, r4, #2
  47 0010 E4B2     		uxtb	r4, r4
  48              	.LVL1:
  49              		.loc 1 290 0
  50 0012 30B9     		cbnz	r0, .L2
 291:.\Generated_Source\PSoC5/CapSense_CompCH0.c ****     {    
ARM GAS  C:\Users\Xwx47\AppData\Local\Temp\ccDPbGAs.s 			page 7


 292:.\Generated_Source\PSoC5/CapSense_CompCH0.c ****         /* if comparator output is high, negative offset adjust is required */
 293:.\Generated_Source\PSoC5/CapSense_CompCH0.c ****         if ( cmpState != 0u )
  51              		.loc 1 293 0
  52 0014 24B3     		cbz	r4, .L3
 294:.\Generated_Source\PSoC5/CapSense_CompCH0.c ****         {
 295:.\Generated_Source\PSoC5/CapSense_CompCH0.c ****             /* PSoC5A */
 296:.\Generated_Source\PSoC5/CapSense_CompCH0.c ****             #if (CY_PSOC5A)
 297:.\Generated_Source\PSoC5/CapSense_CompCH0.c ****                 CapSense_CompCH0_TR |= CapSense_CompCH0_CMP_TRIM1_DIR;
 298:.\Generated_Source\PSoC5/CapSense_CompCH0.c ****             #endif /* CY_PSOC5A */
 299:.\Generated_Source\PSoC5/CapSense_CompCH0.c ****             
 300:.\Generated_Source\PSoC5/CapSense_CompCH0.c ****             /* PSoC3, PSoC5LP or later */
 301:.\Generated_Source\PSoC5/CapSense_CompCH0.c ****             #if (CY_PSOC3 || CY_PSOC5LP)
 302:.\Generated_Source\PSoC5/CapSense_CompCH0.c ****                 CapSense_CompCH0_TR0 |= CapSense_CompCH0_CMP_TR0_DIR;
  53              		.loc 1 302 0
  54 0016 154A     		ldr	r2, .L15+4
  55 0018 1378     		ldrb	r3, [r2]	@ zero_extendqisi2
  56 001a 43F01003 		orr	r3, r3, #16
  57 001e 1370     		strb	r3, [r2]
  58 0020 1EE0     		b	.L3
  59              	.L2:
 303:.\Generated_Source\PSoC5/CapSense_CompCH0.c ****             #endif /* CY_PSOC3 || CY_PSOC5LP */
 304:.\Generated_Source\PSoC5/CapSense_CompCH0.c ****         }
 305:.\Generated_Source\PSoC5/CapSense_CompCH0.c ****     }
 306:.\Generated_Source\PSoC5/CapSense_CompCH0.c ****     else
 307:.\Generated_Source\PSoC5/CapSense_CompCH0.c ****     {
 308:.\Generated_Source\PSoC5/CapSense_CompCH0.c ****         /* if comparator output is low, positive offset adjust is required */
 309:.\Generated_Source\PSoC5/CapSense_CompCH0.c ****         if ( cmpState == 0u )
  60              		.loc 1 309 0
  61 0022 24B9     		cbnz	r4, .L4
 310:.\Generated_Source\PSoC5/CapSense_CompCH0.c ****         {
 311:.\Generated_Source\PSoC5/CapSense_CompCH0.c ****             /* PSoC5A */
 312:.\Generated_Source\PSoC5/CapSense_CompCH0.c ****             #if (CY_PSOC5A)
 313:.\Generated_Source\PSoC5/CapSense_CompCH0.c ****                 CapSense_CompCH0_TR |= CapSense_CompCH0_CMP_TRIM2_DIR; 
 314:.\Generated_Source\PSoC5/CapSense_CompCH0.c ****             #endif /* CY_PSOC5A */
 315:.\Generated_Source\PSoC5/CapSense_CompCH0.c ****             
 316:.\Generated_Source\PSoC5/CapSense_CompCH0.c ****             /* PSoC3, PSoC5LP or later */
 317:.\Generated_Source\PSoC5/CapSense_CompCH0.c ****             #if (CY_PSOC3 || CY_PSOC5LP)
 318:.\Generated_Source\PSoC5/CapSense_CompCH0.c ****                 CapSense_CompCH0_TR1 |= CapSense_CompCH0_CMP_TR1_DIR;
  62              		.loc 1 318 0
  63 0024 124A     		ldr	r2, .L15+8
  64 0026 1378     		ldrb	r3, [r2]	@ zero_extendqisi2
  65 0028 43F01003 		orr	r3, r3, #16
  66 002c 1370     		strb	r3, [r2]
  67              	.L4:
 319:.\Generated_Source\PSoC5/CapSense_CompCH0.c ****             #endif /* CY_PSOC3 || CY_PSOC5LP */
 320:.\Generated_Source\PSoC5/CapSense_CompCH0.c ****         }
 321:.\Generated_Source\PSoC5/CapSense_CompCH0.c ****     }
 322:.\Generated_Source\PSoC5/CapSense_CompCH0.c **** 
 323:.\Generated_Source\PSoC5/CapSense_CompCH0.c ****     /* Increment trim value until compare output changes state */
 324:.\Generated_Source\PSoC5/CapSense_CompCH0.c **** 	
 325:.\Generated_Source\PSoC5/CapSense_CompCH0.c ****     /* PSoC5A */
 326:.\Generated_Source\PSoC5/CapSense_CompCH0.c **** 	#if (CY_PSOC5A)
 327:.\Generated_Source\PSoC5/CapSense_CompCH0.c **** 	    trimCntMax = 7u;
 328:.\Generated_Source\PSoC5/CapSense_CompCH0.c ****     #endif
 329:.\Generated_Source\PSoC5/CapSense_CompCH0.c **** 	
 330:.\Generated_Source\PSoC5/CapSense_CompCH0.c **** 	/* PSoC3, PSoC5LP or later */
 331:.\Generated_Source\PSoC5/CapSense_CompCH0.c **** 	#if (CY_PSOC3 || CY_PSOC5LP)
ARM GAS  C:\Users\Xwx47\AppData\Local\Temp\ccDPbGAs.s 			page 8


 332:.\Generated_Source\PSoC5/CapSense_CompCH0.c ****     	if(nibble == 0u)
 333:.\Generated_Source\PSoC5/CapSense_CompCH0.c ****     	{
 334:.\Generated_Source\PSoC5/CapSense_CompCH0.c ****     		trimCntMax = 15u;
 335:.\Generated_Source\PSoC5/CapSense_CompCH0.c ****     	}
 336:.\Generated_Source\PSoC5/CapSense_CompCH0.c ****     	else
 337:.\Generated_Source\PSoC5/CapSense_CompCH0.c ****     	{
 338:.\Generated_Source\PSoC5/CapSense_CompCH0.c ****     		trimCntMax = 7u;
  68              		.loc 1 338 0
  69 002e 0726     		movs	r6, #7
  70              	.L9:
  71              	.LVL2:
  72 0030 0025     		movs	r5, #0
  73              	.LVL3:
  74              	.L8:
 339:.\Generated_Source\PSoC5/CapSense_CompCH0.c ****     	}
 340:.\Generated_Source\PSoC5/CapSense_CompCH0.c **** 	#endif
 341:.\Generated_Source\PSoC5/CapSense_CompCH0.c **** 	
 342:.\Generated_Source\PSoC5/CapSense_CompCH0.c ****     for ( trimCnt = 0u; trimCnt < trimCntMax; trimCnt++ )
 343:.\Generated_Source\PSoC5/CapSense_CompCH0.c **** 	{
 344:.\Generated_Source\PSoC5/CapSense_CompCH0.c ****         if (nibble == 0u)
  75              		.loc 1 344 0
  76 0032 0FB9     		cbnz	r7, .L5
 345:.\Generated_Source\PSoC5/CapSense_CompCH0.c ****         {
 346:.\Generated_Source\PSoC5/CapSense_CompCH0.c ****             /* PSoC5A */
 347:.\Generated_Source\PSoC5/CapSense_CompCH0.c ****             #if (CY_PSOC5A)
 348:.\Generated_Source\PSoC5/CapSense_CompCH0.c ****                 CapSense_CompCH0_TR += 1u;
 349:.\Generated_Source\PSoC5/CapSense_CompCH0.c ****             #endif /* CY_PSOC5A */
 350:.\Generated_Source\PSoC5/CapSense_CompCH0.c ****             
 351:.\Generated_Source\PSoC5/CapSense_CompCH0.c ****             /* PSoC3, PSoC5LP or later */
 352:.\Generated_Source\PSoC5/CapSense_CompCH0.c ****             #if (CY_PSOC3 || CY_PSOC5LP)
 353:.\Generated_Source\PSoC5/CapSense_CompCH0.c ****                 CapSense_CompCH0_TR0 += 1u;
  77              		.loc 1 353 0
  78 0034 0D4A     		ldr	r2, .L15+4
  79 0036 00E0     		b	.L13
  80              	.L5:
 354:.\Generated_Source\PSoC5/CapSense_CompCH0.c ****             #endif /* CY_PSOC3 || CY_PSOC5LP */
 355:.\Generated_Source\PSoC5/CapSense_CompCH0.c ****         }
 356:.\Generated_Source\PSoC5/CapSense_CompCH0.c ****         else
 357:.\Generated_Source\PSoC5/CapSense_CompCH0.c ****         {
 358:.\Generated_Source\PSoC5/CapSense_CompCH0.c ****             /* PSoC5A */
 359:.\Generated_Source\PSoC5/CapSense_CompCH0.c ****             #if (CY_PSOC5A)
 360:.\Generated_Source\PSoC5/CapSense_CompCH0.c ****                 CapSense_CompCH0_TR += 0x10u;
 361:.\Generated_Source\PSoC5/CapSense_CompCH0.c ****             #endif /* CY_PSOC5A */
 362:.\Generated_Source\PSoC5/CapSense_CompCH0.c ****             
 363:.\Generated_Source\PSoC5/CapSense_CompCH0.c ****             /* PSoC3, PSoC5LP or later */
 364:.\Generated_Source\PSoC5/CapSense_CompCH0.c ****             #if (CY_PSOC3 || CY_PSOC5LP)
 365:.\Generated_Source\PSoC5/CapSense_CompCH0.c ****                 CapSense_CompCH0_TR1 += 1u;
  81              		.loc 1 365 0
  82 0038 0D4A     		ldr	r2, .L15+8
  83              	.L13:
  84 003a 1378     		ldrb	r3, [r2]	@ zero_extendqisi2
 366:.\Generated_Source\PSoC5/CapSense_CompCH0.c ****             #endif /* CY_PSOC3 || CY_PSOC5LP */
 367:.\Generated_Source\PSoC5/CapSense_CompCH0.c ****         }
 368:.\Generated_Source\PSoC5/CapSense_CompCH0.c ****         
 369:.\Generated_Source\PSoC5/CapSense_CompCH0.c ****         CyDelayUs(10u);
  85              		.loc 1 369 0
  86 003c 0A20     		movs	r0, #10
ARM GAS  C:\Users\Xwx47\AppData\Local\Temp\ccDPbGAs.s 			page 9


 365:.\Generated_Source\PSoC5/CapSense_CompCH0.c ****                 CapSense_CompCH0_TR1 += 1u;
  87              		.loc 1 365 0
  88 003e 0133     		adds	r3, r3, #1
  89 0040 DBB2     		uxtb	r3, r3
  90 0042 1370     		strb	r3, [r2]
  91              		.loc 1 369 0
  92 0044 FFF7FEFF 		bl	CyDelayUs
  93              	.LVL4:
 370:.\Generated_Source\PSoC5/CapSense_CompCH0.c ****         
 371:.\Generated_Source\PSoC5/CapSense_CompCH0.c ****         /* Check for change in comparator output */
 372:.\Generated_Source\PSoC5/CapSense_CompCH0.c ****         if ((CapSense_CompCH0_WRK & CapSense_CompCH0_CMP_OUT_MASK) != cmpState)
  94              		.loc 1 372 0
  95 0048 98F80030 		ldrb	r3, [r8]	@ zero_extendqisi2
  96 004c 03F00203 		and	r3, r3, #2
  97 0050 A342     		cmp	r3, r4
  98 0052 07D1     		bne	.L1
  99              	.LVL5:
 100 0054 0135     		adds	r5, r5, #1
 101              	.LVL6:
 342:.\Generated_Source\PSoC5/CapSense_CompCH0.c ****     for ( trimCnt = 0u; trimCnt < trimCntMax; trimCnt++ )
 102              		.loc 1 342 0
 103 0056 EBB2     		uxtb	r3, r5
 104 0058 B342     		cmp	r3, r6
 105 005a EAD3     		bcc	.L8
 106 005c BDE8F081 		pop	{r4, r5, r6, r7, r8, pc}
 107              	.LVL7:
 108              	.L3:
 334:.\Generated_Source\PSoC5/CapSense_CompCH0.c ****     		trimCntMax = 15u;
 109              		.loc 1 334 0
 110 0060 0F26     		movs	r6, #15
 111 0062 E5E7     		b	.L9
 112              	.LVL8:
 113              	.L1:
 114 0064 BDE8F081 		pop	{r4, r5, r6, r7, r8, pc}
 115              	.LVL9:
 116              	.L16:
 117              		.align	2
 118              	.L15:
 119 0068 965B0040 		.word	1073765270
 120 006c 32460040 		.word	1073759794
 121 0070 33460040 		.word	1073759795
 122              		.cfi_endproc
 123              	.LFE6:
 124              		.size	CapSense_CompCH0_trimAdjust, .-CapSense_CompCH0_trimAdjust
 125              		.section	.text.CapSense_CompCH0_Enable,"ax",%progbits
 126              		.align	1
 127              		.global	CapSense_CompCH0_Enable
 128              		.thumb
 129              		.thumb_func
 130              		.type	CapSense_CompCH0_Enable, %function
 131              	CapSense_CompCH0_Enable:
 132              	.LFB1:
 100:.\Generated_Source\PSoC5/CapSense_CompCH0.c **** {
 133              		.loc 1 100 0
 134              		.cfi_startproc
 135              		@ args = 0, pretend = 0, frame = 0
 136              		@ frame_needed = 0, uses_anonymous_args = 0
ARM GAS  C:\Users\Xwx47\AppData\Local\Temp\ccDPbGAs.s 			page 10


 137              		@ link register save eliminated.
 101:.\Generated_Source\PSoC5/CapSense_CompCH0.c ****     CapSense_CompCH0_PWRMGR |= CapSense_CompCH0_ACT_PWR_EN;
 138              		.loc 1 101 0
 139 0000 044B     		ldr	r3, .L18
 140 0002 1A78     		ldrb	r2, [r3]	@ zero_extendqisi2
 141 0004 42F00202 		orr	r2, r2, #2
 142 0008 1A70     		strb	r2, [r3]
 102:.\Generated_Source\PSoC5/CapSense_CompCH0.c ****     CapSense_CompCH0_STBY_PWRMGR |= CapSense_CompCH0_STBY_PWR_EN;
 143              		.loc 1 102 0
 144 000a 1A7C     		ldrb	r2, [r3, #16]	@ zero_extendqisi2
 145 000c 42F00202 		orr	r2, r2, #2
 146 0010 1A74     		strb	r2, [r3, #16]
 147 0012 7047     		bx	lr
 148              	.L19:
 149              		.align	2
 150              	.L18:
 151 0014 A7430040 		.word	1073759143
 152              		.cfi_endproc
 153              	.LFE1:
 154              		.size	CapSense_CompCH0_Enable, .-CapSense_CompCH0_Enable
 155              		.section	.text.CapSense_CompCH0_Stop,"ax",%progbits
 156              		.align	1
 157              		.global	CapSense_CompCH0_Stop
 158              		.thumb
 159              		.thumb_func
 160              		.type	CapSense_CompCH0_Stop, %function
 161              	CapSense_CompCH0_Stop:
 162              	.LFB3:
 166:.\Generated_Source\PSoC5/CapSense_CompCH0.c **** {
 163              		.loc 1 166 0
 164              		.cfi_startproc
 165              		@ args = 0, pretend = 0, frame = 0
 166              		@ frame_needed = 0, uses_anonymous_args = 0
 167              		@ link register save eliminated.
 168:.\Generated_Source\PSoC5/CapSense_CompCH0.c ****     CapSense_CompCH0_PWRMGR &= (uint8)(~CapSense_CompCH0_ACT_PWR_EN);
 168              		.loc 1 168 0
 169 0000 044B     		ldr	r3, .L21
 170 0002 1A78     		ldrb	r2, [r3]	@ zero_extendqisi2
 171 0004 02F0FD02 		and	r2, r2, #253
 172 0008 1A70     		strb	r2, [r3]
 169:.\Generated_Source\PSoC5/CapSense_CompCH0.c ****     CapSense_CompCH0_STBY_PWRMGR &= (uint8)(~CapSense_CompCH0_STBY_PWR_EN);
 173              		.loc 1 169 0
 174 000a 1A7C     		ldrb	r2, [r3, #16]	@ zero_extendqisi2
 175 000c 02F0FD02 		and	r2, r2, #253
 176 0010 1A74     		strb	r2, [r3, #16]
 177 0012 7047     		bx	lr
 178              	.L22:
 179              		.align	2
 180              	.L21:
 181 0014 A7430040 		.word	1073759143
 182              		.cfi_endproc
 183              	.LFE3:
 184              		.size	CapSense_CompCH0_Stop, .-CapSense_CompCH0_Stop
 185              		.section	.text.CapSense_CompCH0_SetSpeed,"ax",%progbits
 186              		.align	1
 187              		.global	CapSense_CompCH0_SetSpeed
 188              		.thumb
ARM GAS  C:\Users\Xwx47\AppData\Local\Temp\ccDPbGAs.s 			page 11


 189              		.thumb_func
 190              		.type	CapSense_CompCH0_SetSpeed, %function
 191              	CapSense_CompCH0_SetSpeed:
 192              	.LFB4:
 198:.\Generated_Source\PSoC5/CapSense_CompCH0.c **** {
 193              		.loc 1 198 0
 194              		.cfi_startproc
 195              		@ args = 0, pretend = 0, frame = 0
 196              		@ frame_needed = 0, uses_anonymous_args = 0
 197              		@ link register save eliminated.
 198              	.LVL10:
 200:.\Generated_Source\PSoC5/CapSense_CompCH0.c ****     CapSense_CompCH0_CR = (CapSense_CompCH0_CR & (uint8)(~CapSense_CompCH0_PWR_MODE_MASK)) |
 199              		.loc 1 200 0
 200 0000 0F4B     		ldr	r3, .L27
 201 0002 00F00301 		and	r1, r0, #3
 202 0006 1A78     		ldrb	r2, [r3]	@ zero_extendqisi2
 204:.\Generated_Source\PSoC5/CapSense_CompCH0.c ****     if(speed == CapSense_CompCH0_HIGHSPEED)
 203              		.loc 1 204 0
 204 0008 0128     		cmp	r0, #1
 200:.\Generated_Source\PSoC5/CapSense_CompCH0.c ****     CapSense_CompCH0_CR = (CapSense_CompCH0_CR & (uint8)(~CapSense_CompCH0_PWR_MODE_MASK)) |
 205              		.loc 1 200 0
 206 000a 02F0FC02 		and	r2, r2, #252
 207 000e 41EA0202 		orr	r2, r1, r2
 208 0012 1A70     		strb	r2, [r3]
 209 0014 A3F59053 		sub	r3, r3, #4608
 210 0018 0A4A     		ldr	r2, .L27+4
 211 001a A3F10E03 		sub	r3, r3, #14
 204:.\Generated_Source\PSoC5/CapSense_CompCH0.c ****     if(speed == CapSense_CompCH0_HIGHSPEED)
 212              		.loc 1 204 0
 213 001e 05D1     		bne	.L24
 213:.\Generated_Source\PSoC5/CapSense_CompCH0.c ****             CapSense_CompCH0_TR0 = CapSense_CompCH0_HS_TRIM_TR0;
 214              		.loc 1 213 0
 215 0020 0949     		ldr	r1, .L27+8
 216 0022 0978     		ldrb	r1, [r1]	@ zero_extendqisi2
 217 0024 C9B2     		uxtb	r1, r1
 218 0026 1170     		strb	r1, [r2]
 214:.\Generated_Source\PSoC5/CapSense_CompCH0.c ****             CapSense_CompCH0_TR1 = CapSense_CompCH0_HS_TRIM_TR1;
 219              		.loc 1 214 0
 220 0028 084A     		ldr	r2, .L27+12
 221 002a 04E0     		b	.L26
 222              	.L24:
 226:.\Generated_Source\PSoC5/CapSense_CompCH0.c ****             CapSense_CompCH0_TR0 = CapSense_CompCH0_LS_TRIM_TR0;
 223              		.loc 1 226 0
 224 002c 0849     		ldr	r1, .L27+16
 225 002e 0978     		ldrb	r1, [r1]	@ zero_extendqisi2
 226 0030 C9B2     		uxtb	r1, r1
 227 0032 1170     		strb	r1, [r2]
 227:.\Generated_Source\PSoC5/CapSense_CompCH0.c ****             CapSense_CompCH0_TR1 = CapSense_CompCH0_LS_TRIM_TR1;
 228              		.loc 1 227 0
 229 0034 074A     		ldr	r2, .L27+20
 230              	.L26:
 231 0036 1278     		ldrb	r2, [r2]	@ zero_extendqisi2
 232 0038 D2B2     		uxtb	r2, r2
 233 003a 1A70     		strb	r2, [r3]
 234 003c 7047     		bx	lr
 235              	.L28:
 236 003e 00BF     		.align	2
ARM GAS  C:\Users\Xwx47\AppData\Local\Temp\ccDPbGAs.s 			page 12


 237              	.L27:
 238 0040 41580040 		.word	1073764417
 239 0044 32460040 		.word	1073759794
 240 0048 11010049 		.word	1224737041
 241 004c 15010049 		.word	1224737045
 242 0050 AF010049 		.word	1224737199
 243 0054 B7010049 		.word	1224737207
 244              		.cfi_endproc
 245              	.LFE4:
 246              		.size	CapSense_CompCH0_SetSpeed, .-CapSense_CompCH0_SetSpeed
 247              		.section	.text.CapSense_CompCH0_Init,"ax",%progbits
 248              		.align	1
 249              		.global	CapSense_CompCH0_Init
 250              		.thumb
 251              		.thumb_func
 252              		.type	CapSense_CompCH0_Init, %function
 253              	CapSense_CompCH0_Init:
 254              	.LFB0:
  52:.\Generated_Source\PSoC5/CapSense_CompCH0.c **** {
 255              		.loc 1 52 0
 256              		.cfi_startproc
 257              		@ args = 0, pretend = 0, frame = 0
 258              		@ frame_needed = 0, uses_anonymous_args = 0
 259 0000 08B5     		push	{r3, lr}
 260              		.cfi_def_cfa_offset 8
 261              		.cfi_offset 3, -8
 262              		.cfi_offset 14, -4
  54:.\Generated_Source\PSoC5/CapSense_CompCH0.c ****     CapSense_CompCH0_SetSpeed(CapSense_CompCH0_DEFAULT_SPEED);
 263              		.loc 1 54 0
 264 0002 0020     		movs	r0, #0
 265 0004 FFF7FEFF 		bl	CapSense_CompCH0_SetSpeed
 266              	.LVL11:
  58:.\Generated_Source\PSoC5/CapSense_CompCH0.c ****         CapSense_CompCH0_CR |= CapSense_CompCH0_HYST_OFF;
 267              		.loc 1 58 0
 268 0008 0C4B     		ldr	r3, .L30
 269 000a 1A78     		ldrb	r2, [r3]	@ zero_extendqisi2
 270 000c 42F02002 		orr	r2, r2, #32
 271 0010 1A70     		strb	r2, [r3]
  66:.\Generated_Source\PSoC5/CapSense_CompCH0.c ****             CapSense_CompCH0_CR &= (uint8)(~CapSense_CompCH0_PWRDWN_OVRD);
 272              		.loc 1 66 0
 273 0012 1A78     		ldrb	r2, [r3]	@ zero_extendqisi2
 274 0014 02F0FB02 		and	r2, r2, #251
 275 0018 1A70     		strb	r2, [r3]
  73:.\Generated_Source\PSoC5/CapSense_CompCH0.c ****     CapSense_CompCH0_CR |= CapSense_CompCH0_MX_AO;
 276              		.loc 1 73 0
 277 001a 1A78     		ldrb	r2, [r3]	@ zero_extendqisi2
 278 001c 42F00802 		orr	r2, r2, #8
 279 0020 1A70     		strb	r2, [r3]
  76:.\Generated_Source\PSoC5/CapSense_CompCH0.c ****     CapSense_CompCH0_CLK &= (uint8)(~CapSense_CompCH0_SYNCCLK_MASK);
 280              		.loc 1 76 0
 281 0022 93F88E22 		ldrb	r2, [r3, #654]	@ zero_extendqisi2
 282 0026 02F0E702 		and	r2, r2, #231
 283 002a 83F88E22 		strb	r2, [r3, #654]
  80:.\Generated_Source\PSoC5/CapSense_CompCH0.c ****         CapSense_CompCH0_CLK |= CapSense_CompCH0_BYPASS_SYNC;
 284              		.loc 1 80 0
 285 002e 93F88E22 		ldrb	r2, [r3, #654]	@ zero_extendqisi2
 286 0032 42F01002 		orr	r2, r2, #16
ARM GAS  C:\Users\Xwx47\AppData\Local\Temp\ccDPbGAs.s 			page 13


 287 0036 83F88E22 		strb	r2, [r3, #654]
  76:.\Generated_Source\PSoC5/CapSense_CompCH0.c ****     CapSense_CompCH0_CLK &= (uint8)(~CapSense_CompCH0_SYNCCLK_MASK);
 288              		.loc 1 76 0
 289 003a 08BD     		pop	{r3, pc}
 290              	.L31:
 291              		.align	2
 292              	.L30:
 293 003c 41580040 		.word	1073764417
 294              		.cfi_endproc
 295              	.LFE0:
 296              		.size	CapSense_CompCH0_Init, .-CapSense_CompCH0_Init
 297              		.section	.text.CapSense_CompCH0_Start,"ax",%progbits
 298              		.align	1
 299              		.global	CapSense_CompCH0_Start
 300              		.thumb
 301              		.thumb_func
 302              		.type	CapSense_CompCH0_Start, %function
 303              	CapSense_CompCH0_Start:
 304              	.LFB2:
 137:.\Generated_Source\PSoC5/CapSense_CompCH0.c **** {
 305              		.loc 1 137 0
 306              		.cfi_startproc
 307              		@ args = 0, pretend = 0, frame = 0
 308              		@ frame_needed = 0, uses_anonymous_args = 0
 309 0000 10B5     		push	{r4, lr}
 310              		.cfi_def_cfa_offset 8
 311              		.cfi_offset 4, -8
 312              		.cfi_offset 14, -4
 139:.\Generated_Source\PSoC5/CapSense_CompCH0.c ****     if ( CapSense_CompCH0_initVar == 0u )
 313              		.loc 1 139 0
 314 0002 054C     		ldr	r4, .L34
 315 0004 2378     		ldrb	r3, [r4]	@ zero_extendqisi2
 316 0006 1BB9     		cbnz	r3, .L33
 141:.\Generated_Source\PSoC5/CapSense_CompCH0.c ****         CapSense_CompCH0_Init();
 317              		.loc 1 141 0
 318 0008 FFF7FEFF 		bl	CapSense_CompCH0_Init
 319              	.LVL12:
 143:.\Generated_Source\PSoC5/CapSense_CompCH0.c ****         CapSense_CompCH0_initVar = 1u;
 320              		.loc 1 143 0
 321 000c 0123     		movs	r3, #1
 322 000e 2370     		strb	r3, [r4]
 323              	.L33:
 148:.\Generated_Source\PSoC5/CapSense_CompCH0.c **** }
 324              		.loc 1 148 0
 325 0010 BDE81040 		pop	{r4, lr}
 147:.\Generated_Source\PSoC5/CapSense_CompCH0.c ****     CapSense_CompCH0_Enable();    
 326              		.loc 1 147 0
 327 0014 FFF7FEBF 		b	CapSense_CompCH0_Enable
 328              	.LVL13:
 329              	.L35:
 330              		.align	2
 331              	.L34:
 332 0018 00000000 		.word	.LANCHOR0
 333              		.cfi_endproc
 334              	.LFE2:
 335              		.size	CapSense_CompCH0_Start, .-CapSense_CompCH0_Start
 336              		.section	.text.CapSense_CompCH0_GetCompare,"ax",%progbits
ARM GAS  C:\Users\Xwx47\AppData\Local\Temp\ccDPbGAs.s 			page 14


 337              		.align	1
 338              		.global	CapSense_CompCH0_GetCompare
 339              		.thumb
 340              		.thumb_func
 341              		.type	CapSense_CompCH0_GetCompare, %function
 342              	CapSense_CompCH0_GetCompare:
 343              	.LFB5:
 252:.\Generated_Source\PSoC5/CapSense_CompCH0.c **** {
 344              		.loc 1 252 0
 345              		.cfi_startproc
 346              		@ args = 0, pretend = 0, frame = 0
 347              		@ frame_needed = 0, uses_anonymous_args = 0
 348              		@ link register save eliminated.
 253:.\Generated_Source\PSoC5/CapSense_CompCH0.c ****     return( CapSense_CompCH0_WRK & CapSense_CompCH0_CMP_OUT_MASK);
 349              		.loc 1 253 0
 350 0000 024B     		ldr	r3, .L37
 351 0002 1878     		ldrb	r0, [r3]	@ zero_extendqisi2
 254:.\Generated_Source\PSoC5/CapSense_CompCH0.c **** }
 352              		.loc 1 254 0
 353 0004 00F00200 		and	r0, r0, #2
 354 0008 7047     		bx	lr
 355              	.L38:
 356 000a 00BF     		.align	2
 357              	.L37:
 358 000c 965B0040 		.word	1073765270
 359              		.cfi_endproc
 360              	.LFE5:
 361              		.size	CapSense_CompCH0_GetCompare, .-CapSense_CompCH0_GetCompare
 362              		.section	.text.CapSense_CompCH0_ZeroCal,"ax",%progbits
 363              		.align	1
 364              		.global	CapSense_CompCH0_ZeroCal
 365              		.thumb
 366              		.thumb_func
 367              		.type	CapSense_CompCH0_ZeroCal, %function
 368              	CapSense_CompCH0_ZeroCal:
 369              	.LFB7:
 373:.\Generated_Source\PSoC5/CapSense_CompCH0.c ****         {
 374:.\Generated_Source\PSoC5/CapSense_CompCH0.c ****             break;      /* output changed state, trim phase is complete */
 375:.\Generated_Source\PSoC5/CapSense_CompCH0.c ****         }        
 376:.\Generated_Source\PSoC5/CapSense_CompCH0.c ****     }    
 377:.\Generated_Source\PSoC5/CapSense_CompCH0.c **** }
 378:.\Generated_Source\PSoC5/CapSense_CompCH0.c **** 
 379:.\Generated_Source\PSoC5/CapSense_CompCH0.c **** 
 380:.\Generated_Source\PSoC5/CapSense_CompCH0.c **** /*******************************************************************************
 381:.\Generated_Source\PSoC5/CapSense_CompCH0.c **** * Function Name: CapSense_CompCH0_ZeroCal
 382:.\Generated_Source\PSoC5/CapSense_CompCH0.c **** ********************************************************************************
 383:.\Generated_Source\PSoC5/CapSense_CompCH0.c **** *
 384:.\Generated_Source\PSoC5/CapSense_CompCH0.c **** * Summary:
 385:.\Generated_Source\PSoC5/CapSense_CompCH0.c **** *  This function calibrates the offset of the Analog Comparator.
 386:.\Generated_Source\PSoC5/CapSense_CompCH0.c **** *
 387:.\Generated_Source\PSoC5/CapSense_CompCH0.c **** * Parameters:
 388:.\Generated_Source\PSoC5/CapSense_CompCH0.c **** *  None
 389:.\Generated_Source\PSoC5/CapSense_CompCH0.c **** *
 390:.\Generated_Source\PSoC5/CapSense_CompCH0.c **** * Return:
 391:.\Generated_Source\PSoC5/CapSense_CompCH0.c **** *  (uint16)  value written in trim register when calibration complete.
 392:.\Generated_Source\PSoC5/CapSense_CompCH0.c **** *
 393:.\Generated_Source\PSoC5/CapSense_CompCH0.c **** * Theory: 
ARM GAS  C:\Users\Xwx47\AppData\Local\Temp\ccDPbGAs.s 			page 15


 394:.\Generated_Source\PSoC5/CapSense_CompCH0.c **** *  This function is used to optimize the calibration for user specific voltage
 395:.\Generated_Source\PSoC5/CapSense_CompCH0.c **** *  range.  The comparator trim is adjusted to counter transistor offsets
 396:.\Generated_Source\PSoC5/CapSense_CompCH0.c **** *   - offset is defined as positive if the output transitions to high before inP
 397:.\Generated_Source\PSoC5/CapSense_CompCH0.c **** *     is greater than inN
 398:.\Generated_Source\PSoC5/CapSense_CompCH0.c **** *   - offset is defined as negative if the output transitions to high after inP
 399:.\Generated_Source\PSoC5/CapSense_CompCH0.c **** *     is greater than inP
 400:.\Generated_Source\PSoC5/CapSense_CompCH0.c **** *
 401:.\Generated_Source\PSoC5/CapSense_CompCH0.c **** *  PSoC5A
 402:.\Generated_Source\PSoC5/CapSense_CompCH0.c **** *  The Analog Comparator provides 1 byte for offset trim.  The byte contains two
 403:.\Generated_Source\PSoC5/CapSense_CompCH0.c **** *  4 bit trim fields - one is a course trim and the other allows smaller
 404:.\Generated_Source\PSoC5/CapSense_CompCH0.c **** *  offset adjustments only for slow modes.
 405:.\Generated_Source\PSoC5/CapSense_CompCH0.c **** *  - low nibble - fine trim
 406:.\Generated_Source\PSoC5/CapSense_CompCH0.c **** *  - high nibble - course trim
 407:.\Generated_Source\PSoC5/CapSense_CompCH0.c **** *  PSoC3, PSoC5LP or later
 408:.\Generated_Source\PSoC5/CapSense_CompCH0.c **** *  The Analog Comparator provides 2 bytes for offset trim.  The bytes contain two
 409:.\Generated_Source\PSoC5/CapSense_CompCH0.c **** *  5 bit trim fields - one is a course trim and the other allows smaller
 410:.\Generated_Source\PSoC5/CapSense_CompCH0.c **** *  offset adjustments only for slow modes.
 411:.\Generated_Source\PSoC5/CapSense_CompCH0.c **** *  - TR0 - fine trim
 412:.\Generated_Source\PSoC5/CapSense_CompCH0.c **** *  - TR1 - course trim
 413:.\Generated_Source\PSoC5/CapSense_CompCH0.c **** *
 414:.\Generated_Source\PSoC5/CapSense_CompCH0.c **** *  Trim algorithm is a two phase process
 415:.\Generated_Source\PSoC5/CapSense_CompCH0.c **** *  The first phase performs course offset adjustment
 416:.\Generated_Source\PSoC5/CapSense_CompCH0.c **** *  The second phase serves one of two purposes depending on the outcome of the
 417:.\Generated_Source\PSoC5/CapSense_CompCH0.c **** *  first phase
 418:.\Generated_Source\PSoC5/CapSense_CompCH0.c **** *  - if the first trim value was maxed out without a comparator output 
 419:.\Generated_Source\PSoC5/CapSense_CompCH0.c **** *    transition, more offset will be added by adjusting the second trim value.
 420:.\Generated_Source\PSoC5/CapSense_CompCH0.c **** *  - if the first trim phase resulted in a comparator output transition, the
 421:.\Generated_Source\PSoC5/CapSense_CompCH0.c **** *    second trim value will serve as fine trim (in the opposite direction)to
 422:.\Generated_Source\PSoC5/CapSense_CompCH0.c **** *    ensure the offset is < 1 mV.
 423:.\Generated_Source\PSoC5/CapSense_CompCH0.c **** *
 424:.\Generated_Source\PSoC5/CapSense_CompCH0.c **** * Trim Process:   
 425:.\Generated_Source\PSoC5/CapSense_CompCH0.c **** *  1) User applies a voltage to the negative input.  Voltage should be in the
 426:.\Generated_Source\PSoC5/CapSense_CompCH0.c **** *     comparator operating range or an average of the operating voltage range.
 427:.\Generated_Source\PSoC5/CapSense_CompCH0.c **** *  2) Clear registers associated with analog routing to the positive input.
 428:.\Generated_Source\PSoC5/CapSense_CompCH0.c **** *  3) Disable Hysteresis
 429:.\Generated_Source\PSoC5/CapSense_CompCH0.c **** *  4) Set the calibration bit to short the negative and positive inputs to
 430:.\Generated_Source\PSoC5/CapSense_CompCH0.c **** *     the users calibration voltage.
 431:.\Generated_Source\PSoC5/CapSense_CompCH0.c **** *  5) Clear the TR register  ( TR = 0x00 )
 432:.\Generated_Source\PSoC5/CapSense_CompCH0.c **** *  ** LOW MODES
 433:.\Generated_Source\PSoC5/CapSense_CompCH0.c **** *  6) Check if compare output is high, if so, set the MSb of course trim field 
 434:.\Generated_Source\PSoC5/CapSense_CompCH0.c **** *     to a 1.
 435:.\Generated_Source\PSoC5/CapSense_CompCH0.c **** *  7) Increment the course trim field until the compare output changes
 436:.\Generated_Source\PSoC5/CapSense_CompCH0.c **** *  8) Check if compare output is low, if so, set the MSb of fine trim field
 437:.\Generated_Source\PSoC5/CapSense_CompCH0.c **** *     to a 1.
 438:.\Generated_Source\PSoC5/CapSense_CompCH0.c **** *  9) Increment the fine trim field until the compare output changes
 439:.\Generated_Source\PSoC5/CapSense_CompCH0.c **** *  ** FAST MODE - skip the steps 8,9
 440:.\Generated_Source\PSoC5/CapSense_CompCH0.c **** *
 441:.\Generated_Source\PSoC5/CapSense_CompCH0.c **** * Side Effects:
 442:.\Generated_Source\PSoC5/CapSense_CompCH0.c **** *  Routine clears analog routing associated with the comparator positive input.  
 443:.\Generated_Source\PSoC5/CapSense_CompCH0.c **** *  This may affect routing of signals from other components that are connected
 444:.\Generated_Source\PSoC5/CapSense_CompCH0.c **** *  to the positive input of the comparator.
 445:.\Generated_Source\PSoC5/CapSense_CompCH0.c **** *
 446:.\Generated_Source\PSoC5/CapSense_CompCH0.c **** *******************************************************************************/
 447:.\Generated_Source\PSoC5/CapSense_CompCH0.c **** uint16 CapSense_CompCH0_ZeroCal(void) 
 448:.\Generated_Source\PSoC5/CapSense_CompCH0.c **** {
 370              		.loc 1 448 0
 371              		.cfi_startproc
ARM GAS  C:\Users\Xwx47\AppData\Local\Temp\ccDPbGAs.s 			page 16


 372              		@ args = 0, pretend = 0, frame = 0
 373              		@ frame_needed = 0, uses_anonymous_args = 0
 374 0000 2DE9F84F 		push	{r3, r4, r5, r6, r7, r8, r9, r10, fp, lr}
 375              		.cfi_def_cfa_offset 40
 376              		.cfi_offset 3, -40
 377              		.cfi_offset 4, -36
 378              		.cfi_offset 5, -32
 379              		.cfi_offset 6, -28
 380              		.cfi_offset 7, -24
 381              		.cfi_offset 8, -20
 382              		.cfi_offset 9, -16
 383              		.cfi_offset 10, -12
 384              		.cfi_offset 11, -8
 385              		.cfi_offset 14, -4
 449:.\Generated_Source\PSoC5/CapSense_CompCH0.c ****     uint8 tmpSW0;
 450:.\Generated_Source\PSoC5/CapSense_CompCH0.c ****     uint8 tmpSW2;
 451:.\Generated_Source\PSoC5/CapSense_CompCH0.c ****     uint8 tmpSW3;
 452:.\Generated_Source\PSoC5/CapSense_CompCH0.c ****     uint8 tmpCR;
 453:.\Generated_Source\PSoC5/CapSense_CompCH0.c **** 
 454:.\Generated_Source\PSoC5/CapSense_CompCH0.c ****     /* Save a copy of routing registers associated with inP */
 455:.\Generated_Source\PSoC5/CapSense_CompCH0.c ****     tmpSW0 = CapSense_CompCH0_SW0;
 456:.\Generated_Source\PSoC5/CapSense_CompCH0.c ****     tmpSW2 = CapSense_CompCH0_SW2;
 457:.\Generated_Source\PSoC5/CapSense_CompCH0.c ****     tmpSW3 = CapSense_CompCH0_SW3;
 386              		.loc 1 457 0
 387 0004 2049     		ldr	r1, .L43
 455:.\Generated_Source\PSoC5/CapSense_CompCH0.c ****     tmpSW0 = CapSense_CompCH0_SW0;
 388              		.loc 1 455 0
 389 0006 214B     		ldr	r3, .L43+4
 456:.\Generated_Source\PSoC5/CapSense_CompCH0.c ****     tmpSW2 = CapSense_CompCH0_SW2;
 390              		.loc 1 456 0
 391 0008 214E     		ldr	r6, .L43+8
 455:.\Generated_Source\PSoC5/CapSense_CompCH0.c ****     tmpSW0 = CapSense_CompCH0_SW0;
 392              		.loc 1 455 0
 393 000a 93F80090 		ldrb	r9, [r3]	@ zero_extendqisi2
 456:.\Generated_Source\PSoC5/CapSense_CompCH0.c ****     tmpSW2 = CapSense_CompCH0_SW2;
 394              		.loc 1 456 0
 395 000e 3778     		ldrb	r7, [r6]	@ zero_extendqisi2
 396              		.loc 1 457 0
 397 0010 0C78     		ldrb	r4, [r1]	@ zero_extendqisi2
 458:.\Generated_Source\PSoC5/CapSense_CompCH0.c **** 
 459:.\Generated_Source\PSoC5/CapSense_CompCH0.c ****      /* Clear routing for inP, retain routing for inN */
 460:.\Generated_Source\PSoC5/CapSense_CompCH0.c ****     CapSense_CompCH0_SW0 = 0x00u;
 398              		.loc 1 460 0
 399 0012 4FF0000A 		mov	r10, #0
 457:.\Generated_Source\PSoC5/CapSense_CompCH0.c ****     tmpSW3 = CapSense_CompCH0_SW3;
 400              		.loc 1 457 0
 401 0016 E4B2     		uxtb	r4, r4
 461:.\Generated_Source\PSoC5/CapSense_CompCH0.c ****     CapSense_CompCH0_SW2 = 0x00u;
 462:.\Generated_Source\PSoC5/CapSense_CompCH0.c ****     CapSense_CompCH0_SW3 = tmpSW3 & (uint8)(~CapSense_CompCH0_CMP_SW3_INPCTL_MASK);
 402              		.loc 1 462 0
 403 0018 04F0F602 		and	r2, r4, #246
 460:.\Generated_Source\PSoC5/CapSense_CompCH0.c ****     CapSense_CompCH0_SW0 = 0x00u;
 404              		.loc 1 460 0
 405 001c 83F800A0 		strb	r10, [r3]
 461:.\Generated_Source\PSoC5/CapSense_CompCH0.c ****     CapSense_CompCH0_SW2 = 0x00u;
 406              		.loc 1 461 0
 407 0020 86F800A0 		strb	r10, [r6]
ARM GAS  C:\Users\Xwx47\AppData\Local\Temp\ccDPbGAs.s 			page 17


 408              		.loc 1 462 0
 409 0024 0A70     		strb	r2, [r1]
 463:.\Generated_Source\PSoC5/CapSense_CompCH0.c **** 
 464:.\Generated_Source\PSoC5/CapSense_CompCH0.c ****     /* Preserve original configuration
 465:.\Generated_Source\PSoC5/CapSense_CompCH0.c ****      * - turn off Hysteresis
 466:.\Generated_Source\PSoC5/CapSense_CompCH0.c ****      * - set calibration bit - shorts inN to inP
 467:.\Generated_Source\PSoC5/CapSense_CompCH0.c ****     */
 468:.\Generated_Source\PSoC5/CapSense_CompCH0.c ****     tmpCR = CapSense_CompCH0_CR;
 410              		.loc 1 468 0
 411 0026 1B4A     		ldr	r2, .L43+12
 469:.\Generated_Source\PSoC5/CapSense_CompCH0.c ****     CapSense_CompCH0_CR |= (CapSense_CompCH0_CAL_ON | CapSense_CompCH0_HYST_OFF);
 470:.\Generated_Source\PSoC5/CapSense_CompCH0.c ****     
 471:.\Generated_Source\PSoC5/CapSense_CompCH0.c ****     /* Write default low values to trim register - no offset adjust */
 472:.\Generated_Source\PSoC5/CapSense_CompCH0.c ****     /* PSoC5A */
 473:.\Generated_Source\PSoC5/CapSense_CompCH0.c ****     #if (CY_PSOC5A)
 474:.\Generated_Source\PSoC5/CapSense_CompCH0.c ****         CapSense_CompCH0_TR = CapSense_CompCH0_DEFAULT_CMP_TRIM;
 475:.\Generated_Source\PSoC5/CapSense_CompCH0.c ****     #endif /* CY_PSOC5A */
 476:.\Generated_Source\PSoC5/CapSense_CompCH0.c ****     
 477:.\Generated_Source\PSoC5/CapSense_CompCH0.c ****     /* PSoC3, PSoC5LP or later */
 478:.\Generated_Source\PSoC5/CapSense_CompCH0.c ****     #if (CY_PSOC3 || CY_PSOC5LP)
 479:.\Generated_Source\PSoC5/CapSense_CompCH0.c ****         CapSense_CompCH0_TR0 = CapSense_CompCH0_DEFAULT_CMP_TRIM;
 480:.\Generated_Source\PSoC5/CapSense_CompCH0.c ****         CapSense_CompCH0_TR1 = CapSense_CompCH0_DEFAULT_CMP_TRIM;
 412              		.loc 1 480 0
 413 0028 1B4D     		ldr	r5, .L43+16
 468:.\Generated_Source\PSoC5/CapSense_CompCH0.c ****     tmpCR = CapSense_CompCH0_CR;
 414              		.loc 1 468 0
 415 002a 92F800B0 		ldrb	fp, [r2]	@ zero_extendqisi2
 469:.\Generated_Source\PSoC5/CapSense_CompCH0.c ****     CapSense_CompCH0_CR |= (CapSense_CompCH0_CAL_ON | CapSense_CompCH0_HYST_OFF);
 416              		.loc 1 469 0
 417 002e 1078     		ldrb	r0, [r2]	@ zero_extendqisi2
 455:.\Generated_Source\PSoC5/CapSense_CompCH0.c ****     tmpSW0 = CapSense_CompCH0_SW0;
 418              		.loc 1 455 0
 419 0030 5FFA89F9 		uxtb	r9, r9
 420              	.LVL14:
 469:.\Generated_Source\PSoC5/CapSense_CompCH0.c ****     CapSense_CompCH0_CR |= (CapSense_CompCH0_CAL_ON | CapSense_CompCH0_HYST_OFF);
 421              		.loc 1 469 0
 422 0034 40F03000 		orr	r0, r0, #48
 423 0038 1070     		strb	r0, [r2]
 479:.\Generated_Source\PSoC5/CapSense_CompCH0.c ****         CapSense_CompCH0_TR0 = CapSense_CompCH0_DEFAULT_CMP_TRIM;
 424              		.loc 1 479 0
 425 003a 1848     		ldr	r0, .L43+20
 456:.\Generated_Source\PSoC5/CapSense_CompCH0.c ****     tmpSW2 = CapSense_CompCH0_SW2;
 426              		.loc 1 456 0
 427 003c FFB2     		uxtb	r7, r7
 428              	.LVL15:
 479:.\Generated_Source\PSoC5/CapSense_CompCH0.c ****         CapSense_CompCH0_TR0 = CapSense_CompCH0_DEFAULT_CMP_TRIM;
 429              		.loc 1 479 0
 430 003e 80F800A0 		strb	r10, [r0]
 431              		.loc 1 480 0
 432 0042 85F800A0 		strb	r10, [r5]
 481:.\Generated_Source\PSoC5/CapSense_CompCH0.c ****     #endif /* CY_PSOC3 || CY_PSOC5LP */
 482:.\Generated_Source\PSoC5/CapSense_CompCH0.c **** 	
 483:.\Generated_Source\PSoC5/CapSense_CompCH0.c **** 	/* Two phase trim - slow modes, one phase trim - for fast */ 
 484:.\Generated_Source\PSoC5/CapSense_CompCH0.c ****     if ( (CapSense_CompCH0_CR & CapSense_CompCH0_PWR_MODE_MASK) == CapSense_CompCH0_PWR_MODE_FAST)
 433              		.loc 1 484 0
 434 0046 92F800E0 		ldrb	lr, [r2]	@ zero_extendqisi2
 468:.\Generated_Source\PSoC5/CapSense_CompCH0.c ****     tmpCR = CapSense_CompCH0_CR;
ARM GAS  C:\Users\Xwx47\AppData\Local\Temp\ccDPbGAs.s 			page 18


 435              		.loc 1 468 0
 436 004a 5FFA8BFB 		uxtb	fp, fp
 437              	.LVL16:
 438              		.loc 1 484 0
 439 004e 0EF0030E 		and	lr, lr, #3
 440 0052 BEF1010F 		cmp	lr, #1
 441 0056 9846     		mov	r8, r3
 442 0058 02D0     		beq	.L42
 485:.\Generated_Source\PSoC5/CapSense_CompCH0.c ****     {
 486:.\Generated_Source\PSoC5/CapSense_CompCH0.c ****         CapSense_CompCH0_trimAdjust(0u);
 487:.\Generated_Source\PSoC5/CapSense_CompCH0.c ****     }
 488:.\Generated_Source\PSoC5/CapSense_CompCH0.c ****     else /* default to trim for fast modes */
 489:.\Generated_Source\PSoC5/CapSense_CompCH0.c ****     {
 490:.\Generated_Source\PSoC5/CapSense_CompCH0.c ****         CapSense_CompCH0_trimAdjust(1u);
 443              		.loc 1 490 0
 444 005a 0120     		movs	r0, #1
 445 005c FFF7FEFF 		bl	CapSense_CompCH0_trimAdjust
 446              	.LVL17:
 447              	.L42:
 491:.\Generated_Source\PSoC5/CapSense_CompCH0.c **** 		CapSense_CompCH0_trimAdjust(0u);
 448              		.loc 1 491 0
 449 0060 5046     		mov	r0, r10
 450 0062 FFF7FEFF 		bl	CapSense_CompCH0_trimAdjust
 451              	.LVL18:
 492:.\Generated_Source\PSoC5/CapSense_CompCH0.c ****     }
 493:.\Generated_Source\PSoC5/CapSense_CompCH0.c ****    
 494:.\Generated_Source\PSoC5/CapSense_CompCH0.c ****     /* Restore Config Register */
 495:.\Generated_Source\PSoC5/CapSense_CompCH0.c ****     CapSense_CompCH0_CR = tmpCR;
 452              		.loc 1 495 0
 453 0066 0B4A     		ldr	r2, .L43+12
 496:.\Generated_Source\PSoC5/CapSense_CompCH0.c ****     
 497:.\Generated_Source\PSoC5/CapSense_CompCH0.c ****     /* Restore routing registers for inP */
 498:.\Generated_Source\PSoC5/CapSense_CompCH0.c ****     CapSense_CompCH0_SW0 = tmpSW0;
 499:.\Generated_Source\PSoC5/CapSense_CompCH0.c ****     CapSense_CompCH0_SW2 = tmpSW2;
 500:.\Generated_Source\PSoC5/CapSense_CompCH0.c ****     CapSense_CompCH0_SW3 = tmpSW3;
 454              		.loc 1 500 0
 455 0068 074B     		ldr	r3, .L43
 495:.\Generated_Source\PSoC5/CapSense_CompCH0.c ****     CapSense_CompCH0_CR = tmpCR;
 456              		.loc 1 495 0
 457 006a 82F800B0 		strb	fp, [r2]
 501:.\Generated_Source\PSoC5/CapSense_CompCH0.c ****     
 502:.\Generated_Source\PSoC5/CapSense_CompCH0.c ****     /* PSoC5A */
 503:.\Generated_Source\PSoC5/CapSense_CompCH0.c ****     #if (CY_PSOC5A)
 504:.\Generated_Source\PSoC5/CapSense_CompCH0.c ****         return (uint16) CapSense_CompCH0_TR;
 505:.\Generated_Source\PSoC5/CapSense_CompCH0.c ****     #endif /* CY_PSOC5A */
 506:.\Generated_Source\PSoC5/CapSense_CompCH0.c ****     
 507:.\Generated_Source\PSoC5/CapSense_CompCH0.c ****     /* PSoC3, PSoC5LP or later */
 508:.\Generated_Source\PSoC5/CapSense_CompCH0.c ****     #if (CY_PSOC3 || CY_PSOC5LP)
 509:.\Generated_Source\PSoC5/CapSense_CompCH0.c ****         return ((uint16)((uint16)CapSense_CompCH0_TR1 << 8u) | (CapSense_CompCH0_TR0));        
 458              		.loc 1 509 0
 459 006e A2F59052 		sub	r2, r2, #4608
 498:.\Generated_Source\PSoC5/CapSense_CompCH0.c ****     CapSense_CompCH0_SW0 = tmpSW0;
 460              		.loc 1 498 0
 461 0072 88F80090 		strb	r9, [r8]
 462              		.loc 1 509 0
 463 0076 0F3A     		subs	r2, r2, #15
 499:.\Generated_Source\PSoC5/CapSense_CompCH0.c ****     CapSense_CompCH0_SW2 = tmpSW2;
ARM GAS  C:\Users\Xwx47\AppData\Local\Temp\ccDPbGAs.s 			page 19


 464              		.loc 1 499 0
 465 0078 3770     		strb	r7, [r6]
 500:.\Generated_Source\PSoC5/CapSense_CompCH0.c ****     CapSense_CompCH0_SW3 = tmpSW3;
 466              		.loc 1 500 0
 467 007a 1C70     		strb	r4, [r3]
 468              		.loc 1 509 0
 469 007c 2878     		ldrb	r0, [r5]	@ zero_extendqisi2
 470 007e 1378     		ldrb	r3, [r2]	@ zero_extendqisi2
 510:.\Generated_Source\PSoC5/CapSense_CompCH0.c ****     #endif /* CY_PSOC3 || CY_PSOC5LP */
 511:.\Generated_Source\PSoC5/CapSense_CompCH0.c **** }
 471              		.loc 1 511 0
 472 0080 43EA0020 		orr	r0, r3, r0, lsl #8
 473 0084 BDE8F88F 		pop	{r3, r4, r5, r6, r7, r8, r9, r10, fp, pc}
 474              	.LVL19:
 475              	.L44:
 476              		.align	2
 477              	.L43:
 478 0088 CB5A0040 		.word	1073765067
 479 008c C85A0040 		.word	1073765064
 480 0090 CA5A0040 		.word	1073765066
 481 0094 41580040 		.word	1073764417
 482 0098 33460040 		.word	1073759795
 483 009c 32460040 		.word	1073759794
 484              		.cfi_endproc
 485              	.LFE7:
 486              		.size	CapSense_CompCH0_ZeroCal, .-CapSense_CompCH0_ZeroCal
 487              		.section	.text.CapSense_CompCH0_LoadTrim,"ax",%progbits
 488              		.align	1
 489              		.global	CapSense_CompCH0_LoadTrim
 490              		.thumb
 491              		.thumb_func
 492              		.type	CapSense_CompCH0_LoadTrim, %function
 493              	CapSense_CompCH0_LoadTrim:
 494              	.LFB8:
 512:.\Generated_Source\PSoC5/CapSense_CompCH0.c **** 
 513:.\Generated_Source\PSoC5/CapSense_CompCH0.c **** 
 514:.\Generated_Source\PSoC5/CapSense_CompCH0.c **** /*******************************************************************************
 515:.\Generated_Source\PSoC5/CapSense_CompCH0.c **** * Function Name: CapSense_CompCH0_LoadTrim
 516:.\Generated_Source\PSoC5/CapSense_CompCH0.c **** ********************************************************************************
 517:.\Generated_Source\PSoC5/CapSense_CompCH0.c **** *
 518:.\Generated_Source\PSoC5/CapSense_CompCH0.c **** * Summary:
 519:.\Generated_Source\PSoC5/CapSense_CompCH0.c **** *  This function stores a value in the Analog Comparator trim register.
 520:.\Generated_Source\PSoC5/CapSense_CompCH0.c **** *
 521:.\Generated_Source\PSoC5/CapSense_CompCH0.c **** * Parameters:  
 522:.\Generated_Source\PSoC5/CapSense_CompCH0.c **** *  uint8 trimVal - trim value.  This value is the same format as the value 
 523:.\Generated_Source\PSoC5/CapSense_CompCH0.c **** *  returned by the _ZeroCal routine.
 524:.\Generated_Source\PSoC5/CapSense_CompCH0.c **** *
 525:.\Generated_Source\PSoC5/CapSense_CompCH0.c **** * Return:
 526:.\Generated_Source\PSoC5/CapSense_CompCH0.c **** *  None
 527:.\Generated_Source\PSoC5/CapSense_CompCH0.c **** *
 528:.\Generated_Source\PSoC5/CapSense_CompCH0.c **** *******************************************************************************/
 529:.\Generated_Source\PSoC5/CapSense_CompCH0.c **** void CapSense_CompCH0_LoadTrim(uint16 trimVal) 
 530:.\Generated_Source\PSoC5/CapSense_CompCH0.c **** {
 495              		.loc 1 530 0
 496              		.cfi_startproc
 497              		@ args = 0, pretend = 0, frame = 0
 498              		@ frame_needed = 0, uses_anonymous_args = 0
ARM GAS  C:\Users\Xwx47\AppData\Local\Temp\ccDPbGAs.s 			page 20


 499              		@ link register save eliminated.
 500              	.LVL20:
 531:.\Generated_Source\PSoC5/CapSense_CompCH0.c ****     /* Stores value in the Analog Comparator trim register */
 532:.\Generated_Source\PSoC5/CapSense_CompCH0.c ****     /* PSoC5A */
 533:.\Generated_Source\PSoC5/CapSense_CompCH0.c ****     #if (CY_PSOC5A)
 534:.\Generated_Source\PSoC5/CapSense_CompCH0.c ****         CapSense_CompCH0_TR = (uint8) trimVal;
 535:.\Generated_Source\PSoC5/CapSense_CompCH0.c ****     #endif /* CY_PSOC5A */
 536:.\Generated_Source\PSoC5/CapSense_CompCH0.c ****     
 537:.\Generated_Source\PSoC5/CapSense_CompCH0.c ****     /* PSoC3, PSoC5LP or later */
 538:.\Generated_Source\PSoC5/CapSense_CompCH0.c ****     #if (CY_PSOC3 || CY_PSOC5LP)
 539:.\Generated_Source\PSoC5/CapSense_CompCH0.c ****         /* Stores value in the Analog Comparator trim register for P-type load */
 540:.\Generated_Source\PSoC5/CapSense_CompCH0.c ****         CapSense_CompCH0_TR0 = (uint8) trimVal;
 501              		.loc 1 540 0
 502 0000 024B     		ldr	r3, .L46
 503 0002 C2B2     		uxtb	r2, r0
 541:.\Generated_Source\PSoC5/CapSense_CompCH0.c ****         
 542:.\Generated_Source\PSoC5/CapSense_CompCH0.c ****         /* Stores value in the Analog Comparator trim register for N-type load */
 543:.\Generated_Source\PSoC5/CapSense_CompCH0.c ****         CapSense_CompCH0_TR1 = (uint8) (trimVal >> 8); 
 504              		.loc 1 543 0
 505 0004 000A     		lsrs	r0, r0, #8
 506              	.LVL21:
 540:.\Generated_Source\PSoC5/CapSense_CompCH0.c ****         CapSense_CompCH0_TR0 = (uint8) trimVal;
 507              		.loc 1 540 0
 508 0006 1A70     		strb	r2, [r3]
 509              		.loc 1 543 0
 510 0008 5870     		strb	r0, [r3, #1]
 511 000a 7047     		bx	lr
 512              	.L47:
 513              		.align	2
 514              	.L46:
 515 000c 32460040 		.word	1073759794
 516              		.cfi_endproc
 517              	.LFE8:
 518              		.size	CapSense_CompCH0_LoadTrim, .-CapSense_CompCH0_LoadTrim
 519              		.section	.text.CapSense_CompCH0_PwrDwnOverrideEnable,"ax",%progbits
 520              		.align	1
 521              		.global	CapSense_CompCH0_PwrDwnOverrideEnable
 522              		.thumb
 523              		.thumb_func
 524              		.type	CapSense_CompCH0_PwrDwnOverrideEnable, %function
 525              	CapSense_CompCH0_PwrDwnOverrideEnable:
 526              	.LFB9:
 544:.\Generated_Source\PSoC5/CapSense_CompCH0.c ****     #endif /* CY_PSOC3 || CY_PSOC5LP */
 545:.\Generated_Source\PSoC5/CapSense_CompCH0.c **** }
 546:.\Generated_Source\PSoC5/CapSense_CompCH0.c **** 
 547:.\Generated_Source\PSoC5/CapSense_CompCH0.c **** 
 548:.\Generated_Source\PSoC5/CapSense_CompCH0.c **** #if (CY_PSOC3 || CY_PSOC5LP)
 549:.\Generated_Source\PSoC5/CapSense_CompCH0.c **** 
 550:.\Generated_Source\PSoC5/CapSense_CompCH0.c ****     /*******************************************************************************
 551:.\Generated_Source\PSoC5/CapSense_CompCH0.c ****     * Function Name: CapSense_CompCH0_PwrDwnOverrideEnable
 552:.\Generated_Source\PSoC5/CapSense_CompCH0.c ****     ********************************************************************************
 553:.\Generated_Source\PSoC5/CapSense_CompCH0.c ****     *
 554:.\Generated_Source\PSoC5/CapSense_CompCH0.c ****     * Summary:
 555:.\Generated_Source\PSoC5/CapSense_CompCH0.c ****     *  This is the power down over-ride feature. This function ignores sleep 
 556:.\Generated_Source\PSoC5/CapSense_CompCH0.c ****     *  parameter and allows the component to stay active during sleep mode.
 557:.\Generated_Source\PSoC5/CapSense_CompCH0.c ****     *
 558:.\Generated_Source\PSoC5/CapSense_CompCH0.c ****     * Parameters:
ARM GAS  C:\Users\Xwx47\AppData\Local\Temp\ccDPbGAs.s 			page 21


 559:.\Generated_Source\PSoC5/CapSense_CompCH0.c ****     *  None
 560:.\Generated_Source\PSoC5/CapSense_CompCH0.c ****     *
 561:.\Generated_Source\PSoC5/CapSense_CompCH0.c ****     * Return:
 562:.\Generated_Source\PSoC5/CapSense_CompCH0.c ****     *  None
 563:.\Generated_Source\PSoC5/CapSense_CompCH0.c ****     *
 564:.\Generated_Source\PSoC5/CapSense_CompCH0.c ****     *******************************************************************************/
 565:.\Generated_Source\PSoC5/CapSense_CompCH0.c ****     void CapSense_CompCH0_PwrDwnOverrideEnable(void) 
 566:.\Generated_Source\PSoC5/CapSense_CompCH0.c ****     {
 527              		.loc 1 566 0
 528              		.cfi_startproc
 529              		@ args = 0, pretend = 0, frame = 0
 530              		@ frame_needed = 0, uses_anonymous_args = 0
 531              		@ link register save eliminated.
 567:.\Generated_Source\PSoC5/CapSense_CompCH0.c ****         /* Set the pd_override bit in CMP_CR register */
 568:.\Generated_Source\PSoC5/CapSense_CompCH0.c ****         CapSense_CompCH0_CR |= CapSense_CompCH0_PWRDWN_OVRD;
 532              		.loc 1 568 0
 533 0000 024B     		ldr	r3, .L49
 534 0002 1A78     		ldrb	r2, [r3]	@ zero_extendqisi2
 535 0004 42F00402 		orr	r2, r2, #4
 536 0008 1A70     		strb	r2, [r3]
 537 000a 7047     		bx	lr
 538              	.L50:
 539              		.align	2
 540              	.L49:
 541 000c 41580040 		.word	1073764417
 542              		.cfi_endproc
 543              	.LFE9:
 544              		.size	CapSense_CompCH0_PwrDwnOverrideEnable, .-CapSense_CompCH0_PwrDwnOverrideEnable
 545              		.section	.text.CapSense_CompCH0_PwrDwnOverrideDisable,"ax",%progbits
 546              		.align	1
 547              		.global	CapSense_CompCH0_PwrDwnOverrideDisable
 548              		.thumb
 549              		.thumb_func
 550              		.type	CapSense_CompCH0_PwrDwnOverrideDisable, %function
 551              	CapSense_CompCH0_PwrDwnOverrideDisable:
 552              	.LFB10:
 569:.\Generated_Source\PSoC5/CapSense_CompCH0.c ****     }
 570:.\Generated_Source\PSoC5/CapSense_CompCH0.c **** 
 571:.\Generated_Source\PSoC5/CapSense_CompCH0.c **** 
 572:.\Generated_Source\PSoC5/CapSense_CompCH0.c ****     /*******************************************************************************
 573:.\Generated_Source\PSoC5/CapSense_CompCH0.c ****     * Function Name: CapSense_CompCH0_PwrDwnOverrideDisable
 574:.\Generated_Source\PSoC5/CapSense_CompCH0.c ****     ********************************************************************************
 575:.\Generated_Source\PSoC5/CapSense_CompCH0.c ****     *
 576:.\Generated_Source\PSoC5/CapSense_CompCH0.c ****     * Summary:
 577:.\Generated_Source\PSoC5/CapSense_CompCH0.c ****     *  This is the power down over-ride feature. This allows the component to stay
 578:.\Generated_Source\PSoC5/CapSense_CompCH0.c ****     *  inactive during sleep.
 579:.\Generated_Source\PSoC5/CapSense_CompCH0.c ****     *
 580:.\Generated_Source\PSoC5/CapSense_CompCH0.c ****     * Parameters:
 581:.\Generated_Source\PSoC5/CapSense_CompCH0.c ****     *  None
 582:.\Generated_Source\PSoC5/CapSense_CompCH0.c ****     *
 583:.\Generated_Source\PSoC5/CapSense_CompCH0.c ****     * Return:
 584:.\Generated_Source\PSoC5/CapSense_CompCH0.c ****     *  None
 585:.\Generated_Source\PSoC5/CapSense_CompCH0.c ****     *
 586:.\Generated_Source\PSoC5/CapSense_CompCH0.c ****     *******************************************************************************/
 587:.\Generated_Source\PSoC5/CapSense_CompCH0.c ****     void CapSense_CompCH0_PwrDwnOverrideDisable(void) 
 588:.\Generated_Source\PSoC5/CapSense_CompCH0.c ****     {
 553              		.loc 1 588 0
ARM GAS  C:\Users\Xwx47\AppData\Local\Temp\ccDPbGAs.s 			page 22


 554              		.cfi_startproc
 555              		@ args = 0, pretend = 0, frame = 0
 556              		@ frame_needed = 0, uses_anonymous_args = 0
 557              		@ link register save eliminated.
 589:.\Generated_Source\PSoC5/CapSense_CompCH0.c ****         /* Reset the pd_override bit in CMP_CR register */
 590:.\Generated_Source\PSoC5/CapSense_CompCH0.c ****         CapSense_CompCH0_CR &= (uint8)(~CapSense_CompCH0_PWRDWN_OVRD);
 558              		.loc 1 590 0
 559 0000 024B     		ldr	r3, .L52
 560 0002 1A78     		ldrb	r2, [r3]	@ zero_extendqisi2
 561 0004 02F0FB02 		and	r2, r2, #251
 562 0008 1A70     		strb	r2, [r3]
 563 000a 7047     		bx	lr
 564              	.L53:
 565              		.align	2
 566              	.L52:
 567 000c 41580040 		.word	1073764417
 568              		.cfi_endproc
 569              	.LFE10:
 570              		.size	CapSense_CompCH0_PwrDwnOverrideDisable, .-CapSense_CompCH0_PwrDwnOverrideDisable
 571              		.global	CapSense_CompCH0_initVar
 572              		.bss
 573              		.set	.LANCHOR0,. + 0
 574              		.type	CapSense_CompCH0_initVar, %object
 575              		.size	CapSense_CompCH0_initVar, 1
 576              	CapSense_CompCH0_initVar:
 577 0000 00       		.space	1
 578              		.text
 579              	.Letext0:
 580              		.file 2 ".\\Generated_Source\\PSoC5\\cytypes.h"
 581              		.file 3 ".\\Generated_Source\\PSoC5\\CyLib.h"