ARM GAS  C:\Users\Xwx47\AppData\Local\Temp\ccZes61q.s 			page 1


   1              		.syntax unified
   2              		.cpu cortex-m3
   3              		.fpu softvfp
   4              		.eabi_attribute 20, 1
   5              		.eabi_attribute 21, 1
   6              		.eabi_attribute 23, 3
   7              		.eabi_attribute 24, 1
   8              		.eabi_attribute 25, 1
   9              		.eabi_attribute 26, 1
  10              		.eabi_attribute 30, 4
  11              		.eabi_attribute 34, 1
  12              		.eabi_attribute 18, 4
  13              		.thumb
  14              		.file	"cyfitter_cfg.c"
  15              		.text
  16              	.Ltext0:
  17              		.cfi_sections	.debug_frame
  18              		.section	.text.SetAnalogRoutingPumps,"ax",%progbits
  19              		.align	1
  20              		.global	SetAnalogRoutingPumps
  21              		.thumb
  22              		.thumb_func
  23              		.type	SetAnalogRoutingPumps, %function
  24              	SetAnalogRoutingPumps:
  25              	.LFB7:
  26              		.file 1 ".\\Generated_Source\\PSoC5\\cyfitter_cfg.c"
   1:.\Generated_Source\PSoC5/cyfitter_cfg.c **** /*******************************************************************************
   2:.\Generated_Source\PSoC5/cyfitter_cfg.c **** * FILENAME: cyfitter_cfg.c
   3:.\Generated_Source\PSoC5/cyfitter_cfg.c **** * 
   4:.\Generated_Source\PSoC5/cyfitter_cfg.c **** * PSoC Creator  3.2 SP1
   5:.\Generated_Source\PSoC5/cyfitter_cfg.c **** *
   6:.\Generated_Source\PSoC5/cyfitter_cfg.c **** * DESCRIPTION:
   7:.\Generated_Source\PSoC5/cyfitter_cfg.c **** * This file contains device initialization code.
   8:.\Generated_Source\PSoC5/cyfitter_cfg.c **** * Except for the user defined sections in CyClockStartupError(), this file should not be modified.
   9:.\Generated_Source\PSoC5/cyfitter_cfg.c **** * This file is automatically generated by PSoC Creator.
  10:.\Generated_Source\PSoC5/cyfitter_cfg.c **** *
  11:.\Generated_Source\PSoC5/cyfitter_cfg.c **** ********************************************************************************
  12:.\Generated_Source\PSoC5/cyfitter_cfg.c **** * Copyright (c) 2007-2015 Cypress Semiconductor.  All rights reserved.
  13:.\Generated_Source\PSoC5/cyfitter_cfg.c **** * You may use this file only in accordance with the license, terms, conditions, 
  14:.\Generated_Source\PSoC5/cyfitter_cfg.c **** * disclaimers, and limitations in the end user license agreement accompanying 
  15:.\Generated_Source\PSoC5/cyfitter_cfg.c **** * the software package with which this file was provided.
  16:.\Generated_Source\PSoC5/cyfitter_cfg.c **** ********************************************************************************/
  17:.\Generated_Source\PSoC5/cyfitter_cfg.c **** 
  18:.\Generated_Source\PSoC5/cyfitter_cfg.c **** #include <string.h>
  19:.\Generated_Source\PSoC5/cyfitter_cfg.c **** #include "cytypes.h"
  20:.\Generated_Source\PSoC5/cyfitter_cfg.c **** #include "cydevice_trm.h"
  21:.\Generated_Source\PSoC5/cyfitter_cfg.c **** #include "cyfitter.h"
  22:.\Generated_Source\PSoC5/cyfitter_cfg.c **** #include "CyLib.h"
  23:.\Generated_Source\PSoC5/cyfitter_cfg.c **** #include "cyfitter_cfg.h"
  24:.\Generated_Source\PSoC5/cyfitter_cfg.c **** 
  25:.\Generated_Source\PSoC5/cyfitter_cfg.c **** #define CY_NEED_CYCLOCKSTARTUPERROR 1
  26:.\Generated_Source\PSoC5/cyfitter_cfg.c **** 
  27:.\Generated_Source\PSoC5/cyfitter_cfg.c **** 
  28:.\Generated_Source\PSoC5/cyfitter_cfg.c **** #if defined(__GNUC__) || defined(__ARMCC_VERSION)
  29:.\Generated_Source\PSoC5/cyfitter_cfg.c ****     #define CYPACKED 
  30:.\Generated_Source\PSoC5/cyfitter_cfg.c ****     #define CYPACKED_ATTR __attribute__ ((packed))
  31:.\Generated_Source\PSoC5/cyfitter_cfg.c ****     #define CYALIGNED __attribute__ ((aligned))
ARM GAS  C:\Users\Xwx47\AppData\Local\Temp\ccZes61q.s 			page 2


  32:.\Generated_Source\PSoC5/cyfitter_cfg.c ****     #define CY_CFG_UNUSED __attribute__ ((unused))
  33:.\Generated_Source\PSoC5/cyfitter_cfg.c ****     #define CY_CFG_SECTION __attribute__ ((section(".psocinit")))
  34:.\Generated_Source\PSoC5/cyfitter_cfg.c ****     
  35:.\Generated_Source\PSoC5/cyfitter_cfg.c ****     #if defined(__ARMCC_VERSION)
  36:.\Generated_Source\PSoC5/cyfitter_cfg.c ****         #define CY_CFG_MEMORY_BARRIER() __memory_changed()
  37:.\Generated_Source\PSoC5/cyfitter_cfg.c ****     #else
  38:.\Generated_Source\PSoC5/cyfitter_cfg.c ****         #define CY_CFG_MEMORY_BARRIER() __sync_synchronize()
  39:.\Generated_Source\PSoC5/cyfitter_cfg.c ****     #endif
  40:.\Generated_Source\PSoC5/cyfitter_cfg.c ****     
  41:.\Generated_Source\PSoC5/cyfitter_cfg.c **** #elif defined(__ICCARM__)
  42:.\Generated_Source\PSoC5/cyfitter_cfg.c ****     #include <intrinsics.h>
  43:.\Generated_Source\PSoC5/cyfitter_cfg.c **** 
  44:.\Generated_Source\PSoC5/cyfitter_cfg.c ****     #define CYPACKED __packed
  45:.\Generated_Source\PSoC5/cyfitter_cfg.c ****     #define CYPACKED_ATTR 
  46:.\Generated_Source\PSoC5/cyfitter_cfg.c ****     #define CYALIGNED _Pragma("data_alignment=4")
  47:.\Generated_Source\PSoC5/cyfitter_cfg.c ****     #define CY_CFG_UNUSED _Pragma("diag_suppress=Pe177")
  48:.\Generated_Source\PSoC5/cyfitter_cfg.c ****     #define CY_CFG_SECTION _Pragma("location=\".psocinit\"")
  49:.\Generated_Source\PSoC5/cyfitter_cfg.c ****     
  50:.\Generated_Source\PSoC5/cyfitter_cfg.c ****     #define CY_CFG_MEMORY_BARRIER() __DMB()
  51:.\Generated_Source\PSoC5/cyfitter_cfg.c ****     
  52:.\Generated_Source\PSoC5/cyfitter_cfg.c **** #else
  53:.\Generated_Source\PSoC5/cyfitter_cfg.c ****     #error Unsupported toolchain
  54:.\Generated_Source\PSoC5/cyfitter_cfg.c **** #endif
  55:.\Generated_Source\PSoC5/cyfitter_cfg.c **** 
  56:.\Generated_Source\PSoC5/cyfitter_cfg.c **** 
  57:.\Generated_Source\PSoC5/cyfitter_cfg.c **** CY_CFG_UNUSED
  58:.\Generated_Source\PSoC5/cyfitter_cfg.c **** static void CYMEMZERO(void *s, size_t n);
  59:.\Generated_Source\PSoC5/cyfitter_cfg.c **** CY_CFG_UNUSED
  60:.\Generated_Source\PSoC5/cyfitter_cfg.c **** static void CYMEMZERO(void *s, size_t n)
  61:.\Generated_Source\PSoC5/cyfitter_cfg.c **** {
  62:.\Generated_Source\PSoC5/cyfitter_cfg.c **** 	(void)memset(s, 0, n);
  63:.\Generated_Source\PSoC5/cyfitter_cfg.c **** }
  64:.\Generated_Source\PSoC5/cyfitter_cfg.c **** CY_CFG_UNUSED
  65:.\Generated_Source\PSoC5/cyfitter_cfg.c **** static void CYCONFIGCPY(void *dest, const void *src, size_t n);
  66:.\Generated_Source\PSoC5/cyfitter_cfg.c **** CY_CFG_UNUSED
  67:.\Generated_Source\PSoC5/cyfitter_cfg.c **** static void CYCONFIGCPY(void *dest, const void *src, size_t n)
  68:.\Generated_Source\PSoC5/cyfitter_cfg.c **** {
  69:.\Generated_Source\PSoC5/cyfitter_cfg.c **** 	(void)memcpy(dest, src, n);
  70:.\Generated_Source\PSoC5/cyfitter_cfg.c **** }
  71:.\Generated_Source\PSoC5/cyfitter_cfg.c **** CY_CFG_UNUSED
  72:.\Generated_Source\PSoC5/cyfitter_cfg.c **** static void CYCONFIGCPYCODE(void *dest, const void *src, size_t n);
  73:.\Generated_Source\PSoC5/cyfitter_cfg.c **** CY_CFG_UNUSED
  74:.\Generated_Source\PSoC5/cyfitter_cfg.c **** static void CYCONFIGCPYCODE(void *dest, const void *src, size_t n)
  75:.\Generated_Source\PSoC5/cyfitter_cfg.c **** {
  76:.\Generated_Source\PSoC5/cyfitter_cfg.c **** 	(void)memcpy(dest, src, n);
  77:.\Generated_Source\PSoC5/cyfitter_cfg.c **** }
  78:.\Generated_Source\PSoC5/cyfitter_cfg.c **** 
  79:.\Generated_Source\PSoC5/cyfitter_cfg.c **** 
  80:.\Generated_Source\PSoC5/cyfitter_cfg.c **** 
  81:.\Generated_Source\PSoC5/cyfitter_cfg.c **** /* Clock startup error codes                                                   */
  82:.\Generated_Source\PSoC5/cyfitter_cfg.c **** #define CYCLOCKSTART_NO_ERROR    0u
  83:.\Generated_Source\PSoC5/cyfitter_cfg.c **** #define CYCLOCKSTART_XTAL_ERROR  1u
  84:.\Generated_Source\PSoC5/cyfitter_cfg.c **** #define CYCLOCKSTART_32KHZ_ERROR 2u
  85:.\Generated_Source\PSoC5/cyfitter_cfg.c **** #define CYCLOCKSTART_PLL_ERROR   3u
  86:.\Generated_Source\PSoC5/cyfitter_cfg.c **** 
  87:.\Generated_Source\PSoC5/cyfitter_cfg.c **** #ifdef CY_NEED_CYCLOCKSTARTUPERROR
  88:.\Generated_Source\PSoC5/cyfitter_cfg.c **** /*******************************************************************************
ARM GAS  C:\Users\Xwx47\AppData\Local\Temp\ccZes61q.s 			page 3


  89:.\Generated_Source\PSoC5/cyfitter_cfg.c **** * Function Name: CyClockStartupError
  90:.\Generated_Source\PSoC5/cyfitter_cfg.c **** ********************************************************************************
  91:.\Generated_Source\PSoC5/cyfitter_cfg.c **** * Summary:
  92:.\Generated_Source\PSoC5/cyfitter_cfg.c **** *  If an error is encountered during clock configuration (crystal startup error,
  93:.\Generated_Source\PSoC5/cyfitter_cfg.c **** *  PLL lock error, etc.), the system will end up here.  Unless reimplemented by
  94:.\Generated_Source\PSoC5/cyfitter_cfg.c **** *  the customer, this function will stop in an infinite loop.
  95:.\Generated_Source\PSoC5/cyfitter_cfg.c **** *
  96:.\Generated_Source\PSoC5/cyfitter_cfg.c **** * Parameters:
  97:.\Generated_Source\PSoC5/cyfitter_cfg.c **** *   void
  98:.\Generated_Source\PSoC5/cyfitter_cfg.c **** *
  99:.\Generated_Source\PSoC5/cyfitter_cfg.c **** * Return:
 100:.\Generated_Source\PSoC5/cyfitter_cfg.c **** *   void
 101:.\Generated_Source\PSoC5/cyfitter_cfg.c **** *
 102:.\Generated_Source\PSoC5/cyfitter_cfg.c **** *******************************************************************************/
 103:.\Generated_Source\PSoC5/cyfitter_cfg.c **** CY_CFG_UNUSED
 104:.\Generated_Source\PSoC5/cyfitter_cfg.c **** static void CyClockStartupError(uint8 errorCode);
 105:.\Generated_Source\PSoC5/cyfitter_cfg.c **** CY_CFG_UNUSED
 106:.\Generated_Source\PSoC5/cyfitter_cfg.c **** static void CyClockStartupError(uint8 errorCode)
 107:.\Generated_Source\PSoC5/cyfitter_cfg.c **** {
 108:.\Generated_Source\PSoC5/cyfitter_cfg.c ****     /* To remove the compiler warning if errorCode not used.                */
 109:.\Generated_Source\PSoC5/cyfitter_cfg.c ****     errorCode = errorCode;
 110:.\Generated_Source\PSoC5/cyfitter_cfg.c **** 
 111:.\Generated_Source\PSoC5/cyfitter_cfg.c ****     /* `#START CyClockStartupError` */
 112:.\Generated_Source\PSoC5/cyfitter_cfg.c **** 
 113:.\Generated_Source\PSoC5/cyfitter_cfg.c ****     /* If we have a clock startup error (bad MHz crystal, PLL lock, etc.),  */
 114:.\Generated_Source\PSoC5/cyfitter_cfg.c ****     /* we will end up here to allow the customer to implement something to  */
 115:.\Generated_Source\PSoC5/cyfitter_cfg.c ****     /* deal with the clock condition.                                       */
 116:.\Generated_Source\PSoC5/cyfitter_cfg.c **** 
 117:.\Generated_Source\PSoC5/cyfitter_cfg.c ****     /* `#END` */
 118:.\Generated_Source\PSoC5/cyfitter_cfg.c **** 
 119:.\Generated_Source\PSoC5/cyfitter_cfg.c ****     /* If nothing else, stop here since the clocks have not started         */
 120:.\Generated_Source\PSoC5/cyfitter_cfg.c ****     /* correctly.                                                           */
 121:.\Generated_Source\PSoC5/cyfitter_cfg.c ****     while(1) {}
 122:.\Generated_Source\PSoC5/cyfitter_cfg.c **** }
 123:.\Generated_Source\PSoC5/cyfitter_cfg.c **** #endif
 124:.\Generated_Source\PSoC5/cyfitter_cfg.c **** 
 125:.\Generated_Source\PSoC5/cyfitter_cfg.c **** #define CY_CFG_BASE_ADDR_COUNT 20u
 126:.\Generated_Source\PSoC5/cyfitter_cfg.c **** CYPACKED typedef struct
 127:.\Generated_Source\PSoC5/cyfitter_cfg.c **** {
 128:.\Generated_Source\PSoC5/cyfitter_cfg.c **** 	uint8 offset;
 129:.\Generated_Source\PSoC5/cyfitter_cfg.c **** 	uint8 value;
 130:.\Generated_Source\PSoC5/cyfitter_cfg.c **** } CYPACKED_ATTR cy_cfg_addrvalue_t;
 131:.\Generated_Source\PSoC5/cyfitter_cfg.c **** 
 132:.\Generated_Source\PSoC5/cyfitter_cfg.c **** #define cy_cfg_addr_table ((const uint32 CYFAR *)0x48000000u)
 133:.\Generated_Source\PSoC5/cyfitter_cfg.c **** #define cy_cfg_data_table ((const cy_cfg_addrvalue_t CYFAR *)0x48000050u)
 134:.\Generated_Source\PSoC5/cyfitter_cfg.c **** 
 135:.\Generated_Source\PSoC5/cyfitter_cfg.c **** /* IOPINS0_8 Address: CYREG_PRT15_DM0 Size (bytes): 8 */
 136:.\Generated_Source\PSoC5/cyfitter_cfg.c **** #define BS_IOPINS0_8_VAL ((const uint8 CYFAR *)0x480002F8u)
 137:.\Generated_Source\PSoC5/cyfitter_cfg.c **** 
 138:.\Generated_Source\PSoC5/cyfitter_cfg.c **** /* IOPINS0_1 Address: CYREG_PRT1_DM0 Size (bytes): 8 */
 139:.\Generated_Source\PSoC5/cyfitter_cfg.c **** #define BS_IOPINS0_1_VAL ((const uint8 CYFAR *)0x48000300u)
 140:.\Generated_Source\PSoC5/cyfitter_cfg.c **** 
 141:.\Generated_Source\PSoC5/cyfitter_cfg.c **** /* IOPINS0_2 Address: CYREG_PRT2_DM0 Size (bytes): 8 */
 142:.\Generated_Source\PSoC5/cyfitter_cfg.c **** #define BS_IOPINS0_2_VAL ((const uint8 CYFAR *)0x48000308u)
 143:.\Generated_Source\PSoC5/cyfitter_cfg.c **** 
 144:.\Generated_Source\PSoC5/cyfitter_cfg.c **** 
 145:.\Generated_Source\PSoC5/cyfitter_cfg.c **** /*******************************************************************************
ARM GAS  C:\Users\Xwx47\AppData\Local\Temp\ccZes61q.s 			page 4


 146:.\Generated_Source\PSoC5/cyfitter_cfg.c **** * Function Name: cfg_write_bytes32
 147:.\Generated_Source\PSoC5/cyfitter_cfg.c **** ********************************************************************************
 148:.\Generated_Source\PSoC5/cyfitter_cfg.c **** * Summary:
 149:.\Generated_Source\PSoC5/cyfitter_cfg.c **** *  This function is used for setting up the chip configuration areas that
 150:.\Generated_Source\PSoC5/cyfitter_cfg.c **** *  contain relatively sparse data.
 151:.\Generated_Source\PSoC5/cyfitter_cfg.c **** *
 152:.\Generated_Source\PSoC5/cyfitter_cfg.c **** * Parameters:
 153:.\Generated_Source\PSoC5/cyfitter_cfg.c **** *   void
 154:.\Generated_Source\PSoC5/cyfitter_cfg.c **** *
 155:.\Generated_Source\PSoC5/cyfitter_cfg.c **** * Return:
 156:.\Generated_Source\PSoC5/cyfitter_cfg.c **** *   void
 157:.\Generated_Source\PSoC5/cyfitter_cfg.c **** *
 158:.\Generated_Source\PSoC5/cyfitter_cfg.c **** *******************************************************************************/
 159:.\Generated_Source\PSoC5/cyfitter_cfg.c **** static void cfg_write_bytes32(const uint32 addr_table[], const cy_cfg_addrvalue_t data_table[]);
 160:.\Generated_Source\PSoC5/cyfitter_cfg.c **** static void cfg_write_bytes32(const uint32 addr_table[], const cy_cfg_addrvalue_t data_table[])
 161:.\Generated_Source\PSoC5/cyfitter_cfg.c **** {
 162:.\Generated_Source\PSoC5/cyfitter_cfg.c **** 	/* For 32-bit little-endian architectures */
 163:.\Generated_Source\PSoC5/cyfitter_cfg.c **** 	uint32 i, j = 0u;
 164:.\Generated_Source\PSoC5/cyfitter_cfg.c **** 	for (i = 0u; i < CY_CFG_BASE_ADDR_COUNT; i++)
 165:.\Generated_Source\PSoC5/cyfitter_cfg.c **** 	{
 166:.\Generated_Source\PSoC5/cyfitter_cfg.c **** 		uint32 baseAddr = addr_table[i];
 167:.\Generated_Source\PSoC5/cyfitter_cfg.c **** 		uint8 count = (uint8)baseAddr;
 168:.\Generated_Source\PSoC5/cyfitter_cfg.c **** 		baseAddr &= 0xFFFFFF00u;
 169:.\Generated_Source\PSoC5/cyfitter_cfg.c **** 		while (count != 0u)
 170:.\Generated_Source\PSoC5/cyfitter_cfg.c **** 		{
 171:.\Generated_Source\PSoC5/cyfitter_cfg.c **** 			CY_SET_XTND_REG8((void CYFAR *)(baseAddr + data_table[j].offset), data_table[j].value);
 172:.\Generated_Source\PSoC5/cyfitter_cfg.c **** 			j++;
 173:.\Generated_Source\PSoC5/cyfitter_cfg.c **** 			count--;
 174:.\Generated_Source\PSoC5/cyfitter_cfg.c **** 		}
 175:.\Generated_Source\PSoC5/cyfitter_cfg.c **** 	}
 176:.\Generated_Source\PSoC5/cyfitter_cfg.c **** }
 177:.\Generated_Source\PSoC5/cyfitter_cfg.c **** 
 178:.\Generated_Source\PSoC5/cyfitter_cfg.c **** /*******************************************************************************
 179:.\Generated_Source\PSoC5/cyfitter_cfg.c **** * Function Name: ClockSetup
 180:.\Generated_Source\PSoC5/cyfitter_cfg.c **** ********************************************************************************
 181:.\Generated_Source\PSoC5/cyfitter_cfg.c **** *
 182:.\Generated_Source\PSoC5/cyfitter_cfg.c **** * Summary:
 183:.\Generated_Source\PSoC5/cyfitter_cfg.c **** *  Performs the initialization of all of the clocks in the device based on the
 184:.\Generated_Source\PSoC5/cyfitter_cfg.c **** *  settings in the Clock tab of the DWR.  This includes enabling the requested
 185:.\Generated_Source\PSoC5/cyfitter_cfg.c **** *  clocks and setting the necessary dividers to produce the desired frequency. 
 186:.\Generated_Source\PSoC5/cyfitter_cfg.c **** *
 187:.\Generated_Source\PSoC5/cyfitter_cfg.c **** * Parameters:
 188:.\Generated_Source\PSoC5/cyfitter_cfg.c **** *  void
 189:.\Generated_Source\PSoC5/cyfitter_cfg.c **** *
 190:.\Generated_Source\PSoC5/cyfitter_cfg.c **** * Return:
 191:.\Generated_Source\PSoC5/cyfitter_cfg.c **** *  void
 192:.\Generated_Source\PSoC5/cyfitter_cfg.c **** *
 193:.\Generated_Source\PSoC5/cyfitter_cfg.c **** *******************************************************************************/
 194:.\Generated_Source\PSoC5/cyfitter_cfg.c **** static void ClockSetup(void);
 195:.\Generated_Source\PSoC5/cyfitter_cfg.c **** static void ClockSetup(void)
 196:.\Generated_Source\PSoC5/cyfitter_cfg.c **** {
 197:.\Generated_Source\PSoC5/cyfitter_cfg.c **** 	uint32 timeout;
 198:.\Generated_Source\PSoC5/cyfitter_cfg.c **** 	uint8 pllLock;
 199:.\Generated_Source\PSoC5/cyfitter_cfg.c **** 
 200:.\Generated_Source\PSoC5/cyfitter_cfg.c **** 
 201:.\Generated_Source\PSoC5/cyfitter_cfg.c **** 	/* Configure Digital Clocks based on settings from Clock DWR */
 202:.\Generated_Source\PSoC5/cyfitter_cfg.c **** 	CY_SET_XTND_REG16((void CYFAR *)(CYREG_CLKDIST_DCFG0_CFG0), 0x0001u);
ARM GAS  C:\Users\Xwx47\AppData\Local\Temp\ccZes61q.s 			page 5


 203:.\Generated_Source\PSoC5/cyfitter_cfg.c **** 	CY_SET_XTND_REG8((void CYFAR *)(CYREG_CLKDIST_DCFG0_CFG0 + 0x2u), 0x18u);
 204:.\Generated_Source\PSoC5/cyfitter_cfg.c **** 
 205:.\Generated_Source\PSoC5/cyfitter_cfg.c **** 	/* Configure ILO based on settings from Clock DWR */
 206:.\Generated_Source\PSoC5/cyfitter_cfg.c **** 	CY_SET_XTND_REG8((void CYFAR *)(CYREG_SLOWCLK_ILO_CR0), 0x02u);
 207:.\Generated_Source\PSoC5/cyfitter_cfg.c **** 	CY_SET_XTND_REG8((void CYFAR *)(CYREG_CLKDIST_CR), 0x08u);
 208:.\Generated_Source\PSoC5/cyfitter_cfg.c **** 
 209:.\Generated_Source\PSoC5/cyfitter_cfg.c **** 	/* Configure IMO based on settings from Clock DWR */
 210:.\Generated_Source\PSoC5/cyfitter_cfg.c **** 	CY_SET_XTND_REG8((void CYFAR *)(CYREG_FASTCLK_IMO_CR), 0x03u);
 211:.\Generated_Source\PSoC5/cyfitter_cfg.c **** 	CY_SET_XTND_REG8((void CYFAR *)(CYREG_IMO_TR1), (CY_GET_XTND_REG8((void CYFAR *)CYREG_FLSHID_CUST_
 212:.\Generated_Source\PSoC5/cyfitter_cfg.c **** 
 213:.\Generated_Source\PSoC5/cyfitter_cfg.c **** 	/* Configure PLL based on settings from Clock DWR */
 214:.\Generated_Source\PSoC5/cyfitter_cfg.c **** 	CY_SET_XTND_REG16((void CYFAR *)(CYREG_FASTCLK_PLL_P), 0x0008u);
 215:.\Generated_Source\PSoC5/cyfitter_cfg.c **** 	CY_SET_XTND_REG16((void CYFAR *)(CYREG_FASTCLK_PLL_CFG0), 0x1251u);
 216:.\Generated_Source\PSoC5/cyfitter_cfg.c **** 	/* Wait up to 250us for the PLL to lock */
 217:.\Generated_Source\PSoC5/cyfitter_cfg.c **** 	pllLock = 0u;
 218:.\Generated_Source\PSoC5/cyfitter_cfg.c **** 	for (timeout = 250u / 10u; (timeout > 0u) && (pllLock != 0x03u); timeout--)
 219:.\Generated_Source\PSoC5/cyfitter_cfg.c **** 	{ 
 220:.\Generated_Source\PSoC5/cyfitter_cfg.c **** 		pllLock = 0x03u & ((uint8)((uint8)pllLock << 1) | ((CY_GET_XTND_REG8((void CYFAR *)CYREG_FASTCLK_
 221:.\Generated_Source\PSoC5/cyfitter_cfg.c **** 		CyDelayCycles(10u * 48u); /* Delay 10us based on 48MHz clock */
 222:.\Generated_Source\PSoC5/cyfitter_cfg.c **** 	}
 223:.\Generated_Source\PSoC5/cyfitter_cfg.c **** 	/* If we ran out of time the PLL didn't lock so go to the error function */
 224:.\Generated_Source\PSoC5/cyfitter_cfg.c **** 	if (timeout == 0u)
 225:.\Generated_Source\PSoC5/cyfitter_cfg.c **** 	{
 226:.\Generated_Source\PSoC5/cyfitter_cfg.c **** 		CyClockStartupError(CYCLOCKSTART_PLL_ERROR);
 227:.\Generated_Source\PSoC5/cyfitter_cfg.c **** 	}
 228:.\Generated_Source\PSoC5/cyfitter_cfg.c **** 
 229:.\Generated_Source\PSoC5/cyfitter_cfg.c **** 	/* Configure Bus/Master Clock based on settings from Clock DWR */
 230:.\Generated_Source\PSoC5/cyfitter_cfg.c **** 	CY_SET_XTND_REG16((void CYFAR *)(CYREG_CLKDIST_MSTR0), 0x0100u);
 231:.\Generated_Source\PSoC5/cyfitter_cfg.c **** 	CY_SET_XTND_REG8((void CYFAR *)(CYREG_CLKDIST_MSTR0), 0x07u);
 232:.\Generated_Source\PSoC5/cyfitter_cfg.c **** 	CY_SET_XTND_REG8((void CYFAR *)(CYREG_CLKDIST_BCFG0), 0x00u);
 233:.\Generated_Source\PSoC5/cyfitter_cfg.c **** 	CY_SET_XTND_REG8((void CYFAR *)(CYREG_CLKDIST_BCFG2), 0x48u);
 234:.\Generated_Source\PSoC5/cyfitter_cfg.c **** 	CY_SET_XTND_REG8((void CYFAR *)(CYREG_CLKDIST_MSTR0), 0x00u);
 235:.\Generated_Source\PSoC5/cyfitter_cfg.c **** 	CY_SET_XTND_REG8((void CYFAR *)(CYREG_CLKDIST_LD), 0x02u);
 236:.\Generated_Source\PSoC5/cyfitter_cfg.c **** 
 237:.\Generated_Source\PSoC5/cyfitter_cfg.c **** 	CY_SET_XTND_REG8((void CYFAR *)(CYREG_PM_ACT_CFG2), ((CY_GET_XTND_REG8((void CYFAR *)CYREG_PM_ACT_
 238:.\Generated_Source\PSoC5/cyfitter_cfg.c **** }
 239:.\Generated_Source\PSoC5/cyfitter_cfg.c **** 
 240:.\Generated_Source\PSoC5/cyfitter_cfg.c **** 
 241:.\Generated_Source\PSoC5/cyfitter_cfg.c **** /* Analog API Functions */
 242:.\Generated_Source\PSoC5/cyfitter_cfg.c **** 
 243:.\Generated_Source\PSoC5/cyfitter_cfg.c **** 
 244:.\Generated_Source\PSoC5/cyfitter_cfg.c **** /*******************************************************************************
 245:.\Generated_Source\PSoC5/cyfitter_cfg.c **** * Function Name: AnalogSetDefault
 246:.\Generated_Source\PSoC5/cyfitter_cfg.c **** ********************************************************************************
 247:.\Generated_Source\PSoC5/cyfitter_cfg.c **** *
 248:.\Generated_Source\PSoC5/cyfitter_cfg.c **** * Summary:
 249:.\Generated_Source\PSoC5/cyfitter_cfg.c **** *  Sets up the analog portions of the chip to default values based on chip
 250:.\Generated_Source\PSoC5/cyfitter_cfg.c **** *  configuration options from the project.
 251:.\Generated_Source\PSoC5/cyfitter_cfg.c **** *
 252:.\Generated_Source\PSoC5/cyfitter_cfg.c **** * Parameters:
 253:.\Generated_Source\PSoC5/cyfitter_cfg.c **** *  void
 254:.\Generated_Source\PSoC5/cyfitter_cfg.c **** *
 255:.\Generated_Source\PSoC5/cyfitter_cfg.c **** * Return:
 256:.\Generated_Source\PSoC5/cyfitter_cfg.c **** *  void
 257:.\Generated_Source\PSoC5/cyfitter_cfg.c **** *
 258:.\Generated_Source\PSoC5/cyfitter_cfg.c **** *******************************************************************************/
 259:.\Generated_Source\PSoC5/cyfitter_cfg.c **** static void AnalogSetDefault(void);
ARM GAS  C:\Users\Xwx47\AppData\Local\Temp\ccZes61q.s 			page 6


 260:.\Generated_Source\PSoC5/cyfitter_cfg.c **** static void AnalogSetDefault(void)
 261:.\Generated_Source\PSoC5/cyfitter_cfg.c **** {
 262:.\Generated_Source\PSoC5/cyfitter_cfg.c **** 	uint8 bg_xover_inl_trim = CY_GET_XTND_REG8((void CYFAR *)(CYREG_FLSHID_MFG_CFG_BG_XOVER_INL_TRIM +
 263:.\Generated_Source\PSoC5/cyfitter_cfg.c **** 	CY_SET_XTND_REG8((void CYFAR *)(CYREG_BG_DFT0), (bg_xover_inl_trim & 0x07u));
 264:.\Generated_Source\PSoC5/cyfitter_cfg.c **** 	CY_SET_XTND_REG8((void CYFAR *)(CYREG_BG_DFT1), ((bg_xover_inl_trim >> 4) & 0x0Fu));
 265:.\Generated_Source\PSoC5/cyfitter_cfg.c **** 	CY_SET_XTND_REG8((void CYFAR *)CYREG_PRT15_AG, 0x10u);
 266:.\Generated_Source\PSoC5/cyfitter_cfg.c **** 	CY_SET_XTND_REG8((void CYFAR *)CYREG_CAPSL_CFG0, 0x00u);
 267:.\Generated_Source\PSoC5/cyfitter_cfg.c **** 	CY_SET_XTND_REG8((void CYFAR *)CYREG_CMP1_SW3, 0x20u);
 268:.\Generated_Source\PSoC5/cyfitter_cfg.c **** 	CY_SET_XTND_REG8((void CYFAR *)CYREG_BUS_SW3, 0x01u);
 269:.\Generated_Source\PSoC5/cyfitter_cfg.c **** 	CY_SET_XTND_REG8((void CYFAR *)CYREG_PUMP_CR0, 0x44u);
 270:.\Generated_Source\PSoC5/cyfitter_cfg.c **** }
 271:.\Generated_Source\PSoC5/cyfitter_cfg.c **** 
 272:.\Generated_Source\PSoC5/cyfitter_cfg.c **** 
 273:.\Generated_Source\PSoC5/cyfitter_cfg.c **** /*******************************************************************************
 274:.\Generated_Source\PSoC5/cyfitter_cfg.c **** * Function Name: SetAnalogRoutingPumps
 275:.\Generated_Source\PSoC5/cyfitter_cfg.c **** ********************************************************************************
 276:.\Generated_Source\PSoC5/cyfitter_cfg.c **** *
 277:.\Generated_Source\PSoC5/cyfitter_cfg.c **** * Summary:
 278:.\Generated_Source\PSoC5/cyfitter_cfg.c **** * Enables or disables the analog pumps feeding analog routing switches.
 279:.\Generated_Source\PSoC5/cyfitter_cfg.c **** * Intended to be called at startup, based on the Vdda system configuration;
 280:.\Generated_Source\PSoC5/cyfitter_cfg.c **** * may be called during operation when the user informs us that the Vdda voltage
 281:.\Generated_Source\PSoC5/cyfitter_cfg.c **** * crossed the pump threshold.
 282:.\Generated_Source\PSoC5/cyfitter_cfg.c **** *
 283:.\Generated_Source\PSoC5/cyfitter_cfg.c **** * Parameters:
 284:.\Generated_Source\PSoC5/cyfitter_cfg.c **** *  enabled - 1 to enable the pumps, 0 to disable the pumps
 285:.\Generated_Source\PSoC5/cyfitter_cfg.c **** *
 286:.\Generated_Source\PSoC5/cyfitter_cfg.c **** * Return:
 287:.\Generated_Source\PSoC5/cyfitter_cfg.c **** *  void
 288:.\Generated_Source\PSoC5/cyfitter_cfg.c **** *
 289:.\Generated_Source\PSoC5/cyfitter_cfg.c **** *******************************************************************************/
 290:.\Generated_Source\PSoC5/cyfitter_cfg.c **** void SetAnalogRoutingPumps(uint8 enabled)
 291:.\Generated_Source\PSoC5/cyfitter_cfg.c **** {
  27              		.loc 1 291 0
  28              		.cfi_startproc
  29              		@ args = 0, pretend = 0, frame = 0
  30              		@ frame_needed = 0, uses_anonymous_args = 0
  31              		@ link register save eliminated.
  32              	.LVL0:
 292:.\Generated_Source\PSoC5/cyfitter_cfg.c **** 	uint8 regValue = CY_GET_XTND_REG8((void CYFAR *)CYREG_PUMP_CR0);
  33              		.loc 1 292 0
  34 0000 054A     		ldr	r2, .L5
  35 0002 1378     		ldrb	r3, [r2]	@ zero_extendqisi2
  36 0004 DBB2     		uxtb	r3, r3
  37              	.LVL1:
 293:.\Generated_Source\PSoC5/cyfitter_cfg.c **** 	if (enabled != 0u)
  38              		.loc 1 293 0
  39 0006 10B1     		cbz	r0, .L2
 294:.\Generated_Source\PSoC5/cyfitter_cfg.c **** 	{
 295:.\Generated_Source\PSoC5/cyfitter_cfg.c **** 		regValue |= 0x22u;
  40              		.loc 1 295 0
  41 0008 43F02203 		orr	r3, r3, #34
  42              	.LVL2:
  43 000c 01E0     		b	.L3
  44              	.L2:
 296:.\Generated_Source\PSoC5/cyfitter_cfg.c **** 	}
 297:.\Generated_Source\PSoC5/cyfitter_cfg.c **** 	else
 298:.\Generated_Source\PSoC5/cyfitter_cfg.c **** 	{
ARM GAS  C:\Users\Xwx47\AppData\Local\Temp\ccZes61q.s 			page 7


 299:.\Generated_Source\PSoC5/cyfitter_cfg.c **** 		regValue &= (uint8)~0x22u;
  45              		.loc 1 299 0
  46 000e 03F0DD03 		and	r3, r3, #221
  47              	.LVL3:
  48              	.L3:
 300:.\Generated_Source\PSoC5/cyfitter_cfg.c **** 	}
 301:.\Generated_Source\PSoC5/cyfitter_cfg.c **** 	CY_SET_XTND_REG8((void CYFAR *)CYREG_PUMP_CR0, regValue);
  49              		.loc 1 301 0
  50 0012 1370     		strb	r3, [r2]
  51 0014 7047     		bx	lr
  52              	.L6:
  53 0016 00BF     		.align	2
  54              	.L5:
  55 0018 76580040 		.word	1073764470
  56              		.cfi_endproc
  57              	.LFE7:
  58              		.size	SetAnalogRoutingPumps, .-SetAnalogRoutingPumps
  59              		.section	.text.CapSense_AMuxCH0_Set,"ax",%progbits
  60              		.align	1
  61              		.global	CapSense_AMuxCH0_Set
  62              		.thumb
  63              		.thumb_func
  64              		.type	CapSense_AMuxCH0_Set, %function
  65              	CapSense_AMuxCH0_Set:
  66              	.LFB8:
 302:.\Generated_Source\PSoC5/cyfitter_cfg.c **** }
 303:.\Generated_Source\PSoC5/cyfitter_cfg.c **** 
 304:.\Generated_Source\PSoC5/cyfitter_cfg.c **** #define CY_AMUX_UNUSED CYREG_BOOST_SR
 305:.\Generated_Source\PSoC5/cyfitter_cfg.c **** /* This is an implementation detail of the AMux. Code that depends on it may be
 306:.\Generated_Source\PSoC5/cyfitter_cfg.c ****    incompatible with other versions of PSoC Creator. */
 307:.\Generated_Source\PSoC5/cyfitter_cfg.c **** uint8 CYXDATA * const CYCODE CapSense_AMuxCH0__addrTable[6] = {
 308:.\Generated_Source\PSoC5/cyfitter_cfg.c **** 	(uint8 CYXDATA *)CYREG_PRT1_AMUX, 
 309:.\Generated_Source\PSoC5/cyfitter_cfg.c **** 	(uint8 CYXDATA *)CYREG_PRT1_AMUX, 
 310:.\Generated_Source\PSoC5/cyfitter_cfg.c **** 	(uint8 CYXDATA *)CYREG_PRT1_AMUX, 
 311:.\Generated_Source\PSoC5/cyfitter_cfg.c **** 	(uint8 CYXDATA *)CYREG_PRT15_AMUX, 
 312:.\Generated_Source\PSoC5/cyfitter_cfg.c **** 	(uint8 CYXDATA *)CYREG_CMP1_SW3, 
 313:.\Generated_Source\PSoC5/cyfitter_cfg.c **** 	(uint8 CYXDATA *)CYREG_DAC3_SW3, 
 314:.\Generated_Source\PSoC5/cyfitter_cfg.c **** };
 315:.\Generated_Source\PSoC5/cyfitter_cfg.c **** 
 316:.\Generated_Source\PSoC5/cyfitter_cfg.c **** /* This is an implementation detail of the AMux. Code that depends on it may be
 317:.\Generated_Source\PSoC5/cyfitter_cfg.c ****    incompatible with other versions of PSoC Creator. */
 318:.\Generated_Source\PSoC5/cyfitter_cfg.c **** const uint8 CYCODE CapSense_AMuxCH0__maskTable[6] = {
 319:.\Generated_Source\PSoC5/cyfitter_cfg.c **** 	0x40u, 
 320:.\Generated_Source\PSoC5/cyfitter_cfg.c **** 	0x10u, 
 321:.\Generated_Source\PSoC5/cyfitter_cfg.c **** 	0x04u, 
 322:.\Generated_Source\PSoC5/cyfitter_cfg.c **** 	0x10u, 
 323:.\Generated_Source\PSoC5/cyfitter_cfg.c **** 	0x01u, 
 324:.\Generated_Source\PSoC5/cyfitter_cfg.c **** 	0x10u, 
 325:.\Generated_Source\PSoC5/cyfitter_cfg.c **** };
 326:.\Generated_Source\PSoC5/cyfitter_cfg.c **** 
 327:.\Generated_Source\PSoC5/cyfitter_cfg.c **** /*******************************************************************************
 328:.\Generated_Source\PSoC5/cyfitter_cfg.c **** * Function Name: CapSense_AMuxCH0_Set
 329:.\Generated_Source\PSoC5/cyfitter_cfg.c **** ********************************************************************************
 330:.\Generated_Source\PSoC5/cyfitter_cfg.c **** * Summary:
 331:.\Generated_Source\PSoC5/cyfitter_cfg.c **** *  This function is used to set a particular channel as active on the AMux.
 332:.\Generated_Source\PSoC5/cyfitter_cfg.c **** *
 333:.\Generated_Source\PSoC5/cyfitter_cfg.c **** * Parameters:  
ARM GAS  C:\Users\Xwx47\AppData\Local\Temp\ccZes61q.s 			page 8


 334:.\Generated_Source\PSoC5/cyfitter_cfg.c **** *   channel - The mux channel input to set as active
 335:.\Generated_Source\PSoC5/cyfitter_cfg.c **** *
 336:.\Generated_Source\PSoC5/cyfitter_cfg.c **** * Return:
 337:.\Generated_Source\PSoC5/cyfitter_cfg.c **** *   void
 338:.\Generated_Source\PSoC5/cyfitter_cfg.c **** *
 339:.\Generated_Source\PSoC5/cyfitter_cfg.c **** *******************************************************************************/
 340:.\Generated_Source\PSoC5/cyfitter_cfg.c **** void CapSense_AMuxCH0_Set(uint8 channel)
 341:.\Generated_Source\PSoC5/cyfitter_cfg.c **** {
  67              		.loc 1 341 0
  68              		.cfi_startproc
  69              		@ args = 0, pretend = 0, frame = 0
  70              		@ frame_needed = 0, uses_anonymous_args = 0
  71              		@ link register save eliminated.
  72              	.LVL4:
 342:.\Generated_Source\PSoC5/cyfitter_cfg.c **** 	if (channel < 6)
  73              		.loc 1 342 0
  74 0000 0528     		cmp	r0, #5
  75 0002 07D8     		bhi	.L7
 343:.\Generated_Source\PSoC5/cyfitter_cfg.c **** 	{
 344:.\Generated_Source\PSoC5/cyfitter_cfg.c **** 		*CapSense_AMuxCH0__addrTable[channel] |= CapSense_AMuxCH0__maskTable[channel];
  76              		.loc 1 344 0
  77 0004 044A     		ldr	r2, .L9
  78 0006 52F82030 		ldr	r3, [r2, r0, lsl #2]
  79 000a 1044     		add	r0, r0, r2
  80              	.LVL5:
  81 000c 1978     		ldrb	r1, [r3]	@ zero_extendqisi2
  82 000e 027E     		ldrb	r2, [r0, #24]	@ zero_extendqisi2
  83 0010 0A43     		orrs	r2, r2, r1
  84 0012 1A70     		strb	r2, [r3]
  85              	.L7:
  86 0014 7047     		bx	lr
  87              	.L10:
  88 0016 00BF     		.align	2
  89              	.L9:
  90 0018 00000000 		.word	.LANCHOR0
  91              		.cfi_endproc
  92              	.LFE8:
  93              		.size	CapSense_AMuxCH0_Set, .-CapSense_AMuxCH0_Set
  94              		.section	.text.CapSense_AMuxCH0_Unset,"ax",%progbits
  95              		.align	1
  96              		.global	CapSense_AMuxCH0_Unset
  97              		.thumb
  98              		.thumb_func
  99              		.type	CapSense_AMuxCH0_Unset, %function
 100              	CapSense_AMuxCH0_Unset:
 101              	.LFB9:
 345:.\Generated_Source\PSoC5/cyfitter_cfg.c **** 	}
 346:.\Generated_Source\PSoC5/cyfitter_cfg.c **** }
 347:.\Generated_Source\PSoC5/cyfitter_cfg.c **** 
 348:.\Generated_Source\PSoC5/cyfitter_cfg.c **** /*******************************************************************************
 349:.\Generated_Source\PSoC5/cyfitter_cfg.c **** * Function Name: CapSense_AMuxCH0_Unset
 350:.\Generated_Source\PSoC5/cyfitter_cfg.c **** ********************************************************************************
 351:.\Generated_Source\PSoC5/cyfitter_cfg.c **** * Summary:
 352:.\Generated_Source\PSoC5/cyfitter_cfg.c **** *  This function is used to clear a particular channel from being active on the
 353:.\Generated_Source\PSoC5/cyfitter_cfg.c **** *  AMux.
 354:.\Generated_Source\PSoC5/cyfitter_cfg.c **** *
 355:.\Generated_Source\PSoC5/cyfitter_cfg.c **** * Parameters:  
ARM GAS  C:\Users\Xwx47\AppData\Local\Temp\ccZes61q.s 			page 9


 356:.\Generated_Source\PSoC5/cyfitter_cfg.c **** *   channel - The mux channel input to mark inactive
 357:.\Generated_Source\PSoC5/cyfitter_cfg.c **** *
 358:.\Generated_Source\PSoC5/cyfitter_cfg.c **** * Return:
 359:.\Generated_Source\PSoC5/cyfitter_cfg.c **** *   void
 360:.\Generated_Source\PSoC5/cyfitter_cfg.c **** *
 361:.\Generated_Source\PSoC5/cyfitter_cfg.c **** *******************************************************************************/
 362:.\Generated_Source\PSoC5/cyfitter_cfg.c **** void CapSense_AMuxCH0_Unset(uint8 channel)
 363:.\Generated_Source\PSoC5/cyfitter_cfg.c **** {
 102              		.loc 1 363 0
 103              		.cfi_startproc
 104              		@ args = 0, pretend = 0, frame = 0
 105              		@ frame_needed = 0, uses_anonymous_args = 0
 106              		@ link register save eliminated.
 107              	.LVL6:
 364:.\Generated_Source\PSoC5/cyfitter_cfg.c **** 	if (channel < 6)
 108              		.loc 1 364 0
 109 0000 0528     		cmp	r0, #5
 110 0002 08D8     		bhi	.L11
 365:.\Generated_Source\PSoC5/cyfitter_cfg.c **** 	{
 366:.\Generated_Source\PSoC5/cyfitter_cfg.c **** 		*CapSense_AMuxCH0__addrTable[channel] &= (uint8)~CapSense_AMuxCH0__maskTable[channel];
 111              		.loc 1 366 0
 112 0004 044A     		ldr	r2, .L13
 113 0006 52F82030 		ldr	r3, [r2, r0, lsl #2]
 114 000a 1044     		add	r0, r0, r2
 115              	.LVL7:
 116 000c 017E     		ldrb	r1, [r0, #24]	@ zero_extendqisi2
 117 000e 1A78     		ldrb	r2, [r3]	@ zero_extendqisi2
 118 0010 22EA0102 		bic	r2, r2, r1
 119 0014 1A70     		strb	r2, [r3]
 120              	.L11:
 121 0016 7047     		bx	lr
 122              	.L14:
 123              		.align	2
 124              	.L13:
 125 0018 00000000 		.word	.LANCHOR0
 126              		.cfi_endproc
 127              	.LFE9:
 128              		.size	CapSense_AMuxCH0_Unset, .-CapSense_AMuxCH0_Unset
 129              		.section	.text.cyfitter_cfg,"ax",%progbits
 130              		.align	1
 131              		.global	cyfitter_cfg
 132              		.thumb
 133              		.thumb_func
 134              		.type	cyfitter_cfg, %function
 135              	cyfitter_cfg:
 136              	.LFB10:
 367:.\Generated_Source\PSoC5/cyfitter_cfg.c **** 	}
 368:.\Generated_Source\PSoC5/cyfitter_cfg.c **** }
 369:.\Generated_Source\PSoC5/cyfitter_cfg.c **** 
 370:.\Generated_Source\PSoC5/cyfitter_cfg.c **** 
 371:.\Generated_Source\PSoC5/cyfitter_cfg.c **** 
 372:.\Generated_Source\PSoC5/cyfitter_cfg.c **** /*******************************************************************************
 373:.\Generated_Source\PSoC5/cyfitter_cfg.c **** * Function Name: cyfitter_cfg
 374:.\Generated_Source\PSoC5/cyfitter_cfg.c **** ********************************************************************************
 375:.\Generated_Source\PSoC5/cyfitter_cfg.c **** * Summary:
 376:.\Generated_Source\PSoC5/cyfitter_cfg.c **** *  This function is called by the start-up code for the selected device. It
 377:.\Generated_Source\PSoC5/cyfitter_cfg.c **** *  performs all of the necessary device configuration based on the design
ARM GAS  C:\Users\Xwx47\AppData\Local\Temp\ccZes61q.s 			page 10


 378:.\Generated_Source\PSoC5/cyfitter_cfg.c **** *  settings.  This includes settings from the Design Wide Resources (DWR) such
 379:.\Generated_Source\PSoC5/cyfitter_cfg.c **** *  as Clocks and Pins as well as any component configuration that is necessary.
 380:.\Generated_Source\PSoC5/cyfitter_cfg.c **** *
 381:.\Generated_Source\PSoC5/cyfitter_cfg.c **** * Parameters:  
 382:.\Generated_Source\PSoC5/cyfitter_cfg.c **** *   void
 383:.\Generated_Source\PSoC5/cyfitter_cfg.c **** *
 384:.\Generated_Source\PSoC5/cyfitter_cfg.c **** * Return:
 385:.\Generated_Source\PSoC5/cyfitter_cfg.c **** *   void
 386:.\Generated_Source\PSoC5/cyfitter_cfg.c **** *
 387:.\Generated_Source\PSoC5/cyfitter_cfg.c **** *******************************************************************************/
 388:.\Generated_Source\PSoC5/cyfitter_cfg.c **** 
 389:.\Generated_Source\PSoC5/cyfitter_cfg.c **** void cyfitter_cfg(void)
 390:.\Generated_Source\PSoC5/cyfitter_cfg.c **** {
 137              		.loc 1 390 0
 138              		.cfi_startproc
 139              		@ args = 0, pretend = 0, frame = 0
 140              		@ frame_needed = 0, uses_anonymous_args = 0
 141 0000 F8B5     		push	{r3, r4, r5, r6, r7, lr}
 142              		.cfi_def_cfa_offset 24
 143              		.cfi_offset 3, -24
 144              		.cfi_offset 4, -20
 145              		.cfi_offset 5, -16
 146              		.cfi_offset 6, -12
 147              		.cfi_offset 7, -8
 148              		.cfi_offset 14, -4
 391:.\Generated_Source\PSoC5/cyfitter_cfg.c **** #ifdef CYGlobalIntDisable
 392:.\Generated_Source\PSoC5/cyfitter_cfg.c **** 	/* Disable interrupts by default. Let user enable if/when they want. */
 393:.\Generated_Source\PSoC5/cyfitter_cfg.c **** 	CYGlobalIntDisable
 149              		.loc 1 393 0
 150              	@ 393 ".\Generated_Source\PSoC5\cyfitter_cfg.c" 1
 151 0002 72B6     		CPSID   i
 152              	@ 0 "" 2
 394:.\Generated_Source\PSoC5/cyfitter_cfg.c **** #endif
 395:.\Generated_Source\PSoC5/cyfitter_cfg.c **** 
 396:.\Generated_Source\PSoC5/cyfitter_cfg.c **** 	/* Enable/Disable Debug functionality based on settings from System DWR */
 397:.\Generated_Source\PSoC5/cyfitter_cfg.c **** 	CY_SET_XTND_REG8((void CYFAR *)CYREG_MLOGIC_DEBUG, (CY_GET_XTND_REG8((void CYFAR *)CYREG_MLOGIC_DE
 153              		.loc 1 397 0
 154              		.thumb
 155 0004 654B     		ldr	r3, .L28
 156 0006 0024     		movs	r4, #0
 157 0008 1A78     		ldrb	r2, [r3]	@ zero_extendqisi2
 158 000a 42F00402 		orr	r2, r2, #4
 159 000e 1A70     		strb	r2, [r3]
 160              	.LVL8:
 161              	.L17:
 162 0010 634B     		ldr	r3, .L28+4
 163              	.LBB34:
 164              	.LBB35:
 165              	.LBB36:
 166              	.LBB37:
  62:.\Generated_Source\PSoC5/cyfitter_cfg.c **** 	(void)memset(s, 0, n);
 167              		.loc 1 62 0 discriminator 2
 168 0012 0021     		movs	r1, #0
 169 0014 2344     		add	r3, r3, r4
 170              	.LVL9:
 171 0016 1868     		ldr	r0, [r3]	@ unaligned
 172 0018 9A88     		ldrh	r2, [r3, #4]	@ unaligned
ARM GAS  C:\Users\Xwx47\AppData\Local\Temp\ccZes61q.s 			page 11


 173 001a 0634     		adds	r4, r4, #6
 174 001c FFF7FEFF 		bl	memset
 175              	.LVL10:
 176              	.LBE37:
 177              	.LBE36:
 178              	.LBE35:
 398:.\Generated_Source\PSoC5/cyfitter_cfg.c **** 
 399:.\Generated_Source\PSoC5/cyfitter_cfg.c **** 	{
 400:.\Generated_Source\PSoC5/cyfitter_cfg.c **** 
 401:.\Generated_Source\PSoC5/cyfitter_cfg.c **** 		CYPACKED typedef struct {
 402:.\Generated_Source\PSoC5/cyfitter_cfg.c **** 			void CYFAR *address;
 403:.\Generated_Source\PSoC5/cyfitter_cfg.c **** 			uint16 size;
 404:.\Generated_Source\PSoC5/cyfitter_cfg.c **** 		} CYPACKED_ATTR cfg_memset_t;
 405:.\Generated_Source\PSoC5/cyfitter_cfg.c **** 
 406:.\Generated_Source\PSoC5/cyfitter_cfg.c **** 		static const cfg_memset_t CYCODE cfg_memset_list [] = {
 407:.\Generated_Source\PSoC5/cyfitter_cfg.c **** 			/* address, size */
 408:.\Generated_Source\PSoC5/cyfitter_cfg.c **** 			{(void CYFAR *)(CYREG_PRT0_DR), 16u},
 409:.\Generated_Source\PSoC5/cyfitter_cfg.c **** 			{(void CYFAR *)(CYREG_PRT3_DR), 64u},
 410:.\Generated_Source\PSoC5/cyfitter_cfg.c **** 			{(void CYFAR *)(CYREG_PRT12_DR), 16u},
 411:.\Generated_Source\PSoC5/cyfitter_cfg.c **** 			{(void CYFAR *)(CYDEV_UCFG_B0_P0_U0_BASE), 4096u},
 412:.\Generated_Source\PSoC5/cyfitter_cfg.c **** 			{(void CYFAR *)(CYDEV_UCFG_B1_P2_U0_BASE), 2048u},
 413:.\Generated_Source\PSoC5/cyfitter_cfg.c **** 			{(void CYFAR *)(CYDEV_UCFG_DSI0_BASE), 2560u},
 414:.\Generated_Source\PSoC5/cyfitter_cfg.c **** 			{(void CYFAR *)(CYDEV_UCFG_DSI12_BASE), 512u},
 415:.\Generated_Source\PSoC5/cyfitter_cfg.c **** 			{(void CYFAR *)(CYREG_BCTL0_MDCLK_EN), 32u},
 416:.\Generated_Source\PSoC5/cyfitter_cfg.c **** 		};
 417:.\Generated_Source\PSoC5/cyfitter_cfg.c **** 
 418:.\Generated_Source\PSoC5/cyfitter_cfg.c **** 		uint8 CYDATA i;
 419:.\Generated_Source\PSoC5/cyfitter_cfg.c **** 
 420:.\Generated_Source\PSoC5/cyfitter_cfg.c **** 		/* Zero out critical memory blocks before beginning configuration */
 421:.\Generated_Source\PSoC5/cyfitter_cfg.c **** 		for (i = 0u; i < (sizeof(cfg_memset_list)/sizeof(cfg_memset_list[0])); i++)
 179              		.loc 1 421 0 discriminator 2
 180 0020 302C     		cmp	r4, #48
 181 0022 F5D1     		bne	.L17
 182              		.loc 1 421 0 is_stmt 0
 183 0024 5F49     		ldr	r1, .L28+8
 184 0026 0020     		movs	r0, #0
 185              	.LVL11:
 186              	.L21:
 187              	.LBB38:
 188              	.LBB39:
 189              	.LBB40:
 166:.\Generated_Source\PSoC5/cyfitter_cfg.c **** 		uint32 baseAddr = addr_table[i];
 190              		.loc 1 166 0 is_stmt 1
 191 0028 51F8043F 		ldr	r3, [r1, #4]!
 192              	.LVL12:
 167:.\Generated_Source\PSoC5/cyfitter_cfg.c **** 		uint8 count = (uint8)baseAddr;
 193              		.loc 1 167 0
 194 002c DAB2     		uxtb	r2, r3
 195              	.LVL13:
 168:.\Generated_Source\PSoC5/cyfitter_cfg.c **** 		baseAddr &= 0xFFFFFF00u;
 196              		.loc 1 168 0
 197 002e 23F0FF05 		bic	r5, r3, #255
 198              	.LVL14:
 199              	.LBE40:
 200              	.LBE39:
 171:.\Generated_Source\PSoC5/cyfitter_cfg.c **** 			CY_SET_XTND_REG8((void CYFAR *)(baseAddr + data_table[j].offset), data_table[j].value);
 201              		.loc 1 171 0
ARM GAS  C:\Users\Xwx47\AppData\Local\Temp\ccZes61q.s 			page 12


 202 0032 4300     		lsls	r3, r0, #1
 203              	.LVL15:
 204 0034 03F19043 		add	r3, r3, #1207959552
 205 0038 5033     		adds	r3, r3, #80
 206 003a 1446     		mov	r4, r2
 207              	.LVL16:
 208              	.L18:
 209 003c 0233     		adds	r3, r3, #2
 210              	.LBB42:
 211              	.LBB41:
 169:.\Generated_Source\PSoC5/cyfitter_cfg.c **** 		while (count != 0u)
 212              		.loc 1 169 0
 213 003e 3AB1     		cbz	r2, .L27
 171:.\Generated_Source\PSoC5/cyfitter_cfg.c **** 			CY_SET_XTND_REG8((void CYFAR *)(baseAddr + data_table[j].offset), data_table[j].value);
 214              		.loc 1 171 0
 215 0040 13F8026C 		ldrb	r6, [r3, #-2]	@ zero_extendqisi2
 216 0044 13F8017C 		ldrb	r7, [r3, #-1]	@ zero_extendqisi2
 173:.\Generated_Source\PSoC5/cyfitter_cfg.c **** 			count--;
 217              		.loc 1 173 0
 218 0048 013A     		subs	r2, r2, #1
 219              	.LVL17:
 171:.\Generated_Source\PSoC5/cyfitter_cfg.c **** 			CY_SET_XTND_REG8((void CYFAR *)(baseAddr + data_table[j].offset), data_table[j].value);
 220              		.loc 1 171 0
 221 004a AF55     		strb	r7, [r5, r6]
 173:.\Generated_Source\PSoC5/cyfitter_cfg.c **** 			count--;
 222              		.loc 1 173 0
 223 004c D2B2     		uxtb	r2, r2
 224              	.LVL18:
 225 004e F5E7     		b	.L18
 226              	.L27:
 227              	.LBE41:
 164:.\Generated_Source\PSoC5/cyfitter_cfg.c **** 	for (i = 0u; i < CY_CFG_BASE_ADDR_COUNT; i++)
 228              		.loc 1 164 0
 229 0050 554B     		ldr	r3, .L28+12
 230 0052 2044     		add	r0, r0, r4
 231              	.LVL19:
 232 0054 9942     		cmp	r1, r3
 233 0056 E7D1     		bne	.L21
 234              	.LBE42:
 235              	.LBE38:
 422:.\Generated_Source\PSoC5/cyfitter_cfg.c **** 		{
 423:.\Generated_Source\PSoC5/cyfitter_cfg.c **** 			const cfg_memset_t CYCODE * CYDATA ms = &cfg_memset_list[i];
 424:.\Generated_Source\PSoC5/cyfitter_cfg.c **** 			CYMEMZERO(ms->address, (size_t)(uint32)(ms->size));
 425:.\Generated_Source\PSoC5/cyfitter_cfg.c **** 		}
 426:.\Generated_Source\PSoC5/cyfitter_cfg.c **** 
 427:.\Generated_Source\PSoC5/cyfitter_cfg.c **** 		cfg_write_bytes32(cy_cfg_addr_table, cy_cfg_data_table);
 428:.\Generated_Source\PSoC5/cyfitter_cfg.c **** 
 429:.\Generated_Source\PSoC5/cyfitter_cfg.c **** 		/* Perform normal device configuration. Order is not critical for these items. */
 430:.\Generated_Source\PSoC5/cyfitter_cfg.c **** 		CY_SET_XTND_REG16((void CYFAR *)(CYREG_CAPSR_CFG0), 0x0300u);
 236              		.loc 1 430 0
 237 0058 544B     		ldr	r3, .L28+16
 238 005a 4FF44071 		mov	r1, #768
 239 005e 1980     		strh	r1, [r3]	@ movhi
 431:.\Generated_Source\PSoC5/cyfitter_cfg.c **** 		CY_SET_XTND_REG16((void CYFAR *)(CYREG_LUT1_CR), 0x0103u);
 240              		.loc 1 431 0
 241 0060 40F20311 		movw	r1, #259
 242 0064 23F8281C 		strh	r1, [r3, #-40]	@ movhi
ARM GAS  C:\Users\Xwx47\AppData\Local\Temp\ccZes61q.s 			page 13


 432:.\Generated_Source\PSoC5/cyfitter_cfg.c **** 
 433:.\Generated_Source\PSoC5/cyfitter_cfg.c **** 		/* Enable digital routing */
 434:.\Generated_Source\PSoC5/cyfitter_cfg.c **** 		CY_SET_XTND_REG8((void CYFAR *)CYREG_BCTL0_BANK_CTL, CY_GET_XTND_REG8((void CYFAR *)CYREG_BCTL0_B
 243              		.loc 1 434 0
 244 0068 03F57743 		add	r3, r3, #63232
 245 006c 9133     		adds	r3, r3, #145
 246 006e 1978     		ldrb	r1, [r3]	@ zero_extendqisi2
 435:.\Generated_Source\PSoC5/cyfitter_cfg.c **** 		CY_SET_XTND_REG8((void CYFAR *)CYREG_BCTL1_BANK_CTL, CY_GET_XTND_REG8((void CYFAR *)CYREG_BCTL1_B
 436:.\Generated_Source\PSoC5/cyfitter_cfg.c **** 
 437:.\Generated_Source\PSoC5/cyfitter_cfg.c **** 		/* Enable UDB array */
 438:.\Generated_Source\PSoC5/cyfitter_cfg.c **** 		CY_SET_XTND_REG8((void CYFAR *)CYREG_PM_ACT_CFG0, CY_GET_XTND_REG8((void CYFAR *)CYREG_PM_ACT_CFG
 247              		.loc 1 438 0
 248 0070 4F4D     		ldr	r5, .L28+20
 249              	.LVL20:
 434:.\Generated_Source\PSoC5/cyfitter_cfg.c **** 		CY_SET_XTND_REG8((void CYFAR *)CYREG_BCTL0_BANK_CTL, CY_GET_XTND_REG8((void CYFAR *)CYREG_BCTL0_B
 250              		.loc 1 434 0
 251 0072 41F00201 		orr	r1, r1, #2
 252 0076 1970     		strb	r1, [r3]
 435:.\Generated_Source\PSoC5/cyfitter_cfg.c **** 		CY_SET_XTND_REG8((void CYFAR *)CYREG_BCTL1_BANK_CTL, CY_GET_XTND_REG8((void CYFAR *)CYREG_BCTL1_B
 253              		.loc 1 435 0
 254 0078 197C     		ldrb	r1, [r3, #16]	@ zero_extendqisi2
 255              	.LBE34:
 256              	.LBB43:
 257              	.LBB44:
  69:.\Generated_Source\PSoC5/cyfitter_cfg.c **** 	(void)memcpy(dest, src, n);
 258              		.loc 1 69 0
 259 007a 4E4C     		ldr	r4, .L28+24
 260              	.LBE44:
 261              	.LBE43:
 262              	.LBB46:
 435:.\Generated_Source\PSoC5/cyfitter_cfg.c **** 		CY_SET_XTND_REG8((void CYFAR *)CYREG_BCTL1_BANK_CTL, CY_GET_XTND_REG8((void CYFAR *)CYREG_BCTL1_B
 263              		.loc 1 435 0
 264 007c 41F00201 		orr	r1, r1, #2
 265 0080 1974     		strb	r1, [r3, #16]
 266              		.loc 1 438 0
 267 0082 2B78     		ldrb	r3, [r5]	@ zero_extendqisi2
 268              	.LBE46:
 269              	.LBB47:
 270              	.LBB48:
 215:.\Generated_Source\PSoC5/cyfitter_cfg.c **** 	CY_SET_XTND_REG16((void CYFAR *)(CYREG_FASTCLK_PLL_CFG0), 0x1251u);
 271              		.loc 1 215 0
 272 0084 1926     		movs	r6, #25
 273              	.LBE48:
 274              	.LBE47:
 275              	.LBB52:
 276              		.loc 1 438 0
 277 0086 43F04003 		orr	r3, r3, #64
 278 008a 2B70     		strb	r3, [r5]
 439:.\Generated_Source\PSoC5/cyfitter_cfg.c **** 		CY_SET_XTND_REG8((void CYFAR *)CYREG_PM_AVAIL_CR2, CY_GET_XTND_REG8((void CYFAR *)CYREG_PM_AVAIL_
 279              		.loc 1 439 0
 280 008c 4A4B     		ldr	r3, .L28+28
 281 008e 1978     		ldrb	r1, [r3]	@ zero_extendqisi2
 282 0090 41F01001 		orr	r1, r1, #16
 283 0094 1970     		strb	r1, [r3]
 284              	.LVL21:
 285              	.LBE52:
 286              	.LBB53:
ARM GAS  C:\Users\Xwx47\AppData\Local\Temp\ccZes61q.s 			page 14


 287              	.LBB45:
  69:.\Generated_Source\PSoC5/cyfitter_cfg.c **** 	(void)memcpy(dest, src, n);
 288              		.loc 1 69 0
 289 0096 494B     		ldr	r3, .L28+32
 290 0098 03CB     		ldmia	r3!, {r0, r1}
 291              	.LVL22:
 292 009a 2060     		str	r0, [r4]	@ unaligned
 293 009c 6160     		str	r1, [r4, #4]	@ unaligned
 294              	.LVL23:
 295              	.LBE45:
 296              	.LBE53:
 297              	.LBB54:
 298              	.LBB55:
 299 009e 03CB     		ldmia	r3!, {r0, r1}
 300 00a0 44F8E00C 		str	r0, [r4, #-224]	@ unaligned
 301 00a4 44F8DC1C 		str	r1, [r4, #-220]	@ unaligned
 302              	.LVL24:
 303              	.LBE55:
 304              	.LBE54:
 305              	.LBB56:
 306              	.LBB57:
 307 00a8 03CB     		ldmia	r3!, {r0, r1}
 308              	.LBE57:
 309              	.LBE56:
 440:.\Generated_Source\PSoC5/cyfitter_cfg.c **** 	}
 441:.\Generated_Source\PSoC5/cyfitter_cfg.c **** 
 442:.\Generated_Source\PSoC5/cyfitter_cfg.c **** 
 443:.\Generated_Source\PSoC5/cyfitter_cfg.c **** 	/* Perform second pass device configuration. These items must be configured in specific order afte
 444:.\Generated_Source\PSoC5/cyfitter_cfg.c **** 	CYCONFIGCPY((void CYFAR *)(CYREG_PRT15_DM0), (const void CYFAR *)(BS_IOPINS0_8_VAL), 8u);
 445:.\Generated_Source\PSoC5/cyfitter_cfg.c **** 	CYCONFIGCPY((void CYFAR *)(CYREG_PRT1_DM0), (const void CYFAR *)(BS_IOPINS0_1_VAL), 8u);
 446:.\Generated_Source\PSoC5/cyfitter_cfg.c **** 	CYCONFIGCPY((void CYFAR *)(CYREG_PRT2_DM0), (const void CYFAR *)(BS_IOPINS0_2_VAL), 8u);
 447:.\Generated_Source\PSoC5/cyfitter_cfg.c **** 	CY_SET_XTND_REG8((void CYFAR *)(CYREG_B0_P4_U1_CFG27), 0xC4u);
 310              		.loc 1 447 0
 311 00aa 454B     		ldr	r3, .L28+36
 312              	.LBB60:
 313              	.LBB58:
  69:.\Generated_Source\PSoC5/cyfitter_cfg.c **** 	(void)memcpy(dest, src, n);
 314              		.loc 1 69 0
 315 00ac 44F8CC1C 		str	r1, [r4, #-204]	@ unaligned
 316              	.LBE58:
 317              	.LBE60:
 318              		.loc 1 447 0
 319 00b0 C421     		movs	r1, #196
 320              	.LBB61:
 321              	.LBB59:
  69:.\Generated_Source\PSoC5/cyfitter_cfg.c **** 	(void)memcpy(dest, src, n);
 322              		.loc 1 69 0
 323 00b2 44F8D00C 		str	r0, [r4, #-208]	@ unaligned
 324              	.LBE59:
 325              	.LBE61:
 326              		.loc 1 447 0
 327 00b6 1970     		strb	r1, [r3]
 448:.\Generated_Source\PSoC5/cyfitter_cfg.c **** 	/* Switch Boost to the precision bandgap reference from its internal reference */
 449:.\Generated_Source\PSoC5/cyfitter_cfg.c **** 	CY_SET_REG8((void CYXDATA *)CYREG_BOOST_CR2, (CY_GET_REG8((void CYXDATA *)CYREG_BOOST_CR2) | 0x08u
 328              		.loc 1 449 0
 329 00b8 A3F54543 		sub	r3, r3, #50432
 330 00bc B93B     		subs	r3, r3, #185
ARM GAS  C:\Users\Xwx47\AppData\Local\Temp\ccZes61q.s 			page 15


 331 00be 1978     		ldrb	r1, [r3]	@ zero_extendqisi2
 332              	.LBB62:
 333              	.LBB49:
 210:.\Generated_Source\PSoC5/cyfitter_cfg.c **** 	CY_SET_XTND_REG8((void CYFAR *)(CYREG_FASTCLK_IMO_CR), 0x03u);
 334              		.loc 1 210 0
 335 00c0 0320     		movs	r0, #3
 336              	.LBE49:
 337              	.LBE62:
 338              		.loc 1 449 0
 339 00c2 41F00801 		orr	r1, r1, #8
 340 00c6 1970     		strb	r1, [r3]
 450:.\Generated_Source\PSoC5/cyfitter_cfg.c **** 
 451:.\Generated_Source\PSoC5/cyfitter_cfg.c **** 	/* Set Flash Cycles based on max possible frequency in case a glitch occurs during ClockSetup(). *
 452:.\Generated_Source\PSoC5/cyfitter_cfg.c **** 	CY_SET_XTND_REG8((void CYFAR *)(CYREG_CACHE_CC_CTL), (((CYDEV_INSTRUCT_CACHE_ENABLED) != 0) ? 0x61
 341              		.loc 1 452 0
 342 00c8 6121     		movs	r1, #97
 343 00ca 83F8DE14 		strb	r1, [r3, #1246]
 344              	.LBB63:
 345              	.LBB50:
 202:.\Generated_Source\PSoC5/cyfitter_cfg.c **** 	CY_SET_XTND_REG16((void CYFAR *)(CYREG_CLKDIST_DCFG0_CFG0), 0x0001u);
 346              		.loc 1 202 0
 347 00ce A3F2A223 		subw	r3, r3, #674
 348 00d2 0121     		movs	r1, #1
 349 00d4 1980     		strh	r1, [r3]	@ movhi
 203:.\Generated_Source\PSoC5/cyfitter_cfg.c **** 	CY_SET_XTND_REG8((void CYFAR *)(CYREG_CLKDIST_DCFG0_CFG0 + 0x2u), 0x18u);
 350              		.loc 1 203 0
 351 00d6 1821     		movs	r1, #24
 352 00d8 9970     		strb	r1, [r3, #2]
 206:.\Generated_Source\PSoC5/cyfitter_cfg.c **** 	CY_SET_XTND_REG8((void CYFAR *)(CYREG_SLOWCLK_ILO_CR0), 0x02u);
 353              		.loc 1 206 0
 354 00da 0221     		movs	r1, #2
 355 00dc 83F88012 		strb	r1, [r3, #640]
 207:.\Generated_Source\PSoC5/cyfitter_cfg.c **** 	CY_SET_XTND_REG8((void CYFAR *)(CYREG_CLKDIST_CR), 0x08u);
 356              		.loc 1 207 0
 357 00e0 0823     		movs	r3, #8
 358 00e2 4FF04021 		mov	r1, #1073758208
 359 00e6 0B70     		strb	r3, [r1]
 210:.\Generated_Source\PSoC5/cyfitter_cfg.c **** 	CY_SET_XTND_REG8((void CYFAR *)(CYREG_FASTCLK_IMO_CR), 0x03u);
 360              		.loc 1 210 0
 361 00e8 81F80002 		strb	r0, [r1, #512]
 211:.\Generated_Source\PSoC5/cyfitter_cfg.c **** 	CY_SET_XTND_REG8((void CYFAR *)(CYREG_IMO_TR1), (CY_GET_XTND_REG8((void CYFAR *)CYREG_FLSHID_CUST_
 362              		.loc 1 211 0
 363 00ec 3549     		ldr	r1, .L28+40
 217:.\Generated_Source\PSoC5/cyfitter_cfg.c **** 	pllLock = 0u;
 364              		.loc 1 217 0
 365 00ee 1446     		mov	r4, r2
 211:.\Generated_Source\PSoC5/cyfitter_cfg.c **** 	CY_SET_XTND_REG8((void CYFAR *)(CYREG_IMO_TR1), (CY_GET_XTND_REG8((void CYFAR *)CYREG_FLSHID_CUST_
 366              		.loc 1 211 0
 367 00f0 0878     		ldrb	r0, [r1]	@ zero_extendqisi2
 368 00f2 3549     		ldr	r1, .L28+44
 369 00f4 C0B2     		uxtb	r0, r0
 370 00f6 0870     		strb	r0, [r1]
 214:.\Generated_Source\PSoC5/cyfitter_cfg.c **** 	CY_SET_XTND_REG16((void CYFAR *)(CYREG_FASTCLK_PLL_P), 0x0008u);
 371              		.loc 1 214 0
 372 00f8 A1F27F41 		subw	r1, r1, #1151
 373 00fc 0B80     		strh	r3, [r1]	@ movhi
 215:.\Generated_Source\PSoC5/cyfitter_cfg.c **** 	CY_SET_XTND_REG16((void CYFAR *)(CYREG_FASTCLK_PLL_CFG0), 0x1251u);
ARM GAS  C:\Users\Xwx47\AppData\Local\Temp\ccZes61q.s 			page 16


 374              		.loc 1 215 0
 375 00fe 334B     		ldr	r3, .L28+48
 376 0100 41F25121 		movw	r1, #4689
 377 0104 1980     		strh	r1, [r3]	@ movhi
 378              	.LVL25:
 379              	.L25:
 220:.\Generated_Source\PSoC5/cyfitter_cfg.c **** 		pllLock = 0x03u & ((uint8)((uint8)pllLock << 1) | ((CY_GET_XTND_REG8((void CYFAR *)CYREG_FASTCLK_
 380              		.loc 1 220 0
 381 0106 324B     		ldr	r3, .L28+52
 221:.\Generated_Source\PSoC5/cyfitter_cfg.c **** 		CyDelayCycles(10u * 48u); /* Delay 10us based on 48MHz clock */
 382              		.loc 1 221 0
 383 0108 4FF4F070 		mov	r0, #480
 220:.\Generated_Source\PSoC5/cyfitter_cfg.c **** 		pllLock = 0x03u & ((uint8)((uint8)pllLock << 1) | ((CY_GET_XTND_REG8((void CYFAR *)CYREG_FASTCLK_
 384              		.loc 1 220 0
 385 010c 1A78     		ldrb	r2, [r3]	@ zero_extendqisi2
 386 010e 02F00102 		and	r2, r2, #1
 387 0112 42EA4404 		orr	r4, r2, r4, lsl #1
 388              	.LVL26:
 221:.\Generated_Source\PSoC5/cyfitter_cfg.c **** 		CyDelayCycles(10u * 48u); /* Delay 10us based on 48MHz clock */
 389              		.loc 1 221 0
 390 0116 FFF7FEFF 		bl	CyDelayCycles
 391              	.LVL27:
 218:.\Generated_Source\PSoC5/cyfitter_cfg.c **** 	for (timeout = 250u / 10u; (timeout > 0u) && (pllLock != 0x03u); timeout--)
 392              		.loc 1 218 0
 393 011a 013E     		subs	r6, r6, #1
 394              	.LVL28:
 220:.\Generated_Source\PSoC5/cyfitter_cfg.c **** 		pllLock = 0x03u & ((uint8)((uint8)pllLock << 1) | ((CY_GET_XTND_REG8((void CYFAR *)CYREG_FASTCLK_
 395              		.loc 1 220 0
 396 011c 04F00304 		and	r4, r4, #3
 397              	.LVL29:
 218:.\Generated_Source\PSoC5/cyfitter_cfg.c **** 	for (timeout = 250u / 10u; (timeout > 0u) && (pllLock != 0x03u); timeout--)
 398              		.loc 1 218 0
 399 0120 3AD0     		beq	.L23
 400              	.LVL30:
 401 0122 032C     		cmp	r4, #3
 402 0124 EFD1     		bne	.L25
 230:.\Generated_Source\PSoC5/cyfitter_cfg.c **** 	CY_SET_XTND_REG16((void CYFAR *)(CYREG_CLKDIST_MSTR0), 0x0100u);
 403              		.loc 1 230 0
 404 0126 2B4A     		ldr	r2, .L28+56
 405 0128 4FF48073 		mov	r3, #256
 406 012c 1380     		strh	r3, [r2]	@ movhi
 232:.\Generated_Source\PSoC5/cyfitter_cfg.c **** 	CY_SET_XTND_REG8((void CYFAR *)(CYREG_CLKDIST_BCFG0), 0x00u);
 407              		.loc 1 232 0
 408 012e 2A49     		ldr	r1, .L28+60
 231:.\Generated_Source\PSoC5/cyfitter_cfg.c **** 	CY_SET_XTND_REG8((void CYFAR *)(CYREG_CLKDIST_MSTR0), 0x07u);
 409              		.loc 1 231 0
 410 0130 0723     		movs	r3, #7
 411 0132 1370     		strb	r3, [r2]
 233:.\Generated_Source\PSoC5/cyfitter_cfg.c **** 	CY_SET_XTND_REG8((void CYFAR *)(CYREG_CLKDIST_BCFG2), 0x48u);
 412              		.loc 1 233 0
 413 0134 4820     		movs	r0, #72
 232:.\Generated_Source\PSoC5/cyfitter_cfg.c **** 	CY_SET_XTND_REG8((void CYFAR *)(CYREG_CLKDIST_BCFG0), 0x00u);
 414              		.loc 1 232 0
 415 0136 0023     		movs	r3, #0
 416 0138 0B70     		strb	r3, [r1]
 233:.\Generated_Source\PSoC5/cyfitter_cfg.c **** 	CY_SET_XTND_REG8((void CYFAR *)(CYREG_CLKDIST_BCFG2), 0x48u);
 417              		.loc 1 233 0
ARM GAS  C:\Users\Xwx47\AppData\Local\Temp\ccZes61q.s 			page 17


 418 013a 8870     		strb	r0, [r1, #2]
 235:.\Generated_Source\PSoC5/cyfitter_cfg.c **** 	CY_SET_XTND_REG8((void CYFAR *)(CYREG_CLKDIST_LD), 0x02u);
 419              		.loc 1 235 0
 420 013c 0221     		movs	r1, #2
 234:.\Generated_Source\PSoC5/cyfitter_cfg.c **** 	CY_SET_XTND_REG8((void CYFAR *)(CYREG_CLKDIST_MSTR0), 0x00u);
 421              		.loc 1 234 0
 422 013e 1370     		strb	r3, [r2]
 235:.\Generated_Source\PSoC5/cyfitter_cfg.c **** 	CY_SET_XTND_REG8((void CYFAR *)(CYREG_CLKDIST_LD), 0x02u);
 423              		.loc 1 235 0
 424 0140 02F8031C 		strb	r1, [r2, #-3]
 237:.\Generated_Source\PSoC5/cyfitter_cfg.c **** 	CY_SET_XTND_REG8((void CYFAR *)(CYREG_PM_ACT_CFG2), ((CY_GET_XTND_REG8((void CYFAR *)CYREG_PM_ACT_
 425              		.loc 1 237 0
 426 0144 92F89E13 		ldrb	r1, [r2, #926]	@ zero_extendqisi2
 427              	.LBE50:
 428              	.LBE63:
 429              	.LBB64:
 430              	.LBB65:
 263:.\Generated_Source\PSoC5/cyfitter_cfg.c **** 	CY_SET_XTND_REG8((void CYFAR *)(CYREG_BG_DFT0), (bg_xover_inl_trim & 0x07u));
 431              		.loc 1 263 0
 432 0148 2448     		ldr	r0, .L28+64
 433              	.LBE65:
 434              	.LBE64:
 435              	.LBB68:
 436              	.LBB51:
 237:.\Generated_Source\PSoC5/cyfitter_cfg.c **** 	CY_SET_XTND_REG8((void CYFAR *)(CYREG_PM_ACT_CFG2), ((CY_GET_XTND_REG8((void CYFAR *)CYREG_PM_ACT_
 437              		.loc 1 237 0
 438 014a 41F00101 		orr	r1, r1, #1
 439 014e 82F89E13 		strb	r1, [r2, #926]
 440              	.LBE51:
 441              	.LBE68:
 453:.\Generated_Source\PSoC5/cyfitter_cfg.c **** 	/* Setup clocks based on selections from Clock DWR */
 454:.\Generated_Source\PSoC5/cyfitter_cfg.c **** 	ClockSetup();
 455:.\Generated_Source\PSoC5/cyfitter_cfg.c **** 	/* Set Flash Cycles based on newly configured 24.00MHz Bus Clock. */
 456:.\Generated_Source\PSoC5/cyfitter_cfg.c **** 	CY_SET_XTND_REG8((void CYFAR *)(CYREG_CACHE_CC_CTL), (((CYDEV_INSTRUCT_CACHE_ENABLED) != 0) ? 0x81
 442              		.loc 1 456 0
 443 0152 8121     		movs	r1, #129
 444 0154 82F8FC17 		strb	r1, [r2, #2044]
 457:.\Generated_Source\PSoC5/cyfitter_cfg.c **** 	CY_SET_XTND_REG8((void CYFAR *)(CYREG_PANTHER_WAITPIPE), 0x01u);
 445              		.loc 1 457 0
 446 0158 2149     		ldr	r1, .L28+68
 447 015a 0122     		movs	r2, #1
 448 015c 0A70     		strb	r2, [r1]
 449              	.LBB69:
 450              	.LBB66:
 262:.\Generated_Source\PSoC5/cyfitter_cfg.c **** 	uint8 bg_xover_inl_trim = CY_GET_XTND_REG8((void CYFAR *)(CYREG_FLSHID_MFG_CFG_BG_XOVER_INL_TRIM +
 451              		.loc 1 262 0
 452 015e 2149     		ldr	r1, .L28+72
 453 0160 0978     		ldrb	r1, [r1]	@ zero_extendqisi2
 454 0162 C9B2     		uxtb	r1, r1
 455              	.LVL31:
 263:.\Generated_Source\PSoC5/cyfitter_cfg.c **** 	CY_SET_XTND_REG8((void CYFAR *)(CYREG_BG_DFT0), (bg_xover_inl_trim & 0x07u));
 456              		.loc 1 263 0
 457 0164 01F00704 		and	r4, r1, #7
 458              	.LVL32:
 264:.\Generated_Source\PSoC5/cyfitter_cfg.c **** 	CY_SET_XTND_REG8((void CYFAR *)(CYREG_BG_DFT1), ((bg_xover_inl_trim >> 4) & 0x0Fu));
 459              		.loc 1 264 0
 460 0168 0909     		lsrs	r1, r1, #4
ARM GAS  C:\Users\Xwx47\AppData\Local\Temp\ccZes61q.s 			page 18


 461              	.LVL33:
 263:.\Generated_Source\PSoC5/cyfitter_cfg.c **** 	CY_SET_XTND_REG8((void CYFAR *)(CYREG_BG_DFT0), (bg_xover_inl_trim & 0x07u));
 462              		.loc 1 263 0
 463 016a 0470     		strb	r4, [r0]
 264:.\Generated_Source\PSoC5/cyfitter_cfg.c **** 	CY_SET_XTND_REG8((void CYFAR *)(CYREG_BG_DFT1), ((bg_xover_inl_trim >> 4) & 0x0Fu));
 464              		.loc 1 264 0
 465 016c 4170     		strb	r1, [r0, #1]
 265:.\Generated_Source\PSoC5/cyfitter_cfg.c **** 	CY_SET_XTND_REG8((void CYFAR *)CYREG_PRT15_AG, 0x10u);
 466              		.loc 1 265 0
 467 016e 1E49     		ldr	r1, .L28+76
 468 0170 1020     		movs	r0, #16
 469 0172 0870     		strb	r0, [r1]
 266:.\Generated_Source\PSoC5/cyfitter_cfg.c **** 	CY_SET_XTND_REG8((void CYFAR *)CYREG_CAPSL_CFG0, 0x00u);
 470              		.loc 1 266 0
 471 0174 81F87336 		strb	r3, [r1, #1651]
 267:.\Generated_Source\PSoC5/cyfitter_cfg.c **** 	CY_SET_XTND_REG8((void CYFAR *)CYREG_CMP1_SW3, 0x20u);
 472              		.loc 1 267 0
 473 0178 1C4B     		ldr	r3, .L28+80
 474 017a 2021     		movs	r1, #32
 475 017c 1970     		strb	r1, [r3]
 269:.\Generated_Source\PSoC5/cyfitter_cfg.c **** 	CY_SET_XTND_REG8((void CYFAR *)CYREG_PUMP_CR0, 0x44u);
 476              		.loc 1 269 0
 477 017e 6FF41571 		mvn	r1, #596
 268:.\Generated_Source\PSoC5/cyfitter_cfg.c **** 	CY_SET_XTND_REG8((void CYFAR *)CYREG_BUS_SW3, 0x01u);
 478              		.loc 1 268 0
 479 0182 83F89020 		strb	r2, [r3, #144]
 480              	.LBE66:
 481              	.LBE69:
 482              	.LBB70:
 483              	.LBB71:
  69:.\Generated_Source\PSoC5/cyfitter_cfg.c **** 	(void)memcpy(dest, src, n);
 484              		.loc 1 69 0
 485 0186 1A4C     		ldr	r4, .L28+84
 486              	.LBE71:
 487              	.LBE70:
 488              	.LBB73:
 489              	.LBB67:
 269:.\Generated_Source\PSoC5/cyfitter_cfg.c **** 	CY_SET_XTND_REG8((void CYFAR *)CYREG_PUMP_CR0, 0x44u);
 490              		.loc 1 269 0
 491 0188 4422     		movs	r2, #68
 492 018a 0B44     		add	r3, r3, r1
 493 018c 1A70     		strb	r2, [r3]
 494              	.LVL34:
 495              	.LBE67:
 496              	.LBE73:
 497              	.LBB74:
 498              	.LBB72:
  69:.\Generated_Source\PSoC5/cyfitter_cfg.c **** 	(void)memcpy(dest, src, n);
 499              		.loc 1 69 0
 500 018e 95E80F00 		ldmia	r5, {r0, r1, r2, r3}
 501 0192 07C4     		stmia	r4!, {r0, r1, r2}
 502 0194 2380     		strh	r3, [r4]	@ movhi
 503 0196 F8BD     		pop	{r3, r4, r5, r6, r7, pc}
 504              	.LVL35:
 505              	.L23:
 506 0198 FEE7     		b	.L23
 507              	.L29:
ARM GAS  C:\Users\Xwx47\AppData\Local\Temp\ccZes61q.s 			page 19


 508 019a 00BF     		.align	2
 509              	.L28:
 510 019c E8460040 		.word	1073759976
 511 01a0 1E000000 		.word	.LANCHOR0+30
 512 01a4 FCFFFF47 		.word	1207959548
 513 01a8 4C000048 		.word	1207959628
 514 01ac 72580040 		.word	1073764466
 515 01b0 A0430040 		.word	1073759136
 516 01b4 F2510040 		.word	1073762802
 517 01b8 C2430040 		.word	1073759170
 518 01bc F8020048 		.word	1207960312
 519 01c0 DB080140 		.word	1073809627
 520 01c4 08010049 		.word	1224737032
 521 01c8 A1460040 		.word	1073759905
 522 01cc 20420040 		.word	1073758752
 523 01d0 25420040 		.word	1073758757
 524 01d4 04400040 		.word	1073758212
 525 01d8 06400040 		.word	1073758214
 526 01dc 6E580040 		.word	1073764462
 527 01e0 04000840 		.word	1074266116
 528 01e4 CF010049 		.word	1224737231
 529 01e8 FD510040 		.word	1073762813
 530 01ec CB5A0040 		.word	1073765067
 531 01f0 B0430040 		.word	1073759152
 532              	.LBE72:
 533              	.LBE74:
 534              		.cfi_endproc
 535              	.LFE10:
 536              		.size	cyfitter_cfg, .-cyfitter_cfg
 537              		.global	CapSense_AMuxCH0__maskTable
 538              		.global	CapSense_AMuxCH0__addrTable
 539              		.section	.rodata
 540              		.align	2
 541              		.set	.LANCHOR0,. + 0
 542              		.type	CapSense_AMuxCH0__addrTable, %object
 543              		.size	CapSense_AMuxCH0__addrTable, 24
 544              	CapSense_AMuxCH0__addrTable:
 545 0000 1C510040 		.word	1073762588
 546 0004 1C510040 		.word	1073762588
 547 0008 1C510040 		.word	1073762588
 548 000c FC510040 		.word	1073762812
 549 0010 CB5A0040 		.word	1073765067
 550 0014 9B5A0040 		.word	1073765019
 551              		.type	CapSense_AMuxCH0__maskTable, %object
 552              		.size	CapSense_AMuxCH0__maskTable, 6
 553              	CapSense_AMuxCH0__maskTable:
 554 0018 40       		.byte	64
 555 0019 10       		.byte	16
 556 001a 04       		.byte	4
 557 001b 10       		.byte	16
 558 001c 01       		.byte	1
 559 001d 10       		.byte	16
 560              		.type	cfg_memset_list.4897, %object
 561              		.size	cfg_memset_list.4897, 48
 562              	cfg_memset_list.4897:
 563 001e 00510040 		.4byte	1073762560
 564 0022 1000     		.2byte	16
ARM GAS  C:\Users\Xwx47\AppData\Local\Temp\ccZes61q.s 			page 20


 565 0024 30510040 		.4byte	1073762608
 566 0028 4000     		.2byte	64
 567 002a C0510040 		.4byte	1073762752
 568 002e 1000     		.2byte	16
 569 0030 00000140 		.4byte	1073807360
 570 0034 0010     		.2byte	4096
 571 0036 00140140 		.4byte	1073812480
 572 003a 0008     		.2byte	2048
 573 003c 00400140 		.4byte	1073823744
 574 0040 000A     		.2byte	2560
 575 0042 004C0140 		.4byte	1073826816
 576 0046 0002     		.2byte	512
 577 0048 00500140 		.4byte	1073827840
 578 004c 2000     		.2byte	32
 579 004e 0000     		.text
 580              	.Letext0:
 581              		.file 2 "c:\\program files (x86)\\cypress\\psoc creator\\3.2\\psoc creator\\import\\gnu\\arm\\4.8.
 582              		.file 3 ".\\Generated_Source\\PSoC5\\cytypes.h"
 583              		.file 4 ".\\Generated_Source\\PSoC5\\CyLib.h"